
bin/alu_full.elf:     file format elf32-littleriscv

Contents of section .text._start:
 10000000 97110000 93810180 17110000 130181ff  ................
 10000010 93000000 13020000 93020000 13030000  ................
 10000020 93030000 13040000 93040000 13050000  ................
 10000030 93050000 13060000 93060000 13070000  ................
 10000040 93070000 ef00405c 970200f3 938202fc  ......@\........
 10000050 23a0a200 73005010                    #...s.P.        
Contents of section .misc:
 10000058 414c5520 46554c4c 20284857 2b535729  ALU FULL (HW+SW)
 10000068 202d206f 70657261 73693a20 2b202d20   - operasi: + - 
 10000078 2a000000 496e7075 74206265 72757061  *...Input berupa
 10000088 20696e74 65676572 2c20616b 616e2064   integer, akan d
 10000098 696b6f6e 76657273 69206b65 2051382e  ikonversi ke Q8.
 100000a8 382e0000 52656e74 616e6720 616d616e  8...Rentang aman
 100000b8 20696e70 75743a20 2d313238 20732e64   input: -128 s.d
 100000c8 2e203132 37000000 50696c69 68206f70  . 127...Pilih op
 100000d8 65726173 69205b2b 202d202a 5d202871  erasi [+ - *] (q
 100000e8 20756e74 756b206b 656c7561 72293a20   untuk keluar): 
 100000f8 00000000 4b656c75 61722064 61726920  ....Keluar dari 
 10000108 414c5520 46554c4c 2e000000 4f706572  ALU FULL....Oper
 10000118 61736920 74696461 6b207661 6c69642e  asi tidak valid.
 10000128 00000000 4d617375 6b6b616e 20412028  ....Masukkan A (
 10000138 696e7465 67657229 3a200000 496e7075  integer): ..Inpu
 10000148 74204120 74696461 6b207661 6c69642e  t A tidak valid.
 10000158 00000000 4d617375 6b6b616e 20422028  ....Masukkan B (
 10000168 696e7465 67657229 3a200000 496e7075  integer): ..Inpu
 10000178 74204220 74696461 6b207661 6c69642e  t B tidak valid.
 10000188 00000000 413d2564 20285138 2e383d30  ....A=%d (Q8.8=0
 10000198 78253034 78292c20 423d2564 20285138  x%04x), B=%d (Q8
 100001a8 2e383d30 78253034 78290000 48573a20  .8=0x%04x)..HW: 
 100001b8 64697669 73696f6e 20627920 7a65726f  division by zero
 100001c8 00000000 53573a20 64697669 73696f6e  ....SW: division
 100001d8 20627920 7a65726f 00000000 48570000   by zero....HW..
 100001e8 53570000 53544154 55533a20 4d415443  SW..STATUS: MATC
 100001f8 48000000 53544154 55533a20 4d49534d  H...STATUS: MISM
 10000208 41544348 00000000 25732072 61773d30  ATCH....%s raw=0
 10000218 78253038 78206465 633d0000 25642e25  x%08x dec=..%d.%
 10000228 30336400 30313233 34353637 38394142  03d.0123456789AB
 10000238 43444546 286e756c 6c290000           CDEF(null)..    
Contents of section .text:
 10000244 2a860145 93f61500 91c23295 85810606  *..E......2.....
 10000254 f5f98280 00000000 86822a8f 2e85b68f  ..........*.....
 10000264 fa853287 81478143 814e3388 b300137e  ..2..G.C.N3....~
 10000274 17009398 170013a3 05000583 f6976307  ..............c.
 10000284 0e00333e 7800c283 b30efe00 8605b367  ..3>x..........g
 10000294 130161ff 01c5b285 6537aa9e 63860f00  ..a.....e7..c...
 100002a4 fe857a85 713faa9e 1e85f685 82820000  ..z.q?..........
 100002b4 634e0502 63c30504 2e86aa85 7d5515c2  cN..c.......}U..
 100002c4 85466378 b6006356 c0000606 8606e36c  .Fcx..cV.......l
 100002d4 b6fe0145 63e4c500 918d558d 85820582  ...Ec.....U.....
 100002e4 f5fa8280 8682c93f 2e858282 3305a040  .......?....3..@
 100002f4 63d70500 b305b040 c1b7b305 b0408682  c......@.....@..
 10000304 653f3305 a0408282 868263c7 05006349  e?3..@....c...cI
 10000314 05005d37 2e858282 b305b040 e35b05fe  ..]7.......@.[..
 10000324 3305a040 513f3305 b0408282 00000000  3..@Q?3..@......
 10000334 130101ff 23248100 23261100 13040500  ....#$..#&......
 10000344 03450400 631a0500 8320c100 03248100  .E..c.... ...$..
 10000354 13010101 67800000 13041400 ef005015  ....g.........P.
 10000364 6ff01ffe 130101ff 1305d000 23261100  o...........#&..
 10000374 ef001014 8320c100 1305a000 13010101  ..... ..........
 10000384 6f001013 130101fe 232a9100 23263101  o.......#*..#&1.
 10000394 93040500 93890500 13850500 1306803e  ...............>
 100003a4 93060000 93d5f541 232e1100 232c8100  .......A#...#,..
 100003b4 23282101 23244101 eff01fea 63c0050a  #(!.#$A.....c...
 100003c4 b7870000 b387a700 33b5a700 3304b500  ........3...3...
 100003d4 93d70701 13140401 3364f400 9357f441  ........3d...W.A
 100003e4 33c98700 3309f940 9305803e 13050900  3...3..@...>....
 100003f4 eff01fec 9305803e 130a0500 13050900  .......>........
 10000404 eff09ff0 13090500 13860900 93850400  ................
 10000414 17050000 1305c5df ef00805e 63560400  ...........^cV..
 10000424 1305d002 ef00d008 13060900 93050a00  ................
 10000434 17050000 130505df ef00805c 03248101  ...........\.$..
 10000444 8320c101 83244101 03290101 8329c100  . ...$A..)...)..
 10000454 032a8100 13010102 6ff0dff0 b787ffff  .*......o.......
 10000464 b387a700 33b5a700 1384f5ff 33048500  ....3.......3...
 10000474 6ff01ff6 130101fe 232e1100 232c8100  o.......#...#,..
 10000484 232a9100 23282101 23263101 23244101  #*..#(!.#&1.#$A.
 10000494 03440500 630a0408 9307d002 6300f406  .D..c.......c...
 100004a4 130454fd 13341400 93091000 33048500  ..T..4......3...
 100004b4 83470400 13050000 63820702 13890500  .G......c.......
 100004c4 130a9000 83440400 63900404 93850900  .....D..c.......
 100004d4 eff01fd7 2320a900 13051000 8320c101  ....# ....... ..
 100004e4 03248101 83244101 03290101 8329c100  .$...$A..)...)..
 100004f4 032a8100 13010102 67800000 13041000  .*......g.......
 10000504 9309f0ff 6ff09ffa 938404fd 93f7f40f  ....o...........
 10000514 13041400 636afa00 9305a000 eff05fd2  ....cj........_.
 10000524 3385a400 6ff01ffa 13050000 6ff01ffb  3...o.......o...
 10000534 130101fd 23248102 23229102 232e3101  ....#$..#"..#.1.
 10000544 232c4101 232a5101 23286101 23267101  #,A.#*Q.#(a.#&q.
 10000554 23261102 23202103 93040500 13040000  #&..# !.........
 10000564 9309d000 130aa000 930a8000 130bf007  ................
 10000574 930be001 ef004077 63083505 63064505  ......@wc.5.c.E.
 10000584 63045501 63146503 63040402 13058000  c.U.c.e.c.......
 10000594 ef000072 13050002 ef008071 13058000  ...r.......q....
 100005a4 1304f4ff ef00c070 6ff0dffc e3c48bfc  .......po.......
 100005b4 13091400 33848400 2300a400 ef00406f  ....3...#.....@o
 100005c4 13040900 6ff01ffb b3848400 eff09fd9  ....o...........
 100005d4 23800400 13050400 8320c102 03248102  #........ ...$..
 100005e4 83244102 03290102 8329c101 032a8101  .$A..)...)...*..
 100005f4 832a4101 032b0101 832bc100 13010103  .*A..+...+......
 10000604 67800000 130101fb 23261104 232c4103  g.......#&..#,A.
 10000614 232a5103 23286103 23248104 23229104  #*Q.#(a.#$..#"..
 10000624 23202105 232e3103 ef004065 eff09fd3  # !.#.1...@e....
 10000634 17050000 130545a2 eff09fcf eff09fd2  ......E.........
 10000644 17050000 130585a3 eff09fce eff09fd1  ................
 10000654 17050000 130585a5 370a0100 b7fafeca  ........7.......
 10000664 eff01fcd 170b0000 130b8ba6 eff09fcf  ................
 10000674 130afaff 938ada00 eff0dfce 13050b00  ................
 10000684 eff01fcb 13050101 eff09fea e356a0fe  .............V..
 10000694 03490101 93071005 1377f90d 631ef700  .I.......w..c...
 100006a4 17050000 130585a5 eff09fc8 eff09fcb  ................
 100006b4 73005010 6ff0dfff 9307d002 630ef900  s.P.o.......c...
 100006c4 930769fd 93f7f70f 13071000 17050000  ..i.............
 100006d4 130545a4 636af702 17050000 130505a5  ..E.cj..........
 100006e4 eff01fc5 13050101 eff09fe4 93058100  ................
 100006f4 13050101 23240100 eff0dfd7 631c0500  ....#$......c...
 10000704 17050000 130505a4 eff09fc2 eff09fc5  ................
 10000714 6ff09ff6 17050000 130545a4 eff05fc1  o.........E..._.
 10000724 13050101 eff0dfe0 9305c100 13050101  ................
 10000734 23260100 eff01fd4 63180500 17050000  #&......c.......
 10000744 130545a3 6ff05ffc 83248100 930700f8  ..E.o._..$......
 10000754 63d4f400 930400f8 9307f007 63d49700  c...........c...
 10000764 9304f007 93948400 0327c100 13950401  .........'......
 10000774 930700f8 13550541 6354f700 130700f8  .....U.AcT......
 10000784 9307f007 63d4e700 1307f007 13178700  ....c...........
 10000794 93150701 9307b002 93d50541 33744701  ...........A3tG.
 100007a4 6308f902 9307d002 630ef908 9307a002  c.......c.......
 100007b4 6318f90a 93970401 37170020 b3e78700  c.......7.. ....
 100007c4 2324f700 83290701 ef00c049 6f00c001  #$...).....Io...
 100007d4 93970401 37170020 b3e78700 2320f700  ....7.. ....# ..
 100007e4 83290701 ef008046 13090500 eff09fb7  .).....F........
 100007f4 8326c100 83258100 13070400 33f64401  .&...%......3.D.
 10000804 17050000 13058598 ef00801f eff09fb5  ................
 10000814 639e5905 631c5905 17050000 13058599  c.Y.c.Y.........
 10000824 eff01fb1 eff01fb4 17050000 1305059a  ................
 10000834 eff01fb0 eff01fb3 17050000 1305059b  ................
 10000844 6f008005 93970401 37170020 b3e78700  o.......7.. ....
 10000854 2322f700 83290701 ef000040 6ff0dff8  #"...).....@o...
 10000864 13090000 93090000 6ff05ff8 93850900  ........o._.....
 10000874 17050000 13050597 eff0dfb0 17050000  ................
 10000884 13058596 93050900 eff0dfaf 17050000  ................
 10000894 1305c596 e38229fb eff09fa9 eff09fac  ......).........
 100008a4 ef008042 6ff05fdd 130101fe 232c8100  ...Bo._.....#,..
 100008b4 23282101 232e1100 232a9100 13090500  #(!.#...#*......
 100008c4 13840500 6364c402 9304f0ff 1304f4ff  ....cd..........
 100008d4 63109404 8320c101 03248101 83244101  c.... ...$...$A.
 100008e4 03290101 13010102 67800000 13850600  .)......g.......
 100008f4 2326c100 2324d100 ef008040 0326c100  #&..#$.....@.&..
 10000904 83268100 1306f6ff 1376f60f 6ff09ffb  .&.......v..o...
 10000914 b3078900 03c50700 ef00803e 6ff01ffb  ...........>o...
 10000924 130101fe 23263101 232e1100 232c8100  ....#&1.#...#,..
 10000934 232a9100 23282101 93090500 63820506  #*..#(!.....c...
 10000944 93840500 93070000 9305a000 13850400  ................
 10000954 13841700 3389f900 eff0df98 13050503  ....3...........
 10000964 2300a900 9305a000 13850400 eff0df94  #...............
 10000974 1374f40f 93040500 93070400 e31605fc  .t..............
 10000984 13050400 8320c101 03248101 83244101  ..... ...$...$A.
 10000994 03290101 8329c100 13010102 67800000  .)...)......g...
 100009a4 93070003 2300f500 13041000 6ff05ffd  ....#.......o._.
 100009b4 63800504 13070000 17060000 13060687  c...............
 100009c4 93f6f500 b306d600 83c60600 93071700  ................
 100009d4 3307e500 93f7f70f 2300d700 93d54500  3.......#.....E.
 100009e4 13870700 e39e05fc 13850700 67800000  ............g...
 100009f4 93070003 2300f500 93071000 6ff0dffe  ....#.......o...
 10000a04 130101f8 232af106 93074106 232c8104  ....#*....A.#,..
 10000a14 23244105 23225105 23206105 232e7103  #$A.#"Q.# a.#.q.
 10000a24 232c8103 232e1104 232a9104 23282105  #,..#...#*..#(!.
 10000a34 23263105 13040500 2322b106 2324c106  #&1.....#"..#$..
 10000a44 2326d106 2328e106 232c0107 232e1107  #&..#(..#,..#...
 10000a54 2320f102 130a5002 930a0003 930b9000  # ....P.........
 10000a64 130b3007 130cf0ff 03450400 631a0502  ..0......E..c...
 10000a74 8320c105 03248105 83244105 03290105  . ...$...$A..)..
 10000a84 8329c104 032a8104 832a4104 032b0104  .)...*...*A..+..
 10000a94 832bc103 032c8103 13010108 67800000  .+...,......g...
 10000aa4 63104517 83471400 639a4701 13055002  c.E..G..c.G...P.
 10000ab4 ef000025 13042400 6ff01ffb 638a5707  ...%..$.o...c.W.
 10000ac4 13041400 93090002 13090000 83440400  .............D..
 10000ad4 938704fd 93f7f70f 63f2fb06 63866413  ........c...c.d.
 10000ae4 636e9b06 93073006 6384f410 93074006  cn....0.c.....@.
 10000af4 638af40c 13055002 ef008020 63965901  c.....P.... c.Y.
 10000b04 13050003 ef00c01f 630e0900 93050900  ........c.......
 10000b14 1305c101 eff0dfe0 93040500 9384f4ff  ................
 10000b24 639c8411 03450400 63080506 6f00400d  c....E..c...o.@.
 10000b34 13042400 93090003 6ff01ff9 13050900  ..$.....o.......
 10000b44 9305a000 eff0cfef 3385a400 130605fd  ........3.......
 10000b54 1379f60f 13041400 6ff05ff7 93075007  .y......o._...P.
 10000b64 6384f404 93078007 e396f4f8 83270102  c............'..
 10000b74 13054102 83a50700 13874700 2320e102  ..A.......G.# ..
 10000b84 eff01fe3 93050500 93860900 13060900  ................
 10000b94 13054102 eff05fd1 83470400 e38607ec  ..A..._..G......
 10000ba4 13041400 6ff05fec 83270102 13874700  ....o._..'....G.
 10000bb4 83a50700 2320e102 13054102 eff05fd6  ....# ....A..._.
 10000bc4 6ff05ffc 83270102 13874700 83a50700  o._..'....G.....
 10000bd4 2320e102 e3d205fe 1305d002 2326b100  # ..........#&..
 10000be4 ef000012 8325c100 b305b040 6ff0dffc  .....%.....@o...
 10000bf4 83270102 13874700 03c50700 2320e102  .'....G.....# ..
 10000c04 ef000010 6ff05ff9 83270102 13874700  ....o._..'....G.
 10000c14 83a40700 2320e102 63960400 97f4ffff  ....# ..c.......
 10000c24 9384c461 03c50400 e30805f6 93841400  ...a............
 10000c34 ef00000d 6ff01fff 1307c101 b3079700  ....o...........
 10000c44 03c50700 ef00c00b 6ff05fed 3305b500  ........o._.3...
 10000c54 13158500 67800000 3305b540 13158500  ....g...3..@....
 10000c64 67800000 130101ff 23261100 eff04fdd  g.......#&....O.
 10000c74 8320c100 13010101 67800000 b7270003  . ......g....'..
 10000c84 23820700 130700f8 2386e700 13074003  #.......#.....@.
 10000c94 2380e700 23820700 13073000 2386e700  #...#.....0.#...
 10000ca4 130770fc 2384e700 23880700 67800000  ..p.#...#...g...
 10000cb4 37270003 83474701 93f70702 e38c07fe  7'...GG.........
 10000cc4 2300a700 67800000 37270003 83474701  #...g...7'...GG.
 10000cd4 93f70702 e38c07fe 83474701 93f70704  .........GG.....
 10000ce4 e38607fe 67800000 37270003 83474701  ....g...7'...GG.
 10000cf4 93f71700 e38c07fe 03450700 67800000  .........E..g...
 10000d04 6ff01ffb                             o...            
Contents of section .Pulp_Chip.Info:
 0000 0a000000 38000000 01000000 50756c70  ....8.......Pulp
 0010 5f496e66 6f006368 69703d6e 6f6e6520  _Info.chip=none 
 0020 6370753d 6e6f6e65 2070653d 2d312066  cpu=none pe=-1 f
 0030 633d2d31 206c323d 2d31206c 31636c3d  c=-1 l2=-1 l1cl=
 0040 2d31206c 3166633d 2d310000 0000      -1 l1fc=-1....  
Contents of section .debug_line:
 0000 ac000000 02006600 00000101 fb0e0d00  ......f.........
 0010 01010101 00000001 0000012f 686f6d65  .........../home
 0020 2f646576 616e2f53 6f432f70 756c702d  /devan/SoC/pulp-
 0030 72697363 762d676e 752d746f 6f6c6368  riscv-gnu-toolch
 0040 61696e2f 72697363 762d6763 632f6c69  ain/riscv-gcc/li
 0050 62676363 2f636f6e 6669672f 72697363  bgcc/config/risc
 0060 7600006d 756c6469 332e5300 01000000  v..muldi3.S.....
 0070 00050244 02001003 23010301 09020001  ...D....#.......
 0080 03020902 00010301 09040001 03010902  ................
 0090 00010302 09020001 03010902 00010301  ................
 00a0 09020001 03010902 00010902 00000101  ................
 00b0 42010000 02006600 00000101 fb0e0d00  B.....f.........
 00c0 01010101 00000001 0000012f 686f6d65  .........../home
 00d0 2f646576 616e2f53 6f432f70 756c702d  /devan/SoC/pulp-
 00e0 72697363 762d676e 752d746f 6f6c6368  riscv-gnu-toolch
 00f0 61696e2f 72697363 762d6763 632f6c69  ain/riscv-gcc/li
 0100 62676363 2f636f6e 6669672f 72697363  bgcc/config/risc
 0110 7600006d 756c7469 332e5300 01000000  v..multi3.S.....
 0120 0005025c 02001003 2b010301 09020001  ...\....+.......
 0130 03010902 00010301 09020001 03010902  ................
 0140 00010301 09020001 03010902 00010301  ................
 0150 09020001 03010902 00010302 09020001  ................
 0160 03010904 00010301 09040001 03010904  ................
 0170 00010301 09040001 03010902 00010301  ................
 0180 09020001 03010904 00010301 09040001  ................
 0190 03010902 00010302 09040001 03010902  ................
 01a0 00010301 09040001 03010902 00010301  ................
 01b0 09020001 03010902 00010301 09020001  ................
 01c0 03020902 00010301 09040001 03010902  ................
 01d0 00010301 09020001 03010902 00010302  ................
 01e0 09020001 03010902 00010301 09020001  ................
 01f0 09020000 01018201 00000200 63000000  ............c...
 0200 0101fb0e 0d000101 01010000 00010000  ................
 0210 012f686f 6d652f64 6576616e 2f536f43  ./home/devan/SoC
 0220 2f70756c 702d7269 7363762d 676e752d  /pulp-riscv-gnu-
 0230 746f6f6c 63686169 6e2f7269 7363762d  toolchain/riscv-
 0240 6763632f 6c696267 63632f63 6f6e6669  gcc/libgcc/confi
 0250 672f7269 73637600 00646976 2e530001  g/riscv..div.S..
 0260 00000000 0502b402 001003c5 00010301  ................
 0270 09040001 03050904 00010301 09020001  ................
 0280 03010902 00010301 09020001 03010902  ................
 0290 00010301 09020001 03020904 00010301  ................
 02a0 09040001 03010902 00010301 09020001  ................
 02b0 03020904 00010302 09020001 03010904  ................
 02c0 00010301 09020001 03020902 00010301  ................
 02d0 09020001 03010902 00010302 09020001  ................
 02e0 03050902 00010301 09020001 03010902  ................
 02f0 00010301 09020001 03040902 00010301  ................
 0300 09040001 03010904 00010301 09040001  ................
 0310 03020902 00010302 09040001 03010902  ................
 0320 00010301 09020001 03010904 00010304  ................
 0330 09020001 03010902 00010301 09040001  ................
 0340 03020904 00010301 09020001 03010902  ................
 0350 00010302 09020001 03010904 00010302  ................
 0360 09040001 03010904 00010301 09020001  ................
 0370 03010904 00010902 00000101           ............    
Contents of section .debug_info:
 0000 d0000000 02000000 00000401 00000000  ................
 0010 44020010 58020010 2f686f6d 652f6465  D...X.../home/de
 0020 76616e2f 536f432f 70756c70 2d726973  van/SoC/pulp-ris
 0030 63762d67 6e752d74 6f6f6c63 6861696e  cv-gnu-toolchain
 0040 2f726973 63762d67 63632f6c 69626763  /riscv-gcc/libgc
 0050 632f636f 6e666967 2f726973 63762f6d  c/config/riscv/m
 0060 756c6469 332e5300 2f686f6d 652f6465  uldi3.S./home/de
 0070 76616e2f 536f432f 70756c70 2d726973  van/SoC/pulp-ris
 0080 63762d67 6e752d74 6f6f6c63 6861696e  cv-gnu-toolchain
 0090 2f627569 6c642d67 63632d6e 65776c69  /build-gcc-newli
 00a0 622d7374 61676532 2f726973 63763332  b-stage2/riscv32
 00b0 2d756e6b 6e6f776e 2d656c66 2f6c6962  -unknown-elf/lib
 00c0 67636300 474e5520 41532032 2e32382e  gcc.GNU AS 2.28.
 00d0 30000180 d0000000 02001400 00000401  0...............
 00e0 b0000000 5c020010 b2020010 2f686f6d  ....\......./hom
 00f0 652f6465 76616e2f 536f432f 70756c70  e/devan/SoC/pulp
 0100 2d726973 63762d67 6e752d74 6f6f6c63  -riscv-gnu-toolc
 0110 6861696e 2f726973 63762d67 63632f6c  hain/riscv-gcc/l
 0120 69626763 632f636f 6e666967 2f726973  ibgcc/config/ris
 0130 63762f6d 756c7469 332e5300 2f686f6d  cv/multi3.S./hom
 0140 652f6465 76616e2f 536f432f 70756c70  e/devan/SoC/pulp
 0150 2d726973 63762d67 6e752d74 6f6f6c63  -riscv-gnu-toolc
 0160 6861696e 2f627569 6c642d67 63632d6e  hain/build-gcc-n
 0170 65776c69 622d7374 61676532 2f726973  ewlib-stage2/ris
 0180 63763332 2d756e6b 6e6f776e 2d656c66  cv32-unknown-elf
 0190 2f6c6962 67636300 474e5520 41532032  /libgcc.GNU AS 2
 01a0 2e32382e 30000180 cd000000 02002800  .28.0.........(.
 01b0 00000401 f6010000 b4020010 30030010  ............0...
 01c0 2f686f6d 652f6465 76616e2f 536f432f  /home/devan/SoC/
 01d0 70756c70 2d726973 63762d67 6e752d74  pulp-riscv-gnu-t
 01e0 6f6f6c63 6861696e 2f726973 63762d67  oolchain/riscv-g
 01f0 63632f6c 69626763 632f636f 6e666967  cc/libgcc/config
 0200 2f726973 63762f64 69762e53 002f686f  /riscv/div.S./ho
 0210 6d652f64 6576616e 2f536f43 2f70756c  me/devan/SoC/pul
 0220 702d7269 7363762d 676e752d 746f6f6c  p-riscv-gnu-tool
 0230 63686169 6e2f6275 696c642d 6763632d  chain/build-gcc-
 0240 6e65776c 69622d73 74616765 322f7269  newlib-stage2/ri
 0250 73637633 322d756e 6b6e6f77 6e2d656c  scv32-unknown-el
 0260 662f6c69 62676363 00474e55 20415320  f/libgcc.GNU AS 
 0270 322e3238 2e300001 80                 2.28.0...       
Contents of section .debug_abbrev:
 0000 01110010 06110112 0103081b 08250813  .............%..
 0010 05000000 01110010 06110112 0103081b  ................
 0020 08250813 05000000 01110010 06110112  .%..............
 0030 0103081b 08250813 05000000           .....%......    
Contents of section .debug_aranges:
 0000 1c000000 02000000 00000400 00000000  ................
 0010 44020010 14000000 00000000 00000000  D...............
 0020 1c000000 0200d400 00000400 00000000  ................
 0030 5c020010 56000000 00000000 00000000  \...V...........
 0040 1c000000 0200a801 00000400 00000000  ................
 0050 b4020010 7c000000 00000000 00000000  ....|...........

Disassembly of section .text._start:

10000000 <_start>:
10000000:	00001197          	auipc	gp,0x1
10000004:	80018193          	addi	gp,gp,-2048 # 10000800 <__global_pointer>
10000008:	00001117          	auipc	sp,0x1
1000000c:	ff810113          	addi	sp,sp,-8 # 10001000 <__stack_pointer>
10000010:	00000093          	li	ra,0
10000014:	00000213          	li	tp,0
10000018:	00000293          	li	t0,0
1000001c:	00000313          	li	t1,0
10000020:	00000393          	li	t2,0
10000024:	00000413          	li	s0,0
10000028:	00000493          	li	s1,0
1000002c:	00000513          	li	a0,0
10000030:	00000593          	li	a1,0
10000034:	00000613          	li	a2,0
10000038:	00000693          	li	a3,0
1000003c:	00000713          	li	a4,0
10000040:	00000793          	li	a5,0
10000044:	5c4000ef          	jal	ra,10000608 <main>

10000048 <_eoc>:
10000048:	f3000297          	auipc	t0,0xf3000
1000004c:	fc028293          	addi	t0,t0,-64 # 3000008 <status>
10000050:	00a2a023          	sw	a0,0(t0)
10000054:	10500073          	wfi

Disassembly of section .misc:

10000058 <hex_symbols-0x1d4>:
10000058:	4c41                	li	s8,16
1000005a:	2055                	jal	100000fe <_eoc+0xb6>
1000005c:	5546                	lw	a0,112(sp)
1000005e:	4c4c                	lw	a1,28(s0)
10000060:	2820                	fld	fs0,80(s0)
10000062:	5748                	lw	a0,44(a4)
10000064:	2957532b          	0x2957532b
10000068:	2d20                	fld	fs0,88(a0)
1000006a:	6f20                	flw	fs0,88(a4)
1000006c:	6570                	flw	fa2,76(a0)
1000006e:	6172                	flw	ft2,28(sp)
10000070:	203a6973          	csrrsi	s2,0x203,20
10000074:	202d202b          	p.sw	sp,512(s10!)
10000078:	002a                	0x2a
1000007a:	0000                	unimp
1000007c:	6e49                	lui	t3,0x12
1000007e:	7570                	flw	fa2,108(a0)
10000080:	2074                	fld	fa3,192(s0)
10000082:	6562                	flw	fa0,24(sp)
10000084:	7572                	flw	fa0,60(sp)
10000086:	6170                	flw	fa2,68(a0)
10000088:	6920                	flw	fs0,80(a0)
1000008a:	746e                	flw	fs0,248(sp)
1000008c:	6765                	lui	a4,0x19
1000008e:	7265                	lui	tp,0xffff9
10000090:	202c                	fld	fa1,64(s0)
10000092:	6b61                	lui	s6,0x18
10000094:	6e61                	lui	t3,0x18
10000096:	6420                	flw	fs0,72(s0)
10000098:	6b69                	lui	s6,0x1a
1000009a:	65766e6f          	jal	t3,10066ef0 <__stack_pointer+0x65ef0>
1000009e:	7372                	flw	ft6,60(sp)
100000a0:	2069                	jal	1000012a <_eoc+0xe2>
100000a2:	5120656b          	0x5120656b
100000a6:	2e38                	fld	fa4,88(a2)
100000a8:	2e38                	fld	fa4,88(a2)
100000aa:	0000                	unimp
100000ac:	6552                	flw	fa0,20(sp)
100000ae:	746e                	flw	fs0,248(sp)
100000b0:	6e61                	lui	t3,0x18
100000b2:	6d612067          	0x6d612067
100000b6:	6e61                	lui	t3,0x18
100000b8:	6920                	flw	fs0,80(a0)
100000ba:	706e                	flw	ft0,248(sp)
100000bc:	7475                	lui	s0,0xffffd
100000be:	203a                	fld	ft0,392(sp)
100000c0:	312d                	jal	ffffcea <status+0xcfffce2>
100000c2:	3832                	fld	fa6,296(sp)
100000c4:	7320                	flw	fs0,96(a4)
100000c6:	642e                	flw	fs0,200(sp)
100000c8:	202e                	fld	ft0,200(sp)
100000ca:	3231                	jal	ffff9d6 <status+0xcfff9ce>
100000cc:	00000037          	lui	zero,0x0
100000d0:	6950                	flw	fa2,20(a0)
100000d2:	696c                	flw	fa1,84(a0)
100000d4:	2068                	fld	fa0,192(s0)
100000d6:	7265706f          	j	100577fc <__stack_pointer+0x567fc>
100000da:	7361                	lui	t1,0xffff8
100000dc:	2069                	jal	10000166 <_eoc+0x11e>
100000de:	2d202b5b          	p.addn	s6,zero,s2,22
100000e2:	2a20                	fld	fs0,80(a2)
100000e4:	205d                	jal	1000018a <_eoc+0x142>
100000e6:	7128                	flw	fa0,96(a0)
100000e8:	7520                	flw	fs0,104(a0)
100000ea:	746e                	flw	fs0,248(sp)
100000ec:	6b75                	lui	s6,0x1d
100000ee:	6b20                	flw	fs0,80(a4)
100000f0:	6c65                	lui	s8,0x19
100000f2:	6175                	addi	sp,sp,368
100000f4:	2972                	fld	fs2,280(sp)
100000f6:	203a                	fld	ft0,392(sp)
100000f8:	0000                	unimp
100000fa:	0000                	unimp
100000fc:	756c654b          	fnmsub.h	a0,s8,s6,a4,unknown
10000100:	7261                	lui	tp,0xffff8
10000102:	6420                	flw	fs0,72(s0)
10000104:	7261                	lui	tp,0xffff8
10000106:	2069                	jal	10000190 <_eoc+0x148>
10000108:	4c41                	li	s8,16
1000010a:	2055                	jal	100001ae <_eoc+0x166>
1000010c:	5546                	lw	a0,112(sp)
1000010e:	4c4c                	lw	a1,28(s0)
10000110:	002e                	0x2e
10000112:	0000                	unimp
10000114:	7265704f          	fnmadd.d	ft0,fa0,ft6,fa4
10000118:	7361                	lui	t1,0xffff8
1000011a:	2069                	jal	100001a4 <_eoc+0x15c>
1000011c:	6974                	flw	fa3,84(a0)
1000011e:	6164                	flw	fs1,68(a0)
10000120:	6176206b          	0x6176206b
10000124:	696c                	flw	fa1,84(a0)
10000126:	2e64                	fld	fs1,216(a2)
10000128:	0000                	unimp
1000012a:	0000                	unimp
1000012c:	614d                	addi	sp,sp,176
1000012e:	6b6b7573          	csrrci	a0,0x6b6,22
10000132:	6e61                	lui	t3,0x18
10000134:	4120                	lw	s0,64(a0)
10000136:	2820                	fld	fs0,80(s0)
10000138:	6e69                	lui	t3,0x1a
1000013a:	6574                	flw	fa3,76(a0)
1000013c:	29726567          	0x29726567
10000140:	203a                	fld	ft0,392(sp)
10000142:	0000                	unimp
10000144:	6e49                	lui	t3,0x12
10000146:	7570                	flw	fa2,108(a0)
10000148:	2074                	fld	fa3,192(s0)
1000014a:	2041                	jal	100001ca <_eoc+0x182>
1000014c:	6974                	flw	fa3,84(a0)
1000014e:	6164                	flw	fs1,68(a0)
10000150:	6176206b          	0x6176206b
10000154:	696c                	flw	fa1,84(a0)
10000156:	2e64                	fld	fs1,216(a2)
10000158:	0000                	unimp
1000015a:	0000                	unimp
1000015c:	614d                	addi	sp,sp,176
1000015e:	6b6b7573          	csrrci	a0,0x6b6,22
10000162:	6e61                	lui	t3,0x18
10000164:	4220                	lw	s0,64(a2)
10000166:	2820                	fld	fs0,80(s0)
10000168:	6e69                	lui	t3,0x1a
1000016a:	6574                	flw	fa3,76(a0)
1000016c:	29726567          	0x29726567
10000170:	203a                	fld	ft0,392(sp)
10000172:	0000                	unimp
10000174:	6e49                	lui	t3,0x12
10000176:	7570                	flw	fa2,108(a0)
10000178:	2074                	fld	fa3,192(s0)
1000017a:	2042                	fld	ft0,16(sp)
1000017c:	6974                	flw	fa3,84(a0)
1000017e:	6164                	flw	fs1,68(a0)
10000180:	6176206b          	0x6176206b
10000184:	696c                	flw	fa1,84(a0)
10000186:	2e64                	fld	fs1,216(a2)
10000188:	0000                	unimp
1000018a:	0000                	unimp
1000018c:	3d41                	jal	1000001c <_start+0x1c>
1000018e:	6425                	lui	s0,0x9
10000190:	2820                	fld	fs0,80(s0)
10000192:	3851                	jal	ffffa26 <status+0xcfffa1e>
10000194:	382e                	fld	fa6,232(sp)
10000196:	303d                	jal	ffff9c4 <status+0xcfff9bc>
10000198:	2578                	fld	fa4,200(a0)
1000019a:	3430                	fld	fa2,104(s0)
1000019c:	2978                	fld	fa4,208(a0)
1000019e:	202c                	fld	fa1,64(s0)
100001a0:	3d42                	fld	fs10,48(sp)
100001a2:	6425                	lui	s0,0x9
100001a4:	2820                	fld	fs0,80(s0)
100001a6:	3851                	jal	ffffa3a <status+0xcfffa32>
100001a8:	382e                	fld	fa6,232(sp)
100001aa:	303d                	jal	ffff9d8 <status+0xcfff9d0>
100001ac:	2578                	fld	fa4,200(a0)
100001ae:	3430                	fld	fa2,104(s0)
100001b0:	2978                	fld	fa4,208(a0)
100001b2:	0000                	unimp
100001b4:	5748                	lw	a0,44(a4)
100001b6:	203a                	fld	ft0,392(sp)
100001b8:	6964                	flw	fs1,84(a0)
100001ba:	6976                	flw	fs2,92(sp)
100001bc:	6e6f6973          	csrrsi	s2,0x6e6,30
100001c0:	6220                	flw	fs0,64(a2)
100001c2:	2079                	jal	10000250 <__mulsi3+0xc>
100001c4:	657a                	flw	fa0,156(sp)
100001c6:	6f72                	flw	ft10,28(sp)
100001c8:	0000                	unimp
100001ca:	0000                	unimp
100001cc:	203a5753          	0x203a5753
100001d0:	6964                	flw	fs1,84(a0)
100001d2:	6976                	flw	fs2,92(sp)
100001d4:	6e6f6973          	csrrsi	s2,0x6e6,30
100001d8:	6220                	flw	fs0,64(a2)
100001da:	2079                	jal	10000268 <__muldi3+0xc>
100001dc:	657a                	flw	fa0,156(sp)
100001de:	6f72                	flw	ft10,28(sp)
100001e0:	0000                	unimp
100001e2:	0000                	unimp
100001e4:	5748                	lw	a0,44(a4)
100001e6:	0000                	unimp
100001e8:	00005753          	fadd.s	fa4,ft0,ft0,unknown
100001ec:	54415453          	fmacex.s.ah	s0,sp,tp
100001f0:	5355                	li	t1,-11
100001f2:	203a                	fld	ft0,392(sp)
100001f4:	414d                	li	sp,19
100001f6:	4354                	lw	a3,4(a4)
100001f8:	0048                	addi	a0,sp,4
100001fa:	0000                	unimp
100001fc:	54415453          	fmacex.s.ah	s0,sp,tp
10000200:	5355                	li	t1,-11
10000202:	203a                	fld	ft0,392(sp)
10000204:	494d                	li	s2,19
10000206:	54414d53          	0x54414d53
1000020a:	00004843          	fmadd.s	fa6,ft0,ft0,ft0,rmm
1000020e:	0000                	unimp
10000210:	7325                	lui	t1,0xfffe9
10000212:	7220                	flw	fs0,96(a2)
10000214:	7761                	lui	a4,0xffff8
10000216:	303d                	jal	ffffa44 <status+0xcfffa3c>
10000218:	2578                	fld	fa4,200(a0)
1000021a:	3830                	fld	fa2,112(s0)
1000021c:	2078                	fld	fa4,192(s0)
1000021e:	6564                	flw	fs1,76(a0)
10000220:	00003d63          	p.bneimm	zero,0,1000023a <hex_symbols+0xe>
10000224:	6425                	lui	s0,0x9
10000226:	252e                	fld	fa0,200(sp)
10000228:	3330                	fld	fa2,96(a4)
1000022a:	0064                	addi	s1,sp,12

1000022c <hex_symbols>:
1000022c:	3130                	fld	fa2,96(a0)
1000022e:	3332                	fld	ft6,296(sp)
10000230:	3534                	fld	fa3,104(a0)
10000232:	3736                	fld	fa4,360(sp)
10000234:	3938                	fld	fa4,112(a0)
10000236:	4241                	li	tp,16
10000238:	46454443          	0x46454443
1000023c:	6e28                	flw	fa0,88(a2)
1000023e:	6c75                	lui	s8,0x1d
10000240:	296c                	fld	fa1,208(a0)
	...

Disassembly of section .text:

10000244 <__mulsi3>:
10000244:	862a                	mv	a2,a0
10000246:	4501                	li	a0,0
10000248:	0015f693          	andi	a3,a1,1
1000024c:	c291                	beqz	a3,10000250 <__mulsi3+0xc>
1000024e:	9532                	add	a0,a0,a2
10000250:	8185                	srli	a1,a1,0x1
10000252:	0606                	slli	a2,a2,0x1
10000254:	f9f5                	bnez	a1,10000248 <__mulsi3+0x4>
10000256:	8082                	ret
10000258:	0000                	unimp
	...

1000025c <__muldi3>:
1000025c:	8286                	mv	t0,ra
1000025e:	8f2a                	mv	t5,a0
10000260:	852e                	mv	a0,a1
10000262:	8fb6                	mv	t6,a3
10000264:	85fa                	mv	a1,t5
10000266:	8732                	mv	a4,a2
10000268:	4781                	li	a5,0
1000026a:	4381                	li	t2,0
1000026c:	4e81                	li	t4,0
1000026e:	00b38833          	add	a6,t2,a1
10000272:	00177e13          	andi	t3,a4,1
10000276:	00179893          	slli	a7,a5,0x1
1000027a:	0005a313          	slti	t1,a1,0
1000027e:	8305                	srli	a4,a4,0x1
10000280:	97f6                	add	a5,a5,t4
10000282:	000e0763          	beqz	t3,10000290 <__muldi3+0x34>
10000286:	00783e33          	sltu	t3,a6,t2
1000028a:	83c2                	mv	t2,a6
1000028c:	00fe0eb3          	add	t4,t3,a5
10000290:	0586                	slli	a1,a1,0x1
10000292:	011367b3          	or	a5,t1,a7
10000296:	ff61                	bnez	a4,1000026e <__muldi3+0x12>
10000298:	c501                	beqz	a0,100002a0 <__muldi3+0x44>
1000029a:	85b2                	mv	a1,a2
1000029c:	3765                	jal	10000244 <__mulsi3>
1000029e:	9eaa                	add	t4,t4,a0
100002a0:	000f8663          	beqz	t6,100002ac <__muldi3+0x50>
100002a4:	85fe                	mv	a1,t6
100002a6:	857a                	mv	a0,t5
100002a8:	3f71                	jal	10000244 <__mulsi3>
100002aa:	9eaa                	add	t4,t4,a0
100002ac:	851e                	mv	a0,t2
100002ae:	85f6                	mv	a1,t4
100002b0:	8282                	jr	t0
	...

100002b4 <__divsi3>:
100002b4:	02054e63          	bltz	a0,100002f0 <__umodsi3+0x8>
100002b8:	0405c363          	bltz	a1,100002fe <__umodsi3+0x16>

100002bc <__udivsi3>:
100002bc:	862e                	mv	a2,a1
100002be:	85aa                	mv	a1,a0
100002c0:	557d                	li	a0,-1
100002c2:	c215                	beqz	a2,100002e6 <__udivsi3+0x2a>
100002c4:	4685                	li	a3,1
100002c6:	00b67863          	bleu	a1,a2,100002d6 <__udivsi3+0x1a>
100002ca:	00c05663          	blez	a2,100002d6 <__udivsi3+0x1a>
100002ce:	0606                	slli	a2,a2,0x1
100002d0:	0686                	slli	a3,a3,0x1
100002d2:	feb66ce3          	bltu	a2,a1,100002ca <__udivsi3+0xe>
100002d6:	4501                	li	a0,0
100002d8:	00c5e463          	bltu	a1,a2,100002e0 <__udivsi3+0x24>
100002dc:	8d91                	sub	a1,a1,a2
100002de:	8d55                	or	a0,a0,a3
100002e0:	8285                	srli	a3,a3,0x1
100002e2:	8205                	srli	a2,a2,0x1
100002e4:	faf5                	bnez	a3,100002d8 <__udivsi3+0x1c>
100002e6:	8082                	ret

100002e8 <__umodsi3>:
100002e8:	8286                	mv	t0,ra
100002ea:	3fc9                	jal	100002bc <__udivsi3>
100002ec:	852e                	mv	a0,a1
100002ee:	8282                	jr	t0
100002f0:	40a00533          	neg	a0,a0
100002f4:	0005d763          	bgez	a1,10000302 <__umodsi3+0x1a>
100002f8:	40b005b3          	neg	a1,a1
100002fc:	b7c1                	j	100002bc <__udivsi3>
100002fe:	40b005b3          	neg	a1,a1
10000302:	8286                	mv	t0,ra
10000304:	3f65                	jal	100002bc <__udivsi3>
10000306:	40a00533          	neg	a0,a0
1000030a:	8282                	jr	t0

1000030c <__modsi3>:
1000030c:	8286                	mv	t0,ra
1000030e:	0005c763          	bltz	a1,1000031c <__modsi3+0x10>
10000312:	00054963          	bltz	a0,10000324 <__modsi3+0x18>
10000316:	375d                	jal	100002bc <__udivsi3>
10000318:	852e                	mv	a0,a1
1000031a:	8282                	jr	t0
1000031c:	40b005b3          	neg	a1,a1
10000320:	fe055be3          	bgez	a0,10000316 <__modsi3+0xa>
10000324:	40a00533          	neg	a0,a0
10000328:	3f51                	jal	100002bc <__udivsi3>
1000032a:	40b00533          	neg	a0,a1
1000032e:	8282                	jr	t0
10000330:	0000                	unimp
	...

10000334 <put_str>:
10000334:	ff010113          	addi	sp,sp,-16
10000338:	00812423          	sw	s0,8(sp)
1000033c:	00112623          	sw	ra,12(sp)
10000340:	00050413          	mv	s0,a0
10000344:	00044503          	lbu	a0,0(s0) # 9000 <status-0x2ff7008>
10000348:	00051a63          	bnez	a0,1000035c <put_str+0x28>
1000034c:	00c12083          	lw	ra,12(sp)
10000350:	00812403          	lw	s0,8(sp)
10000354:	01010113          	addi	sp,sp,16
10000358:	00008067          	ret
1000035c:	00140413          	addi	s0,s0,1
10000360:	155000ef          	jal	ra,10000cb4 <uart_write>
10000364:	fe1ff06f          	j	10000344 <put_str+0x10>

10000368 <put_crlf>:
10000368:	ff010113          	addi	sp,sp,-16
1000036c:	00d00513          	li	a0,13
10000370:	00112623          	sw	ra,12(sp)
10000374:	141000ef          	jal	ra,10000cb4 <uart_write>
10000378:	00c12083          	lw	ra,12(sp)
1000037c:	00a00513          	li	a0,10
10000380:	01010113          	addi	sp,sp,16
10000384:	1310006f          	j	10000cb4 <uart_write>

10000388 <print_q16_16>:
10000388:	fe010113          	addi	sp,sp,-32
1000038c:	00912a23          	sw	s1,20(sp)
10000390:	01312623          	sw	s3,12(sp)
10000394:	00050493          	mv	s1,a0
10000398:	00058993          	mv	s3,a1
1000039c:	00058513          	mv	a0,a1
100003a0:	3e800613          	li	a2,1000
100003a4:	00000693          	li	a3,0
100003a8:	41f5d593          	srai	a1,a1,0x1f
100003ac:	00112e23          	sw	ra,28(sp)
100003b0:	00812c23          	sw	s0,24(sp)
100003b4:	01212823          	sw	s2,16(sp)
100003b8:	01412423          	sw	s4,8(sp)
100003bc:	ea1ff0ef          	jal	ra,1000025c <__muldi3>
100003c0:	0a05c063          	bltz	a1,10000460 <print_q16_16+0xd8>
100003c4:	000087b7          	lui	a5,0x8
100003c8:	00a787b3          	add	a5,a5,a0
100003cc:	00a7b533          	sltu	a0,a5,a0
100003d0:	00b50433          	add	s0,a0,a1
100003d4:	0107d793          	srli	a5,a5,0x10
100003d8:	01041413          	slli	s0,s0,0x10
100003dc:	00f46433          	or	s0,s0,a5
100003e0:	41f45793          	srai	a5,s0,0x1f
100003e4:	0087c933          	xor	s2,a5,s0
100003e8:	40f90933          	sub	s2,s2,a5
100003ec:	3e800593          	li	a1,1000
100003f0:	00090513          	mv	a0,s2
100003f4:	ec1ff0ef          	jal	ra,100002b4 <__divsi3>
100003f8:	3e800593          	li	a1,1000
100003fc:	00050a13          	mv	s4,a0
10000400:	00090513          	mv	a0,s2
10000404:	f09ff0ef          	jal	ra,1000030c <__modsi3>
10000408:	00050913          	mv	s2,a0
1000040c:	00098613          	mv	a2,s3
10000410:	00048593          	mv	a1,s1
10000414:	00000517          	auipc	a0,0x0
10000418:	dfc50513          	addi	a0,a0,-516 # 10000210 <_eoc+0x1c8>
1000041c:	5e8000ef          	jal	ra,10000a04 <printf>
10000420:	00045663          	bgez	s0,1000042c <print_q16_16+0xa4>
10000424:	02d00513          	li	a0,45
10000428:	08d000ef          	jal	ra,10000cb4 <uart_write>
1000042c:	00090613          	mv	a2,s2
10000430:	000a0593          	mv	a1,s4
10000434:	00000517          	auipc	a0,0x0
10000438:	df050513          	addi	a0,a0,-528 # 10000224 <_eoc+0x1dc>
1000043c:	5c8000ef          	jal	ra,10000a04 <printf>
10000440:	01812403          	lw	s0,24(sp)
10000444:	01c12083          	lw	ra,28(sp)
10000448:	01412483          	lw	s1,20(sp)
1000044c:	01012903          	lw	s2,16(sp)
10000450:	00c12983          	lw	s3,12(sp)
10000454:	00812a03          	lw	s4,8(sp)
10000458:	02010113          	addi	sp,sp,32
1000045c:	f0dff06f          	j	10000368 <put_crlf>
10000460:	ffff87b7          	lui	a5,0xffff8
10000464:	00a787b3          	add	a5,a5,a0
10000468:	00a7b533          	sltu	a0,a5,a0
1000046c:	fff58413          	addi	s0,a1,-1
10000470:	00850433          	add	s0,a0,s0
10000474:	f61ff06f          	j	100003d4 <print_q16_16+0x4c>

10000478 <parse_int32.constprop.0>:
10000478:	fe010113          	addi	sp,sp,-32
1000047c:	00112e23          	sw	ra,28(sp)
10000480:	00812c23          	sw	s0,24(sp)
10000484:	00912a23          	sw	s1,20(sp)
10000488:	01212823          	sw	s2,16(sp)
1000048c:	01312623          	sw	s3,12(sp)
10000490:	01412423          	sw	s4,8(sp)
10000494:	00054403          	lbu	s0,0(a0)
10000498:	08040a63          	beqz	s0,1000052c <parse_int32.constprop.0+0xb4>
1000049c:	02d00793          	li	a5,45
100004a0:	06f40063          	beq	s0,a5,10000500 <parse_int32.constprop.0+0x88>
100004a4:	fd540413          	addi	s0,s0,-43
100004a8:	00143413          	seqz	s0,s0
100004ac:	00100993          	li	s3,1
100004b0:	00850433          	add	s0,a0,s0
100004b4:	00044783          	lbu	a5,0(s0)
100004b8:	00000513          	li	a0,0
100004bc:	02078263          	beqz	a5,100004e0 <parse_int32.constprop.0+0x68>
100004c0:	00058913          	mv	s2,a1
100004c4:	00900a13          	li	s4,9
100004c8:	00044483          	lbu	s1,0(s0)
100004cc:	04049063          	bnez	s1,1000050c <parse_int32.constprop.0+0x94>
100004d0:	00098593          	mv	a1,s3
100004d4:	d71ff0ef          	jal	ra,10000244 <__mulsi3>
100004d8:	00a92023          	sw	a0,0(s2)
100004dc:	00100513          	li	a0,1
100004e0:	01c12083          	lw	ra,28(sp)
100004e4:	01812403          	lw	s0,24(sp)
100004e8:	01412483          	lw	s1,20(sp)
100004ec:	01012903          	lw	s2,16(sp)
100004f0:	00c12983          	lw	s3,12(sp)
100004f4:	00812a03          	lw	s4,8(sp)
100004f8:	02010113          	addi	sp,sp,32
100004fc:	00008067          	ret
10000500:	00100413          	li	s0,1
10000504:	fff00993          	li	s3,-1
10000508:	fa9ff06f          	j	100004b0 <parse_int32.constprop.0+0x38>
1000050c:	fd048493          	addi	s1,s1,-48
10000510:	0ff4f793          	andi	a5,s1,255
10000514:	00140413          	addi	s0,s0,1
10000518:	00fa6a63          	bltu	s4,a5,1000052c <parse_int32.constprop.0+0xb4>
1000051c:	00a00593          	li	a1,10
10000520:	d25ff0ef          	jal	ra,10000244 <__mulsi3>
10000524:	00a48533          	add	a0,s1,a0
10000528:	fa1ff06f          	j	100004c8 <parse_int32.constprop.0+0x50>
1000052c:	00000513          	li	a0,0
10000530:	fb1ff06f          	j	100004e0 <parse_int32.constprop.0+0x68>

10000534 <read_line.constprop.1>:
10000534:	fd010113          	addi	sp,sp,-48
10000538:	02812423          	sw	s0,40(sp)
1000053c:	02912223          	sw	s1,36(sp)
10000540:	01312e23          	sw	s3,28(sp)
10000544:	01412c23          	sw	s4,24(sp)
10000548:	01512a23          	sw	s5,20(sp)
1000054c:	01612823          	sw	s6,16(sp)
10000550:	01712623          	sw	s7,12(sp)
10000554:	02112623          	sw	ra,44(sp)
10000558:	03212023          	sw	s2,32(sp)
1000055c:	00050493          	mv	s1,a0
10000560:	00000413          	li	s0,0
10000564:	00d00993          	li	s3,13
10000568:	00a00a13          	li	s4,10
1000056c:	00800a93          	li	s5,8
10000570:	07f00b13          	li	s6,127
10000574:	01e00b93          	li	s7,30
10000578:	774000ef          	jal	ra,10000cec <uart_read>
1000057c:	05350863          	beq	a0,s3,100005cc <read_line.constprop.1+0x98>
10000580:	05450663          	beq	a0,s4,100005cc <read_line.constprop.1+0x98>
10000584:	01550463          	beq	a0,s5,1000058c <read_line.constprop.1+0x58>
10000588:	03651463          	bne	a0,s6,100005b0 <read_line.constprop.1+0x7c>
1000058c:	02040463          	beqz	s0,100005b4 <read_line.constprop.1+0x80>
10000590:	00800513          	li	a0,8
10000594:	720000ef          	jal	ra,10000cb4 <uart_write>
10000598:	02000513          	li	a0,32
1000059c:	718000ef          	jal	ra,10000cb4 <uart_write>
100005a0:	00800513          	li	a0,8
100005a4:	fff40413          	addi	s0,s0,-1
100005a8:	70c000ef          	jal	ra,10000cb4 <uart_write>
100005ac:	fcdff06f          	j	10000578 <read_line.constprop.1+0x44>
100005b0:	fc8bc4e3          	blt	s7,s0,10000578 <read_line.constprop.1+0x44>
100005b4:	00140913          	addi	s2,s0,1
100005b8:	00848433          	add	s0,s1,s0
100005bc:	00a40023          	sb	a0,0(s0)
100005c0:	6f4000ef          	jal	ra,10000cb4 <uart_write>
100005c4:	00090413          	mv	s0,s2
100005c8:	fb1ff06f          	j	10000578 <read_line.constprop.1+0x44>
100005cc:	008484b3          	add	s1,s1,s0
100005d0:	d99ff0ef          	jal	ra,10000368 <put_crlf>
100005d4:	00048023          	sb	zero,0(s1)
100005d8:	00040513          	mv	a0,s0
100005dc:	02c12083          	lw	ra,44(sp)
100005e0:	02812403          	lw	s0,40(sp)
100005e4:	02412483          	lw	s1,36(sp)
100005e8:	02012903          	lw	s2,32(sp)
100005ec:	01c12983          	lw	s3,28(sp)
100005f0:	01812a03          	lw	s4,24(sp)
100005f4:	01412a83          	lw	s5,20(sp)
100005f8:	01012b03          	lw	s6,16(sp)
100005fc:	00c12b83          	lw	s7,12(sp)
10000600:	03010113          	addi	sp,sp,48
10000604:	00008067          	ret

10000608 <main>:
10000608:	fb010113          	addi	sp,sp,-80
1000060c:	04112623          	sw	ra,76(sp)
10000610:	03412c23          	sw	s4,56(sp)
10000614:	03512a23          	sw	s5,52(sp)
10000618:	03612823          	sw	s6,48(sp)
1000061c:	04812423          	sw	s0,72(sp)
10000620:	04912223          	sw	s1,68(sp)
10000624:	05212023          	sw	s2,64(sp)
10000628:	03312e23          	sw	s3,60(sp)
1000062c:	654000ef          	jal	ra,10000c80 <uart_init>
10000630:	d39ff0ef          	jal	ra,10000368 <put_crlf>
10000634:	00000517          	auipc	a0,0x0
10000638:	a2450513          	addi	a0,a0,-1500 # 10000058 <_eoc+0x10>
1000063c:	cf9ff0ef          	jal	ra,10000334 <put_str>
10000640:	d29ff0ef          	jal	ra,10000368 <put_crlf>
10000644:	00000517          	auipc	a0,0x0
10000648:	a3850513          	addi	a0,a0,-1480 # 1000007c <_eoc+0x34>
1000064c:	ce9ff0ef          	jal	ra,10000334 <put_str>
10000650:	d19ff0ef          	jal	ra,10000368 <put_crlf>
10000654:	00000517          	auipc	a0,0x0
10000658:	a5850513          	addi	a0,a0,-1448 # 100000ac <_eoc+0x64>
1000065c:	00010a37          	lui	s4,0x10
10000660:	cafefab7          	lui	s5,0xcafef
10000664:	cd1ff0ef          	jal	ra,10000334 <put_str>
10000668:	00000b17          	auipc	s6,0x0
1000066c:	a68b0b13          	addi	s6,s6,-1432 # 100000d0 <_eoc+0x88>
10000670:	cf9ff0ef          	jal	ra,10000368 <put_crlf>
10000674:	fffa0a13          	addi	s4,s4,-1 # ffff <status-0x2ff0009>
10000678:	00da8a93          	addi	s5,s5,13 # cafef00d <pulp__FC+0xcafef00e>
1000067c:	cedff0ef          	jal	ra,10000368 <put_crlf>
10000680:	000b0513          	mv	a0,s6
10000684:	cb1ff0ef          	jal	ra,10000334 <put_str>
10000688:	01010513          	addi	a0,sp,16
1000068c:	ea9ff0ef          	jal	ra,10000534 <read_line.constprop.1>
10000690:	fea056e3          	blez	a0,1000067c <main+0x74>
10000694:	01014903          	lbu	s2,16(sp)
10000698:	05100793          	li	a5,81
1000069c:	0df97713          	andi	a4,s2,223
100006a0:	00f71e63          	bne	a4,a5,100006bc <main+0xb4>
100006a4:	00000517          	auipc	a0,0x0
100006a8:	a5850513          	addi	a0,a0,-1448 # 100000fc <_eoc+0xb4>
100006ac:	c89ff0ef          	jal	ra,10000334 <put_str>
100006b0:	cb9ff0ef          	jal	ra,10000368 <put_crlf>
100006b4:	10500073          	wfi
100006b8:	ffdff06f          	j	100006b4 <main+0xac>
100006bc:	02d00793          	li	a5,45
100006c0:	00f90e63          	beq	s2,a5,100006dc <main+0xd4>
100006c4:	fd690793          	addi	a5,s2,-42
100006c8:	0ff7f793          	andi	a5,a5,255
100006cc:	00100713          	li	a4,1
100006d0:	00000517          	auipc	a0,0x0
100006d4:	a4450513          	addi	a0,a0,-1468 # 10000114 <_eoc+0xcc>
100006d8:	02f76a63          	bltu	a4,a5,1000070c <main+0x104>
100006dc:	00000517          	auipc	a0,0x0
100006e0:	a5050513          	addi	a0,a0,-1456 # 1000012c <_eoc+0xe4>
100006e4:	c51ff0ef          	jal	ra,10000334 <put_str>
100006e8:	01010513          	addi	a0,sp,16
100006ec:	e49ff0ef          	jal	ra,10000534 <read_line.constprop.1>
100006f0:	00810593          	addi	a1,sp,8
100006f4:	01010513          	addi	a0,sp,16
100006f8:	00012423          	sw	zero,8(sp)
100006fc:	d7dff0ef          	jal	ra,10000478 <parse_int32.constprop.0>
10000700:	00051c63          	bnez	a0,10000718 <main+0x110>
10000704:	00000517          	auipc	a0,0x0
10000708:	a4050513          	addi	a0,a0,-1472 # 10000144 <_eoc+0xfc>
1000070c:	c29ff0ef          	jal	ra,10000334 <put_str>
10000710:	c59ff0ef          	jal	ra,10000368 <put_crlf>
10000714:	f69ff06f          	j	1000067c <main+0x74>
10000718:	00000517          	auipc	a0,0x0
1000071c:	a4450513          	addi	a0,a0,-1468 # 1000015c <_eoc+0x114>
10000720:	c15ff0ef          	jal	ra,10000334 <put_str>
10000724:	01010513          	addi	a0,sp,16
10000728:	e0dff0ef          	jal	ra,10000534 <read_line.constprop.1>
1000072c:	00c10593          	addi	a1,sp,12
10000730:	01010513          	addi	a0,sp,16
10000734:	00012623          	sw	zero,12(sp)
10000738:	d41ff0ef          	jal	ra,10000478 <parse_int32.constprop.0>
1000073c:	00051863          	bnez	a0,1000074c <main+0x144>
10000740:	00000517          	auipc	a0,0x0
10000744:	a3450513          	addi	a0,a0,-1484 # 10000174 <_eoc+0x12c>
10000748:	fc5ff06f          	j	1000070c <main+0x104>
1000074c:	00812483          	lw	s1,8(sp)
10000750:	f8000793          	li	a5,-128
10000754:	00f4d463          	ble	a5,s1,1000075c <main+0x154>
10000758:	f8000493          	li	s1,-128
1000075c:	07f00793          	li	a5,127
10000760:	0097d463          	ble	s1,a5,10000768 <main+0x160>
10000764:	07f00493          	li	s1,127
10000768:	00849493          	slli	s1,s1,0x8
1000076c:	00c12703          	lw	a4,12(sp)
10000770:	01049513          	slli	a0,s1,0x10
10000774:	f8000793          	li	a5,-128
10000778:	41055513          	srai	a0,a0,0x10
1000077c:	00f75463          	ble	a5,a4,10000784 <main+0x17c>
10000780:	f8000713          	li	a4,-128
10000784:	07f00793          	li	a5,127
10000788:	00e7d463          	ble	a4,a5,10000790 <main+0x188>
1000078c:	07f00713          	li	a4,127
10000790:	00871713          	slli	a4,a4,0x8
10000794:	01071593          	slli	a1,a4,0x10
10000798:	02b00793          	li	a5,43
1000079c:	4105d593          	srai	a1,a1,0x10
100007a0:	01477433          	and	s0,a4,s4
100007a4:	02f90863          	beq	s2,a5,100007d4 <main+0x1cc>
100007a8:	02d00793          	li	a5,45
100007ac:	08f90e63          	beq	s2,a5,10000848 <__global_pointer+0x48>
100007b0:	02a00793          	li	a5,42
100007b4:	0af91863          	bne	s2,a5,10000864 <__global_pointer+0x64>
100007b8:	01049793          	slli	a5,s1,0x10
100007bc:	20001737          	lui	a4,0x20001
100007c0:	0087e7b3          	or	a5,a5,s0
100007c4:	00f72423          	sw	a5,8(a4) # 20001008 <__stack_pointer+0x10000008>
100007c8:	01072983          	lw	s3,16(a4)
100007cc:	49c000ef          	jal	ra,10000c68 <mult_sw>
100007d0:	01c0006f          	j	100007ec <main+0x1e4>
100007d4:	01049793          	slli	a5,s1,0x10
100007d8:	20001737          	lui	a4,0x20001
100007dc:	0087e7b3          	or	a5,a5,s0
100007e0:	00f72023          	sw	a5,0(a4) # 20001000 <__stack_pointer+0x10000000>
100007e4:	01072983          	lw	s3,16(a4)
100007e8:	468000ef          	jal	ra,10000c50 <add_sw>
100007ec:	00050913          	mv	s2,a0
100007f0:	b79ff0ef          	jal	ra,10000368 <put_crlf>
100007f4:	00c12683          	lw	a3,12(sp)
100007f8:	00812583          	lw	a1,8(sp)
100007fc:	00040713          	mv	a4,s0
10000800:	0144f633          	and	a2,s1,s4
10000804:	00000517          	auipc	a0,0x0
10000808:	98850513          	addi	a0,a0,-1656 # 1000018c <_eoc+0x144>
1000080c:	1f8000ef          	jal	ra,10000a04 <printf>
10000810:	b59ff0ef          	jal	ra,10000368 <put_crlf>
10000814:	05599e63          	bne	s3,s5,10000870 <__global_pointer+0x70>
10000818:	05591c63          	bne	s2,s5,10000870 <__global_pointer+0x70>
1000081c:	00000517          	auipc	a0,0x0
10000820:	99850513          	addi	a0,a0,-1640 # 100001b4 <_eoc+0x16c>
10000824:	b11ff0ef          	jal	ra,10000334 <put_str>
10000828:	b41ff0ef          	jal	ra,10000368 <put_crlf>
1000082c:	00000517          	auipc	a0,0x0
10000830:	9a050513          	addi	a0,a0,-1632 # 100001cc <_eoc+0x184>
10000834:	b01ff0ef          	jal	ra,10000334 <put_str>
10000838:	b31ff0ef          	jal	ra,10000368 <put_crlf>
1000083c:	00000517          	auipc	a0,0x0
10000840:	9b050513          	addi	a0,a0,-1616 # 100001ec <_eoc+0x1a4>
10000844:	0580006f          	j	1000089c <__global_pointer+0x9c>
10000848:	01049793          	slli	a5,s1,0x10
1000084c:	20001737          	lui	a4,0x20001
10000850:	0087e7b3          	or	a5,a5,s0
10000854:	00f72223          	sw	a5,4(a4) # 20001004 <__stack_pointer+0x10000004>
10000858:	01072983          	lw	s3,16(a4)
1000085c:	400000ef          	jal	ra,10000c5c <sub_sw>
10000860:	f8dff06f          	j	100007ec <main+0x1e4>
10000864:	00000913          	li	s2,0
10000868:	00000993          	li	s3,0
1000086c:	f85ff06f          	j	100007f0 <main+0x1e8>
10000870:	00098593          	mv	a1,s3
10000874:	00000517          	auipc	a0,0x0
10000878:	97050513          	addi	a0,a0,-1680 # 100001e4 <_eoc+0x19c>
1000087c:	b0dff0ef          	jal	ra,10000388 <print_q16_16>
10000880:	00000517          	auipc	a0,0x0
10000884:	96850513          	addi	a0,a0,-1688 # 100001e8 <_eoc+0x1a0>
10000888:	00090593          	mv	a1,s2
1000088c:	afdff0ef          	jal	ra,10000388 <print_q16_16>
10000890:	00000517          	auipc	a0,0x0
10000894:	96c50513          	addi	a0,a0,-1684 # 100001fc <_eoc+0x1b4>
10000898:	fb2982e3          	beq	s3,s2,1000083c <__global_pointer+0x3c>
1000089c:	a99ff0ef          	jal	ra,10000334 <put_str>
100008a0:	ac9ff0ef          	jal	ra,10000368 <put_crlf>
100008a4:	428000ef          	jal	ra,10000ccc <uart_write_flush>
100008a8:	dd5ff06f          	j	1000067c <main+0x74>

100008ac <print_reversed_with_padding>:
100008ac:	fe010113          	addi	sp,sp,-32
100008b0:	00812c23          	sw	s0,24(sp)
100008b4:	01212823          	sw	s2,16(sp)
100008b8:	00112e23          	sw	ra,28(sp)
100008bc:	00912a23          	sw	s1,20(sp)
100008c0:	00050913          	mv	s2,a0
100008c4:	00058413          	mv	s0,a1
100008c8:	02c46463          	bltu	s0,a2,100008f0 <print_reversed_with_padding+0x44>
100008cc:	fff00493          	li	s1,-1
100008d0:	fff40413          	addi	s0,s0,-1
100008d4:	04941063          	bne	s0,s1,10000914 <print_reversed_with_padding+0x68>
100008d8:	01c12083          	lw	ra,28(sp)
100008dc:	01812403          	lw	s0,24(sp)
100008e0:	01412483          	lw	s1,20(sp)
100008e4:	01012903          	lw	s2,16(sp)
100008e8:	02010113          	addi	sp,sp,32
100008ec:	00008067          	ret
100008f0:	00068513          	mv	a0,a3
100008f4:	00c12623          	sw	a2,12(sp)
100008f8:	00d12423          	sw	a3,8(sp)
100008fc:	408000ef          	jal	ra,10000d04 <putchar>
10000900:	00c12603          	lw	a2,12(sp)
10000904:	00812683          	lw	a3,8(sp)
10000908:	fff60613          	addi	a2,a2,-1
1000090c:	0ff67613          	andi	a2,a2,255
10000910:	fb9ff06f          	j	100008c8 <print_reversed_with_padding+0x1c>
10000914:	008907b3          	add	a5,s2,s0
10000918:	0007c503          	lbu	a0,0(a5) # ffff8000 <pulp__FC+0xffff8001>
1000091c:	3e8000ef          	jal	ra,10000d04 <putchar>
10000920:	fb1ff06f          	j	100008d0 <print_reversed_with_padding+0x24>

10000924 <format_dec32>:
10000924:	fe010113          	addi	sp,sp,-32
10000928:	01312623          	sw	s3,12(sp)
1000092c:	00112e23          	sw	ra,28(sp)
10000930:	00812c23          	sw	s0,24(sp)
10000934:	00912a23          	sw	s1,20(sp)
10000938:	01212823          	sw	s2,16(sp)
1000093c:	00050993          	mv	s3,a0
10000940:	06058263          	beqz	a1,100009a4 <format_dec32+0x80>
10000944:	00058493          	mv	s1,a1
10000948:	00000793          	li	a5,0
1000094c:	00a00593          	li	a1,10
10000950:	00048513          	mv	a0,s1
10000954:	00178413          	addi	s0,a5,1
10000958:	00f98933          	add	s2,s3,a5
1000095c:	98dff0ef          	jal	ra,100002e8 <__umodsi3>
10000960:	03050513          	addi	a0,a0,48
10000964:	00a90023          	sb	a0,0(s2)
10000968:	00a00593          	li	a1,10
1000096c:	00048513          	mv	a0,s1
10000970:	94dff0ef          	jal	ra,100002bc <__udivsi3>
10000974:	0ff47413          	andi	s0,s0,255
10000978:	00050493          	mv	s1,a0
1000097c:	00040793          	mv	a5,s0
10000980:	fc0516e3          	bnez	a0,1000094c <format_dec32+0x28>
10000984:	00040513          	mv	a0,s0
10000988:	01c12083          	lw	ra,28(sp)
1000098c:	01812403          	lw	s0,24(sp)
10000990:	01412483          	lw	s1,20(sp)
10000994:	01012903          	lw	s2,16(sp)
10000998:	00c12983          	lw	s3,12(sp)
1000099c:	02010113          	addi	sp,sp,32
100009a0:	00008067          	ret
100009a4:	03000793          	li	a5,48
100009a8:	00f50023          	sb	a5,0(a0)
100009ac:	00100413          	li	s0,1
100009b0:	fd5ff06f          	j	10000984 <format_dec32+0x60>

100009b4 <format_hex32>:
100009b4:	04058063          	beqz	a1,100009f4 <format_hex32+0x40>
100009b8:	00000713          	li	a4,0
100009bc:	00000617          	auipc	a2,0x0
100009c0:	87060613          	addi	a2,a2,-1936 # 1000022c <hex_symbols>
100009c4:	00f5f693          	andi	a3,a1,15
100009c8:	00d606b3          	add	a3,a2,a3
100009cc:	0006c683          	lbu	a3,0(a3)
100009d0:	00170793          	addi	a5,a4,1
100009d4:	00e50733          	add	a4,a0,a4
100009d8:	0ff7f793          	andi	a5,a5,255
100009dc:	00d70023          	sb	a3,0(a4)
100009e0:	0045d593          	srli	a1,a1,0x4
100009e4:	00078713          	mv	a4,a5
100009e8:	fc059ee3          	bnez	a1,100009c4 <format_hex32+0x10>
100009ec:	00078513          	mv	a0,a5
100009f0:	00008067          	ret
100009f4:	03000793          	li	a5,48
100009f8:	00f50023          	sb	a5,0(a0)
100009fc:	00100793          	li	a5,1
10000a00:	fedff06f          	j	100009ec <format_hex32+0x38>

10000a04 <printf>:
10000a04:	f8010113          	addi	sp,sp,-128
10000a08:	06f12a23          	sw	a5,116(sp)
10000a0c:	06410793          	addi	a5,sp,100
10000a10:	04812c23          	sw	s0,88(sp)
10000a14:	05412423          	sw	s4,72(sp)
10000a18:	05512223          	sw	s5,68(sp)
10000a1c:	05612023          	sw	s6,64(sp)
10000a20:	03712e23          	sw	s7,60(sp)
10000a24:	03812c23          	sw	s8,56(sp)
10000a28:	04112e23          	sw	ra,92(sp)
10000a2c:	04912a23          	sw	s1,84(sp)
10000a30:	05212823          	sw	s2,80(sp)
10000a34:	05312623          	sw	s3,76(sp)
10000a38:	00050413          	mv	s0,a0
10000a3c:	06b12223          	sw	a1,100(sp)
10000a40:	06c12423          	sw	a2,104(sp)
10000a44:	06d12623          	sw	a3,108(sp)
10000a48:	06e12823          	sw	a4,112(sp)
10000a4c:	07012c23          	sw	a6,120(sp)
10000a50:	07112e23          	sw	a7,124(sp)
10000a54:	02f12023          	sw	a5,32(sp)
10000a58:	02500a13          	li	s4,37
10000a5c:	03000a93          	li	s5,48
10000a60:	00900b93          	li	s7,9
10000a64:	07300b13          	li	s6,115
10000a68:	fff00c13          	li	s8,-1
10000a6c:	00044503          	lbu	a0,0(s0)
10000a70:	02051a63          	bnez	a0,10000aa4 <printf+0xa0>
10000a74:	05c12083          	lw	ra,92(sp)
10000a78:	05812403          	lw	s0,88(sp)
10000a7c:	05412483          	lw	s1,84(sp)
10000a80:	05012903          	lw	s2,80(sp)
10000a84:	04c12983          	lw	s3,76(sp)
10000a88:	04812a03          	lw	s4,72(sp)
10000a8c:	04412a83          	lw	s5,68(sp)
10000a90:	04012b03          	lw	s6,64(sp)
10000a94:	03c12b83          	lw	s7,60(sp)
10000a98:	03812c03          	lw	s8,56(sp)
10000a9c:	08010113          	addi	sp,sp,128
10000aa0:	00008067          	ret
10000aa4:	17451063          	bne	a0,s4,10000c04 <printf+0x200>
10000aa8:	00144783          	lbu	a5,1(s0)
10000aac:	01479a63          	bne	a5,s4,10000ac0 <printf+0xbc>
10000ab0:	02500513          	li	a0,37
10000ab4:	250000ef          	jal	ra,10000d04 <putchar>
10000ab8:	00240413          	addi	s0,s0,2
10000abc:	fb1ff06f          	j	10000a6c <printf+0x68>
10000ac0:	07578a63          	beq	a5,s5,10000b34 <printf+0x130>
10000ac4:	00140413          	addi	s0,s0,1
10000ac8:	02000993          	li	s3,32
10000acc:	00000913          	li	s2,0
10000ad0:	00044483          	lbu	s1,0(s0)
10000ad4:	fd048793          	addi	a5,s1,-48
10000ad8:	0ff7f793          	andi	a5,a5,255
10000adc:	06fbf263          	bleu	a5,s7,10000b40 <printf+0x13c>
10000ae0:	13648663          	beq	s1,s6,10000c0c <printf+0x208>
10000ae4:	069b6e63          	bltu	s6,s1,10000b60 <printf+0x15c>
10000ae8:	06300793          	li	a5,99
10000aec:	10f48463          	beq	s1,a5,10000bf4 <printf+0x1f0>
10000af0:	06400793          	li	a5,100
10000af4:	0cf48a63          	beq	s1,a5,10000bc8 <printf+0x1c4>
10000af8:	02500513          	li	a0,37
10000afc:	208000ef          	jal	ra,10000d04 <putchar>
10000b00:	01599663          	bne	s3,s5,10000b0c <printf+0x108>
10000b04:	03000513          	li	a0,48
10000b08:	1fc000ef          	jal	ra,10000d04 <putchar>
10000b0c:	00090e63          	beqz	s2,10000b28 <printf+0x124>
10000b10:	00090593          	mv	a1,s2
10000b14:	01c10513          	addi	a0,sp,28
10000b18:	e0dff0ef          	jal	ra,10000924 <format_dec32>
10000b1c:	00050493          	mv	s1,a0
10000b20:	fff48493          	addi	s1,s1,-1
10000b24:	11849c63          	bne	s1,s8,10000c3c <printf+0x238>
10000b28:	00044503          	lbu	a0,0(s0)
10000b2c:	06050863          	beqz	a0,10000b9c <printf+0x198>
10000b30:	0d40006f          	j	10000c04 <printf+0x200>
10000b34:	00240413          	addi	s0,s0,2
10000b38:	03000993          	li	s3,48
10000b3c:	f91ff06f          	j	10000acc <printf+0xc8>
10000b40:	00090513          	mv	a0,s2
10000b44:	00a00593          	li	a1,10
10000b48:	efcff0ef          	jal	ra,10000244 <__mulsi3>
10000b4c:	00a48533          	add	a0,s1,a0
10000b50:	fd050613          	addi	a2,a0,-48
10000b54:	0ff67913          	andi	s2,a2,255
10000b58:	00140413          	addi	s0,s0,1
10000b5c:	f75ff06f          	j	10000ad0 <printf+0xcc>
10000b60:	07500793          	li	a5,117
10000b64:	04f48463          	beq	s1,a5,10000bac <printf+0x1a8>
10000b68:	07800793          	li	a5,120
10000b6c:	f8f496e3          	bne	s1,a5,10000af8 <printf+0xf4>
10000b70:	02012783          	lw	a5,32(sp)
10000b74:	02410513          	addi	a0,sp,36
10000b78:	0007a583          	lw	a1,0(a5)
10000b7c:	00478713          	addi	a4,a5,4
10000b80:	02e12023          	sw	a4,32(sp)
10000b84:	e31ff0ef          	jal	ra,100009b4 <format_hex32>
10000b88:	00050593          	mv	a1,a0
10000b8c:	00098693          	mv	a3,s3
10000b90:	00090613          	mv	a2,s2
10000b94:	02410513          	addi	a0,sp,36
10000b98:	d15ff0ef          	jal	ra,100008ac <print_reversed_with_padding>
10000b9c:	00044783          	lbu	a5,0(s0)
10000ba0:	ec0786e3          	beqz	a5,10000a6c <printf+0x68>
10000ba4:	00140413          	addi	s0,s0,1
10000ba8:	ec5ff06f          	j	10000a6c <printf+0x68>
10000bac:	02012783          	lw	a5,32(sp)
10000bb0:	00478713          	addi	a4,a5,4
10000bb4:	0007a583          	lw	a1,0(a5)
10000bb8:	02e12023          	sw	a4,32(sp)
10000bbc:	02410513          	addi	a0,sp,36
10000bc0:	d65ff0ef          	jal	ra,10000924 <format_dec32>
10000bc4:	fc5ff06f          	j	10000b88 <printf+0x184>
10000bc8:	02012783          	lw	a5,32(sp)
10000bcc:	00478713          	addi	a4,a5,4
10000bd0:	0007a583          	lw	a1,0(a5)
10000bd4:	02e12023          	sw	a4,32(sp)
10000bd8:	fe05d2e3          	bgez	a1,10000bbc <printf+0x1b8>
10000bdc:	02d00513          	li	a0,45
10000be0:	00b12623          	sw	a1,12(sp)
10000be4:	120000ef          	jal	ra,10000d04 <putchar>
10000be8:	00c12583          	lw	a1,12(sp)
10000bec:	40b005b3          	neg	a1,a1
10000bf0:	fcdff06f          	j	10000bbc <printf+0x1b8>
10000bf4:	02012783          	lw	a5,32(sp)
10000bf8:	00478713          	addi	a4,a5,4
10000bfc:	0007c503          	lbu	a0,0(a5)
10000c00:	02e12023          	sw	a4,32(sp)
10000c04:	100000ef          	jal	ra,10000d04 <putchar>
10000c08:	f95ff06f          	j	10000b9c <printf+0x198>
10000c0c:	02012783          	lw	a5,32(sp)
10000c10:	00478713          	addi	a4,a5,4
10000c14:	0007a483          	lw	s1,0(a5)
10000c18:	02e12023          	sw	a4,32(sp)
10000c1c:	00049663          	bnez	s1,10000c28 <printf+0x224>
10000c20:	fffff497          	auipc	s1,0xfffff
10000c24:	61c48493          	addi	s1,s1,1564 # 1000023c <hex_symbols+0x10>
10000c28:	0004c503          	lbu	a0,0(s1)
10000c2c:	f60508e3          	beqz	a0,10000b9c <printf+0x198>
10000c30:	00148493          	addi	s1,s1,1
10000c34:	0d0000ef          	jal	ra,10000d04 <putchar>
10000c38:	ff1ff06f          	j	10000c28 <printf+0x224>
10000c3c:	01c10713          	addi	a4,sp,28
10000c40:	009707b3          	add	a5,a4,s1
10000c44:	0007c503          	lbu	a0,0(a5)
10000c48:	0bc000ef          	jal	ra,10000d04 <putchar>
10000c4c:	ed5ff06f          	j	10000b20 <printf+0x11c>

10000c50 <add_sw>:
10000c50:	00b50533          	add	a0,a0,a1
10000c54:	00851513          	slli	a0,a0,0x8
10000c58:	00008067          	ret

10000c5c <sub_sw>:
10000c5c:	40b50533          	sub	a0,a0,a1
10000c60:	00851513          	slli	a0,a0,0x8
10000c64:	00008067          	ret

10000c68 <mult_sw>:
10000c68:	ff010113          	addi	sp,sp,-16
10000c6c:	00112623          	sw	ra,12(sp)
10000c70:	dd4ff0ef          	jal	ra,10000244 <__mulsi3>
10000c74:	00c12083          	lw	ra,12(sp)
10000c78:	01010113          	addi	sp,sp,16
10000c7c:	00008067          	ret

10000c80 <uart_init>:
10000c80:	030027b7          	lui	a5,0x3002
10000c84:	00078223          	sb	zero,4(a5) # 3002004 <status+0x1ffc>
10000c88:	f8000713          	li	a4,-128
10000c8c:	00e78623          	sb	a4,12(a5)
10000c90:	03400713          	li	a4,52
10000c94:	00e78023          	sb	a4,0(a5)
10000c98:	00078223          	sb	zero,4(a5)
10000c9c:	00300713          	li	a4,3
10000ca0:	00e78623          	sb	a4,12(a5)
10000ca4:	fc700713          	li	a4,-57
10000ca8:	00e78423          	sb	a4,8(a5)
10000cac:	00078823          	sb	zero,16(a5)
10000cb0:	00008067          	ret

10000cb4 <uart_write>:
10000cb4:	03002737          	lui	a4,0x3002
10000cb8:	01474783          	lbu	a5,20(a4) # 3002014 <status+0x200c>
10000cbc:	0207f793          	andi	a5,a5,32
10000cc0:	fe078ce3          	beqz	a5,10000cb8 <uart_write+0x4>
10000cc4:	00a70023          	sb	a0,0(a4)
10000cc8:	00008067          	ret

10000ccc <uart_write_flush>:
10000ccc:	03002737          	lui	a4,0x3002
10000cd0:	01474783          	lbu	a5,20(a4) # 3002014 <status+0x200c>
10000cd4:	0207f793          	andi	a5,a5,32
10000cd8:	fe078ce3          	beqz	a5,10000cd0 <uart_write_flush+0x4>
10000cdc:	01474783          	lbu	a5,20(a4)
10000ce0:	0407f793          	andi	a5,a5,64
10000ce4:	fe0786e3          	beqz	a5,10000cd0 <uart_write_flush+0x4>
10000ce8:	00008067          	ret

10000cec <uart_read>:
10000cec:	03002737          	lui	a4,0x3002
10000cf0:	01474783          	lbu	a5,20(a4) # 3002014 <status+0x200c>
10000cf4:	0017f793          	andi	a5,a5,1
10000cf8:	fe078ce3          	beqz	a5,10000cf0 <uart_read+0x4>
10000cfc:	00074503          	lbu	a0,0(a4)
10000d00:	00008067          	ret

10000d04 <putchar>:
10000d04:	fb1ff06f          	j	10000cb4 <uart_write>

Disassembly of section .Pulp_Chip.Info:

00000000 <.Pulp_Chip.Info>:
   0:	000a                	0xa
   2:	0000                	unimp
   4:	0038                	addi	a4,sp,8
   6:	0000                	unimp
   8:	0001                	nop
   a:	0000                	unimp
   c:	7550                	flw	fa2,44(a0)
   e:	706c                	flw	fa1,100(s0)
  10:	495f 666e 006f      	0x6f666e495f
  16:	70696863          	bltu	s2,t1,726 <status-0x2fff8e2>
  1a:	6e3d                	lui	t3,0xf
  1c:	20656e6f          	jal	t3,56222 <status-0x2fa9de6>
  20:	3d757063          	bleu	s7,a0,3e0 <status-0x2fffc28>
  24:	6f6e                	flw	ft10,216(sp)
  26:	656e                	flw	fa0,216(sp)
  28:	7020                	flw	fs0,96(s0)
  2a:	3d65                	jal	fffffee2 <pulp__FC+0xfffffee3>
  2c:	312d                	jal	fffffc56 <pulp__FC+0xfffffc57>
  2e:	6620                	flw	fs0,72(a2)
  30:	312d3d63          	p.bneimm	s10,-14,34a <status-0x2fffcbe>
  34:	6c20                	flw	fs0,88(s0)
  36:	3d32                	fld	fs10,296(sp)
  38:	312d                	jal	fffffc62 <pulp__FC+0xfffffc63>
  3a:	6c20                	flw	fs0,88(s0)
  3c:	6331                	lui	t1,0xc
  3e:	3d6c                	fld	fa1,248(a0)
  40:	312d                	jal	fffffc6a <pulp__FC+0xfffffc6b>
  42:	6c20                	flw	fs0,88(s0)
  44:	6631                	lui	a2,0xc
  46:	312d3d63          	p.bneimm	s10,-14,360 <status-0x2fffca8>
  4a:	0000                	unimp
	...
