
bin/fir-serial-plotter.elf:     file format elf32-littleriscv

Contents of section .text._start:
 10000000 97110000 93810180 17110000 130181ff  ................
 10000010 93000000 13020000 93020000 13030000  ................
 10000020 93030000 13040000 93040000 13050000  ................
 10000030 93050000 13060000 93060000 13070000  ................
 10000040 93070000 ef000063 970200f3 938202fc  .......c........
 10000050 23a0a200 73005010                    #...s.P.        
Contents of section .misc:
 10000058 cef90d04 7d081002 40f6a6fa 87176635  ....}...@.....f5
 10000068 66358717 a6fa40f6 10027d08 0d04cef9  f5....@...}.....
 10000078 46495220 48572f50 5320636f 6d706172  FIR HW/PS compar
 10000088 65000000 6b20636f 6566662c 20672069  e...k coeff, g i
 10000098 6e707574 2c207220 72756e2c 20702070  nput, r run, p p
 100000a8 72696e74 00000000 4d656e75 3a206b20  rint....Menu: k 
 100000b8 70206720 72206320 71000000 50696c69  p g r c q...Pili
 100000c8 68206d65 6e753a20 00000000 4d617375  h menu: ....Masu
 100000d8 6b6b616e 20313620 6b6f6566 69736965  kkan 16 koefisie
 100000e8 6e204649 52202869 6e746567 65722051  n FIR (integer Q
 100000f8 3135293a 00000000 685b2530 32645d20  15):....h[%02d] 
 10000108 3d200000 496e7075 74207469 64616b20  = ..Input tidak 
 10000118 76616c69 642c2075 6c616e67 692e0000  valid, ulangi...
 10000128 4b6f6566 69736965 6e207465 7273696d  Koefisien tersim
 10000138 70616e2e 00000000 4b6f6566 69736965  pan.....Koefisie
 10000148 6e204649 52207361 61742069 6e693a00  n FIR saat ini:.
 10000158 685b2530 32645d20 3d202564 0d0a0000  h[%02d] = %d....
 10000168 496e7075 74207369 61702e00 6e202078  Input siap..n  x
 10000178 5b6e5d20 20795f68 77202079 5f707300  [n]  y_hw  y_ps.
 10000188 25303364 20256420 25642025 640d0a00  %03d %d %d %d...
 10000198 53554d3a 20746f74 616c3d25 64206d61  SUM: total=%d ma
 100001a8 7463683d 2564206d 69736d61 7463683d  tch=%d mismatch=
 100001b8 25640d0a 00000000 53544154 55533a20  %d......STATUS: 
 100001c8 4d415443 48000000 53544154 55533a20  MATCH...STATUS: 
 100001d8 4d49534d 41544348 00000000 48617369  MISMATCH....Hasi
 100001e8 6c206861 72647761 72652063 6f636f6b  l hardware cocok
 100001f8 2064656e 67616e20 50532e00 41646120   dengan PS..Ada 
 10000208 73656c69 73696820 68617264 77617265  selisih hardware
 10000218 20767320 50532e00 53746174 6520636c   vs PS..State cl
 10000228 65617265 642e0000 4b656c75 61722e00  eared...Keluar..
 10000238 4d656e75 20746964 616b2064 696b656e  Menu tidak diken
 10000248 616c2e00 78563412 30313233 34353637  al..xV4.01234567
 10000258 38394142 43444546 286e756c 6c290000  89ABCDEF(null)..
 10000268 00000000 00000000 00000000 00000000  ................
 10000278 00000000 00000000 00000000 00000000  ................
 10000288 00000000 00000000 00000000 00000000  ................
 10000298 00000000 00000000 00000000 00000000  ................
 100002a8 00000000 00000000 00000000 00000000  ................
 100002b8 00000000 00000000 00000000 00000000  ................
 100002c8 00000000 00000000 00000000 00000000  ................
 100002d8 00000000 00000000 00000000 00000000  ................
 100002e8 00000000 00000000 00000000 00000000  ................
 100002f8 00000000 00000000 00000000 00000000  ................
 10000308 00000000 00000000 00000000 00000000  ................
 10000318 00000000 00000000 00000000 00000000  ................
 10000328 00000000 00000000 00000000 00000000  ................
 10000338 00000000 00000000 00000000 00000000  ................
 10000348 00000000 00000000 00000000 00000000  ................
 10000358 00000000 00000000 00000000 00000000  ................
 10000368 00000000 00000000 00000000 00000000  ................
 10000378 00000000 00000000 00000000 00000000  ................
 10000388 00000000 00000000 00000000 00000000  ................
 10000398 00000000 00000000 00000000 00000000  ................
 100003a8 00000000 00000000 00000000 00000000  ................
 100003b8 00000000 00000000 00000000 00000000  ................
 100003c8 00000000 00000000 00000000 00000000  ................
 100003d8 00000000 00000000 00000000 00000000  ................
Contents of section .text:
 100003e8 2a860145 93f61500 91c23295 85810606  *..E......2.....
 100003f8 f5f98280 00000000 634e0502 63c30504  ........cN..c...
 10000408 2e86aa85 7d5515c2 85466378 b6006356  ....}U...Fcx..cV
 10000418 c0000606 8606e36c b6fe0145 63e4c500  .......l...Ec...
 10000428 918d558d 85820582 f5fa8280 8682c93f  ..U............?
 10000438 2e858282 3305a040 63d70500 b305b040  ....3..@c......@
 10000448 c1b7b305 b0408682 653f3305 a0408282  .....@..e?3..@..
 10000458 868263c7 05006349 05005d37 2e858282  ..c...cI..]7....
 10000468 b305b040 e35b05fe 3305a040 513f3305  ...@.[..3..@Q?3.
 10000478 b0408282 00000000 17070000 130787f4  .@..............
 10000488 93070000 93060001 23100700 93871700  ........#.......
 10000498 13072700 e39ad7fe 67800000 130101fe  ..'.....g.......
 100004a8 97070000 938747da 232c8100 23263101  ......G.#,..#&1.
 100004b8 23244101 b7f96e3c 376a1900 03a40700  #$A...n<7j......
 100004c8 232a9100 23282101 23225101 232e1100  #*..#(!.#"Q.#...
 100004d8 17090000 130909db 93040000 130ada60  ...............`
 100004e8 9389f935 930a000a 93050a00 13050400  ...5............
 100004f8 eff01fef 33043501 9305107d 13550401  ....3.5....}.U..
 10000508 eff0dff2 130585c1 2310a900 93841400  ........#.......
 10000518 13092900 e39a54fd 97070000 23a687d2  ..)...T.....#...
 10000528 8320c101 03248101 83244101 03290101  . ...$...$A..)..
 10000538 8329c100 032a8100 832a4100 13010102  .)...*...*A.....
 10000548 67800000 130101ff 23248100 23261100  g.......#$..#&..
 10000558 13040500 03450400 631a0500 8320c100  .....E..c.... ..
 10000568 03248100 13010101 67800000 13041400  .$......g.......
 10000578 ef001020 6ff01ffe 130101ff 1305d000  ... o...........
 10000588 23261100 ef00d01e 8320c100 1305a000  #&....... ......
 10000598 13010101 6f00d01d 130101fd 23248102  ....o.......#$..
 100005a8 23229102 232e3101 232c4101 232a5101  #"..#.1.#,A.#*Q.
 100005b8 23286101 23267101 23261102 23202103  #(a.#&q.#&..# !.
 100005c8 93040500 13040000 9309d000 130aa000  ................
 100005d8 930a8000 130bf007 930be001 ef00d01c  ................
 100005e8 63083505 63064505 63045501 63146503  c.5.c.E.c.U.c.e.
 100005f8 63040402 13058000 ef009017 13050002  c...............
 10000608 ef001017 13058000 1304f4ff ef005016  ..............P.
 10000618 6ff0dffc e3c48bfc 13091400 33848400  o...........3...
 10000628 2300a400 ef00d014 13040900 6ff01ffb  #...........o...
 10000638 b3848400 eff05ff4 23800400 13050400  ......_.#.......
 10000648 8320c102 03248102 83244102 03290102  . ...$...$A..)..
 10000658 8329c101 032a8101 832a4101 032b0101  .)...*...*A..+..
 10000668 832bc100 13010103 67800000 130101f7  .+......g.......
 10000678 23261108 23202109 23248108 23229108  #&..# !.#$..#"..
 10000688 232e3107 232c4107 232a5107 23286107  #.1.#,A.#*Q.#(a.
 10000698 23267107 23248107 23229107 2320a107  #&q.#$..#"..# ..
 100006a8 232eb105 ef009009 17050000 130545ab  #.............E.
 100006b8 eff05fe9 ef00500d 17070000 130787ba  .._...P.........
 100006c8 93070000 17050000 1305c598 93060002  ................
 100006d8 13090700 b305f500 83d50500 3306f700  ............3...
 100006e8 2310b600 93872700 e396d7fe eff01fdb  #.....'.........
 100006f8 eff09fd8 eff05fe8 17050000 13058597  ......_.........
 10000708 eff05fe4 eff05fe7 17050000 1305c597  .._..._.........
 10000718 b7840000 eff01fe3 97090000 938989ca  ................
 10000728 eff09fe5 138af4ff ef001006 170b0000  ................
 10000738 130bcb97 17040000 13048498 eff0dfe3  ................
 10000748 13050b00 eff01fe0 eff01fe3 13050400  ................
 10000758 eff05fdf ef005003 13050101 eff0dfe3  .._...P.........
 10000768 e35ea0fc 83470101 13072005 6380e71e  .^...G.... .c...
 10000778 6366f704 1307b004 6382e70c 6362f702  cf......c...cb..
 10000788 13073004 6382e73a 13077004 6392e702  ..0.c..:..p.c...
 10000798 eff0dfd0 17050000 1305c59c 6f00c00f  ............o...
 100007a8 13070005 6386e704 13071005 638ee738  ....c.......c..8
 100007b8 17050000 130505a8 6f00000e 1307b006  ........o.......
 100007c8 638ee706 636af700 13073006 638ee734  c...cj....0.c..4
 100007d8 13077006 6ff09ffb 13071007 6386e736  ..p.o.......c..6
 100007e8 13072007 6384e716 13070007 e392e7fc  .. .c...........
 100007f8 eff09fd8 17050000 13054594 eff09fd4  ..........E.....
 10000808 170b0000 130b0ba6 eff01fd7 13040000  ................
 10000818 170c0000 130c0c94 930b0001 03160b00  ................
 10000828 93050400 13050c00 13041400 ef00404c  ..............@L
 10000838 130b2b00 e31474ff 6ff05fef eff0dfd3  ..+...t.o._.....
 10000848 17050000 1305c588 eff0dfcf 930c0000  ................
 10000858 eff09fd2 170b0000 130b4b8a 970b0000  ..........K.....
 10000868 938b8b8a 130cd002 13050b00 93850c00  ................
 10000878 ef000048 13050103 eff01fd2 6344a002  ...H........cD..
 10000888 938cfcff 938c1c00 93070001 e39efcfc  ................
 10000898 17050000 13050589 eff0dfca eff0dfcd  ................
 100008a8 6ff0dfe8 03440103 63040402 630a8403  o....D..c...c...
 100008b8 130454fd 13341400 930d1000 13070103  ..T..4..........
 100008c8 33048700 83470400 13050000 63900704  3....G......c...
 100008d8 13850b00 eff01fc7 eff01fca 6ff05ffa  ............o._.
 100008e8 13041000 930df0ff 6ff05ffd 130d0dfd  ........o._.....
 100008f8 9377fd0f 13079000 13041400 e36af7fc  .w...........j..
 10000908 9305a000 eff0dfad 3305ad00 034d0400  ........3....M..
 10000918 e31e0dfc 93850d00 eff09fac 13070a00  ................
 10000928 634a9500 93971c00 b307f900 2390e700  cJ..........#...
 10000938 6ff05ff5 b787ffff 3787ffff e344f5fe  o._.....7....D..
 10000948 13170501 13570741 6ff0dffd eff0dfb2  .....W.Ao.......
 10000958 b7270020 13072000 23a0e700 0f00f00f  .'. .. .#.......
 10000968 97060000 93860690 93070000 37270020  ............7'. 
 10000978 13060001 83950600 2324f700 2326b700  ........#$..#&..
 10000988 93871700 93862600 e396c7fe 0f00f00f  ......&.........
 10000998 9307000a 970b0000 938bcb8e 2320f702  ............# ..
 100009a8 93860b00 93070000 37270020 1306000a  ........7'. ....
 100009b8 83950600 2328f700 232ab700 93871700  ....#(..#*......
 100009c8 93862600 e396c7fe 0f00f00f 93071000  ..&.............
 100009d8 2320f700 37270020 83274700 93f72700  # ..7'. .'G...'.
 100009e8 e38c07fe eff05fb9 17f5ffff 13054578  ......_.......Ex
 100009f8 eff05fb5 130b0000 eff01fb8 930a0000  .._.............
 10000a08 930c0002 378dffff 372c0020 03960b00  ....7...7,. ....
 10000a18 97070000 9387e79c 03d7e7ff 9387e7ff  ................
 10000a28 2391e700 e39af9fe 97070000 239cc798  #...........#...
 10000a38 93070000 13040000 930d0000 3307f900  ............3...
 10000a48 b386f900 83950600 03150700 2326c100  ............#&..
 10000a58 2324f100 eff0df98 83278100 9356f541  #$.......'...V.A
 10000a68 3305a400 33378500 b38ddd00 93872700  3...37........'.
 10000a78 13040500 b30db701 0326c100 e39097fd  .........&......
 10000a88 939d1d01 9357f500 b3e7fd00 13070a00  .....W..........
 10000a98 63da9700 3787ffff 63c6a701 13970701  c...7...c.......
 10000aa8 13570741 232c5c01 0f00f00f 8326cc01  .W.A#,\......&..
 10000ab8 6384e600 130b1b00 93850a00 17f5ffff  c...............
 10000ac8 1305456c ef00c022 938a1a00 9307000a  ..El..."........
 10000ad8 938b2b00 e39cfaf2 eff01faa 17f5ffff  ..+.............
 10000ae8 1305456b 93060b00 33866a41 9305000a  ..Ek....3.jA....
 10000af8 ef000020 17f5ffff 1305456c 63060b00  ... ......Elc...
 10000b08 17f5ffff 1305856c eff0dfa3 eff0dfa6  .......l........
 10000b18 17f5ffff 1305c56c e3000bd8 17f5ffff  .......l........
 10000b28 1305056e 6ff05fd7 b7270020 13072000  ...no._..'. .. .
 10000b38 23a0e700 0f00f00f eff01f94 17f5ffff  #...............
 10000b48 1305c56d 6ff05fd5 17f5ffff 1305056e  ...mo._........n
 10000b58 eff05f9f eff05fa2 8320c108 03248108  .._..._.. ...$..
 10000b68 83244108 03290108 8329c107 032a8107  .$A..)...)...*..
 10000b78 832a4107 032b0107 832bc106 032c8106  .*A..+...+...,..
 10000b88 832c4106 032d0106 832dc105 13050000  .,A..-...-......
 10000b98 13010109 67800000 130101fe 232c8100  ....g.......#,..
 10000ba8 23282101 232e1100 232a9100 13090500  #(!.#...#*......
 10000bb8 13840500 6364c402 9304f0ff 1304f4ff  ....cd..........
 10000bc8 63109404 8320c101 03248101 83244101  c.... ...$...$A.
 10000bd8 03290101 13010102 67800000 13850600  .)......g.......
 10000be8 2326c100 2324d100 ef00803d 0326c100  #&..#$.....=.&..
 10000bf8 83268100 1306f6ff 1376f60f 6ff09ffb  .&.......v..o...
 10000c08 b3078900 03c50700 ef00803b 6ff01ffb  ...........;o...
 10000c18 130101fe 23263101 232e1100 232c8100  ....#&1.#...#,..
 10000c28 232a9100 23282101 93090500 63820506  #*..#(!.....c...
 10000c38 93840500 93070000 9305a000 13850400  ................
 10000c48 13841700 3389f900 eff04ffe 13050503  ....3.....O.....
 10000c58 2300a900 9305a000 13850400 eff04ffa  #.............O.
 10000c68 1374f40f 93040500 93070400 e31605fc  .t..............
 10000c78 13050400 8320c101 03248101 83244101  ..... ...$...$A.
 10000c88 03290101 8329c100 13010102 67800000  .)...)......g...
 10000c98 93070003 2300f500 13041000 6ff05ffd  ....#.......o._.
 10000ca8 63800504 13070000 17f6ffff 1306065a  c..............Z
 10000cb8 93f6f500 b306d600 83c60600 93071700  ................
 10000cc8 3307e500 93f7f70f 2300d700 93d54500  3.......#.....E.
 10000cd8 13870700 e39e05fc 13850700 67800000  ............g...
 10000ce8 93070003 2300f500 93071000 6ff0dffe  ....#.......o...
 10000cf8 130101f8 232af106 93074106 232c8104  ....#*....A.#,..
 10000d08 23244105 23225105 23206105 232e7103  #$A.#"Q.# a.#.q.
 10000d18 232c8103 232e1104 232a9104 23282105  #,..#...#*..#(!.
 10000d28 23263105 13040500 2322b106 2324c106  #&1.....#"..#$..
 10000d38 2326d106 2328e106 232c0107 232e1107  #&..#(..#,..#...
 10000d48 2320f102 130a5002 930a0003 930b9000  # ....P.........
 10000d58 130b3007 130cf0ff 03450400 631a0502  ..0......E..c...
 10000d68 8320c105 03248105 83244105 03290105  . ...$...$A..)..
 10000d78 8329c104 032a8104 832a4104 032b0104  .)...*...*A..+..
 10000d88 832bc103 032c8103 13010108 67800000  .+...,......g...
 10000d98 63104517 83471400 639a4701 13055002  c.E..G..c.G...P.
 10000da8 ef000022 13042400 6ff01ffb 638a5707  ..."..$.o...c.W.
 10000db8 13041400 93090002 13090000 83440400  .............D..
 10000dc8 938704fd 93f7f70f 63f2fb06 63866413  ........c...c.d.
 10000dd8 636e9b06 93073006 6384f410 93074006  cn....0.c.....@.
 10000de8 638af40c 13055002 ef00801d 63965901  c.....P.....c.Y.
 10000df8 13050003 ef00c01c 630e0900 93050900  ........c.......
 10000e08 1305c101 eff0dfe0 93040500 9384f4ff  ................
 10000e18 639c8411 03450400 63080506 6f00400d  c....E..c...o.@.
 10000e28 13042400 93090003 6ff01ff9 13050900  ..$.....o.......
 10000e38 9305a000 eff0cfda 3385a400 130605fd  ........3.......
 10000e48 1379f60f 13041400 6ff05ff7 93075007  .y......o._...P.
 10000e58 6384f404 93078007 e396f4f8 83270102  c............'..
 10000e68 13054102 83a50700 13874700 2320e102  ..A.......G.# ..
 10000e78 eff01fe3 93050500 93860900 13060900  ................
 10000e88 13054102 eff05fd1 83470400 e38607ec  ..A..._..G......
 10000e98 13041400 6ff05fec 83270102 13874700  ....o._..'....G.
 10000ea8 83a50700 2320e102 13054102 eff05fd6  ....# ....A..._.
 10000eb8 6ff05ffc 83270102 13874700 83a50700  o._..'....G.....
 10000ec8 2320e102 e3d205fe 1305d002 2326b100  # ..........#&..
 10000ed8 ef00000f 8325c100 b305b040 6ff0dffc  .....%.....@o...
 10000ee8 83270102 13874700 03c50700 2320e102  .'....G.....# ..
 10000ef8 ef00000d 6ff05ff9 83270102 13874700  ....o._..'....G.
 10000f08 83a40700 2320e102 63960400 97f4ffff  ....# ..c.......
 10000f18 9384c434 03c50400 e30805f6 93841400  ...4............
 10000f28 ef00000a 6ff01fff 1307c101 b3079700  ....o...........
 10000f38 03c50700 ef00c008 6ff05fed b7270003  ........o._..'..
 10000f48 23820700 130700f8 2386e700 13074003  #.......#.....@.
 10000f58 2380e700 23820700 13073000 2386e700  #...#.....0.#...
 10000f68 130770fc 2384e700 23880700 67800000  ..p.#...#...g...
 10000f78 37270003 83474701 93f70702 e38c07fe  7'...GG.........
 10000f88 2300a700 67800000 37270003 83474701  #...g...7'...GG.
 10000f98 93f70702 e38c07fe 83474701 93f70704  .........GG.....
 10000fa8 e38607fe 67800000 37270003 83474701  ....g...7'...GG.
 10000fb8 93f71700 e38c07fe 03450700 67800000  .........E..g...
 10000fc8 6ff01ffb                             o...            
Contents of section .Pulp_Chip.Info:
 0000 0a000000 38000000 01000000 50756c70  ....8.......Pulp
 0010 5f496e66 6f006368 69703d6e 6f6e6520  _Info.chip=none 
 0020 6370753d 6e6f6e65 2070653d 2d312066  cpu=none pe=-1 f
 0030 633d2d31 206c323d 2d31206c 31636c3d  c=-1 l2=-1 l1cl=
 0040 2d31206c 3166633d 2d310000 0000      -1 l1fc=-1....  
Contents of section .debug_line:
 0000 ac000000 02006600 00000101 fb0e0d00  ......f.........
 0010 01010101 00000001 0000012f 686f6d65  .........../home
 0020 2f646576 616e2f53 6f432f70 756c702d  /devan/SoC/pulp-
 0030 72697363 762d676e 752d746f 6f6c6368  riscv-gnu-toolch
 0040 61696e2f 72697363 762d6763 632f6c69  ain/riscv-gcc/li
 0050 62676363 2f636f6e 6669672f 72697363  bgcc/config/risc
 0060 7600006d 756c6469 332e5300 01000000  v..muldi3.S.....
 0070 000502e8 03001003 23010301 09020001  ........#.......
 0080 03020902 00010301 09040001 03010902  ................
 0090 00010302 09020001 03010902 00010301  ................
 00a0 09020001 03010902 00010902 00000101  ................
 00b0 82010000 02006300 00000101 fb0e0d00  ......c.........
 00c0 01010101 00000001 0000012f 686f6d65  .........../home
 00d0 2f646576 616e2f53 6f432f70 756c702d  /devan/SoC/pulp-
 00e0 72697363 762d676e 752d746f 6f6c6368  riscv-gnu-toolch
 00f0 61696e2f 72697363 762d6763 632f6c69  ain/riscv-gcc/li
 0100 62676363 2f636f6e 6669672f 72697363  bgcc/config/risc
 0110 76000064 69762e53 00010000 00000502  v..div.S........
 0120 00040010 03c50001 03010904 00010305  ................
 0130 09040001 03010902 00010301 09020001  ................
 0140 03010902 00010301 09020001 03010902  ................
 0150 00010302 09040001 03010904 00010301  ................
 0160 09020001 03010902 00010302 09040001  ................
 0170 03020902 00010301 09040001 03010902  ................
 0180 00010302 09020001 03010902 00010301  ................
 0190 09020001 03020902 00010305 09020001  ................
 01a0 03010902 00010301 09020001 03010902  ................
 01b0 00010304 09020001 03010904 00010301  ................
 01c0 09040001 03010904 00010302 09020001  ................
 01d0 03020904 00010301 09020001 03010902  ................
 01e0 00010301 09040001 03040902 00010301  ................
 01f0 09020001 03010904 00010302 09040001  ................
 0200 03010902 00010301 09020001 03020902  ................
 0210 00010301 09040001 03020904 00010301  ................
 0220 09040001 03010902 00010301 09040001  ................
 0230 09020000 0101                        ......          
Contents of section .debug_info:
 0000 d0000000 02000000 00000401 00000000  ................
 0010 e8030010 fc030010 2f686f6d 652f6465  ......../home/de
 0020 76616e2f 536f432f 70756c70 2d726973  van/SoC/pulp-ris
 0030 63762d67 6e752d74 6f6f6c63 6861696e  cv-gnu-toolchain
 0040 2f726973 63762d67 63632f6c 69626763  /riscv-gcc/libgc
 0050 632f636f 6e666967 2f726973 63762f6d  c/config/riscv/m
 0060 756c6469 332e5300 2f686f6d 652f6465  uldi3.S./home/de
 0070 76616e2f 536f432f 70756c70 2d726973  van/SoC/pulp-ris
 0080 63762d67 6e752d74 6f6f6c63 6861696e  cv-gnu-toolchain
 0090 2f627569 6c642d67 63632d6e 65776c69  /build-gcc-newli
 00a0 622d7374 61676532 2f726973 63763332  b-stage2/riscv32
 00b0 2d756e6b 6e6f776e 2d656c66 2f6c6962  -unknown-elf/lib
 00c0 67636300 474e5520 41532032 2e32382e  gcc.GNU AS 2.28.
 00d0 30000180 cd000000 02001400 00000401  0...............
 00e0 b0000000 00040010 7c040010 2f686f6d  ........|.../hom
 00f0 652f6465 76616e2f 536f432f 70756c70  e/devan/SoC/pulp
 0100 2d726973 63762d67 6e752d74 6f6f6c63  -riscv-gnu-toolc
 0110 6861696e 2f726973 63762d67 63632f6c  hain/riscv-gcc/l
 0120 69626763 632f636f 6e666967 2f726973  ibgcc/config/ris
 0130 63762f64 69762e53 002f686f 6d652f64  cv/div.S./home/d
 0140 6576616e 2f536f43 2f70756c 702d7269  evan/SoC/pulp-ri
 0150 7363762d 676e752d 746f6f6c 63686169  scv-gnu-toolchai
 0160 6e2f6275 696c642d 6763632d 6e65776c  n/build-gcc-newl
 0170 69622d73 74616765 322f7269 73637633  ib-stage2/riscv3
 0180 322d756e 6b6e6f77 6e2d656c 662f6c69  2-unknown-elf/li
 0190 62676363 00474e55 20415320 322e3238  bgcc.GNU AS 2.28
 01a0 2e300001 80                          .0...           
Contents of section .debug_abbrev:
 0000 01110010 06110112 0103081b 08250813  .............%..
 0010 05000000 01110010 06110112 0103081b  ................
 0020 08250813 05000000                    .%......        
Contents of section .debug_aranges:
 0000 1c000000 02000000 00000400 00000000  ................
 0010 e8030010 14000000 00000000 00000000  ................
 0020 1c000000 0200d400 00000400 00000000  ................
 0030 00040010 7c000000 00000000 00000000  ....|...........

Disassembly of section .text._start:

10000000 <_start>:
10000000:	00001197          	auipc	gp,0x1
10000004:	80018193          	addi	gp,gp,-2048 # 10000800 <__global_pointer>
10000008:	00001117          	auipc	sp,0x1
1000000c:	ff810113          	addi	sp,sp,-8 # 10001000 <__stack_pointer>
10000010:	00000093          	li	ra,0
10000014:	00000213          	li	tp,0
10000018:	00000293          	li	t0,0
1000001c:	00000313          	li	t1,0
10000020:	00000393          	li	t2,0
10000024:	00000413          	li	s0,0
10000028:	00000493          	li	s1,0
1000002c:	00000513          	li	a0,0
10000030:	00000593          	li	a1,0
10000034:	00000613          	li	a2,0
10000038:	00000693          	li	a3,0
1000003c:	00000713          	li	a4,0
10000040:	00000793          	li	a5,0
10000044:	630000ef          	jal	ra,10000674 <main>

10000048 <_eoc>:
10000048:	f3000297          	auipc	t0,0xf3000
1000004c:	fc028293          	addi	t0,t0,-64 # 3000008 <status>
10000050:	00a2a023          	sw	a0,0(t0)
10000054:	10500073          	wfi

Disassembly of section .misc:

10000058 <fir_coeff_default>:
10000058:	f9ce                	fsw	fs3,240(sp)
1000005a:	040d                	addi	s0,s0,3
1000005c:	087d                	addi	a6,a6,31
1000005e:	0210                	addi	a2,sp,256
10000060:	f640                	fsw	fs0,44(a2)
10000062:	faa6                	fsw	fs1,116(sp)
10000064:	35661787          	0x35661787
10000068:	3566                	fld	fa0,120(sp)
1000006a:	faa61787          	0xfaa61787
1000006e:	f640                	fsw	fs0,44(a2)
10000070:	0210                	addi	a2,sp,256
10000072:	087d                	addi	a6,a6,31
10000074:	040d                	addi	s0,s0,3
10000076:	f9ce                	fsw	fs3,240(sp)
10000078:	4946                	lw	s2,80(sp)
1000007a:	2052                	fld	ft0,272(sp)
1000007c:	5748                	lw	a0,44(a4)
1000007e:	2053502f          	0x2053502f
10000082:	706d6f63          	bltu	s10,t1,100007a0 <main+0x12c>
10000086:	7261                	lui	tp,0xffff8
10000088:	0065                	c.addi	zero,25
1000008a:	0000                	unimp
1000008c:	6f63206b          	0x6f63206b
10000090:	6665                	lui	a2,0x19
10000092:	2c66                	fld	fs8,88(sp)
10000094:	6720                	flw	fs0,72(a4)
10000096:	6920                	flw	fs0,80(a0)
10000098:	706e                	flw	ft0,248(sp)
1000009a:	7475                	lui	s0,0xffffd
1000009c:	202c                	fld	fa1,64(s0)
1000009e:	2072                	fld	ft0,280(sp)
100000a0:	7572                	flw	fa0,60(sp)
100000a2:	2c6e                	fld	fs8,216(sp)
100000a4:	7020                	flw	fs0,96(s0)
100000a6:	7020                	flw	fs0,96(s0)
100000a8:	6972                	flw	fs2,28(sp)
100000aa:	746e                	flw	fs0,248(sp)
100000ac:	0000                	unimp
100000ae:	0000                	unimp
100000b0:	654d                	lui	a0,0x13
100000b2:	756e                	flw	fa0,248(sp)
100000b4:	203a                	fld	ft0,392(sp)
100000b6:	2070206b          	0x2070206b
100000ba:	20722067          	0x20722067
100000be:	00712063          	p.beqimm	sp,7,100000be <fir_coeff_default+0x66>
100000c2:	0000                	unimp
100000c4:	6950                	flw	fa2,20(a0)
100000c6:	696c                	flw	fa1,84(a0)
100000c8:	2068                	fld	fa0,192(s0)
100000ca:	656d                	lui	a0,0x1b
100000cc:	756e                	flw	fa0,248(sp)
100000ce:	203a                	fld	ft0,392(sp)
100000d0:	0000                	unimp
100000d2:	0000                	unimp
100000d4:	614d                	addi	sp,sp,176
100000d6:	6b6b7573          	csrrci	a0,0x6b6,22
100000da:	6e61                	lui	t3,0x18
100000dc:	3120                	fld	fs0,96(a0)
100000de:	2036                	fld	ft0,328(sp)
100000e0:	66656f6b          	0x66656f6b
100000e4:	7369                	lui	t1,0xffffa
100000e6:	6569                	lui	a0,0x1a
100000e8:	206e                	fld	ft0,216(sp)
100000ea:	4946                	lw	s2,80(sp)
100000ec:	2052                	fld	ft0,272(sp)
100000ee:	6928                	flw	fa0,80(a0)
100000f0:	746e                	flw	fs0,248(sp)
100000f2:	6765                	lui	a4,0x19
100000f4:	7265                	lui	tp,0xffff9
100000f6:	5120                	lw	s0,96(a0)
100000f8:	3531                	jal	fffff04 <status+0xcfffefc>
100000fa:	3a29                	jal	ffffa14 <status+0xcfffa0c>
100000fc:	0000                	unimp
100000fe:	0000                	unimp
10000100:	5b68                	lw	a0,116(a4)
10000102:	3025                	jal	ffff92a <status+0xcfff922>
10000104:	6432                	flw	fs0,12(sp)
10000106:	205d                	jal	100001ac <fir_coeff_default+0x154>
10000108:	203d                	jal	10000136 <fir_coeff_default+0xde>
1000010a:	0000                	unimp
1000010c:	6e49                	lui	t3,0x12
1000010e:	7570                	flw	fa2,108(a0)
10000110:	2074                	fld	fa3,192(s0)
10000112:	6974                	flw	fa3,84(a0)
10000114:	6164                	flw	fs1,68(a0)
10000116:	6176206b          	0x6176206b
1000011a:	696c                	flw	fa1,84(a0)
1000011c:	2c64                	fld	fs1,216(s0)
1000011e:	7520                	flw	fs0,104(a0)
10000120:	616c                	flw	fa1,68(a0)
10000122:	676e                	flw	fa4,216(sp)
10000124:	2e69                	jal	100004be <generate_random_input+0x1a>
10000126:	0000                	unimp
10000128:	66656f4b          	0x66656f4b
1000012c:	7369                	lui	t1,0xffffa
1000012e:	6569                	lui	a0,0x1a
10000130:	206e                	fld	ft0,216(sp)
10000132:	6574                	flw	fa3,76(a0)
10000134:	7372                	flw	ft6,60(sp)
10000136:	6d69                	lui	s10,0x1a
10000138:	6170                	flw	fa2,68(a0)
1000013a:	2e6e                	fld	ft8,216(sp)
1000013c:	0000                	unimp
1000013e:	0000                	unimp
10000140:	66656f4b          	0x66656f4b
10000144:	7369                	lui	t1,0xffffa
10000146:	6569                	lui	a0,0x1a
10000148:	206e                	fld	ft0,216(sp)
1000014a:	4946                	lw	s2,80(sp)
1000014c:	2052                	fld	ft0,272(sp)
1000014e:	74616173          	csrrsi	sp,0x746,2
10000152:	6920                	flw	fs0,80(a0)
10000154:	696e                	flw	fs2,216(sp)
10000156:	003a                	0x3a
10000158:	5b68                	lw	a0,116(a4)
1000015a:	3025                	jal	ffff982 <status+0xcfff97a>
1000015c:	6432                	flw	fs0,12(sp)
1000015e:	205d                	jal	10000204 <fir_coeff_default+0x1ac>
10000160:	203d                	jal	1000018e <fir_coeff_default+0x136>
10000162:	6425                	lui	s0,0x9
10000164:	0a0d                	addi	s4,s4,3
10000166:	0000                	unimp
10000168:	6e49                	lui	t3,0x12
1000016a:	7570                	flw	fa2,108(a0)
1000016c:	2074                	fld	fa3,192(s0)
1000016e:	70616973          	csrrsi	s2,0x706,2
10000172:	002e                	0x2e
10000174:	206e                	fld	ft0,216(sp)
10000176:	7820                	flw	fs0,112(s0)
10000178:	205d6e5b          	p.mac.zh.zl	t3,s10,t0,a6
1000017c:	7920                	flw	fs0,112(a0)
1000017e:	685f 2077 7920      	0x79202077685f
10000184:	705f 0073 3025      	0x30250073705f
1000018a:	25206433          	0x25206433
1000018e:	2064                	fld	fs1,192(s0)
10000190:	6425                	lui	s0,0x9
10000192:	2520                	fld	fs0,72(a0)
10000194:	0d64                	addi	s1,sp,668
10000196:	000a                	0xa
10000198:	3a4d5553          	0x3a4d5553
1000019c:	7420                	flw	fs0,104(s0)
1000019e:	6c61746f          	jal	s0,10017864 <__stack_pointer+0x16864>
100001a2:	253d                	jal	100007d0 <main+0x15c>
100001a4:	2064                	fld	fs1,192(s0)
100001a6:	616d                	addi	sp,sp,240
100001a8:	6374                	flw	fa3,68(a4)
100001aa:	3d68                	fld	fa0,248(a0)
100001ac:	6425                	lui	s0,0x9
100001ae:	6d20                	flw	fs0,88(a0)
100001b0:	7369                	lui	t1,0xffffa
100001b2:	616d                	addi	sp,sp,240
100001b4:	6374                	flw	fa3,68(a4)
100001b6:	3d68                	fld	fa0,248(a0)
100001b8:	6425                	lui	s0,0x9
100001ba:	0a0d                	addi	s4,s4,3
100001bc:	0000                	unimp
100001be:	0000                	unimp
100001c0:	54415453          	fmacex.s.ah	s0,sp,tp
100001c4:	5355                	li	t1,-11
100001c6:	203a                	fld	ft0,392(sp)
100001c8:	414d                	li	sp,19
100001ca:	4354                	lw	a3,4(a4)
100001cc:	0048                	addi	a0,sp,4
100001ce:	0000                	unimp
100001d0:	54415453          	fmacex.s.ah	s0,sp,tp
100001d4:	5355                	li	t1,-11
100001d6:	203a                	fld	ft0,392(sp)
100001d8:	494d                	li	s2,19
100001da:	54414d53          	0x54414d53
100001de:	00004843          	fmadd.s	fa6,ft0,ft0,ft0,rmm
100001e2:	0000                	unimp
100001e4:	6148                	flw	fa0,4(a0)
100001e6:	206c6973          	csrrsi	s2,0x206,24
100001ea:	6168                	flw	fa0,68(a0)
100001ec:	6472                	flw	fs0,28(sp)
100001ee:	65726177          	0x65726177
100001f2:	6320                	flw	fs0,64(a4)
100001f4:	6b6f636f          	jal	t1,100f68aa <__stack_pointer+0xf58aa>
100001f8:	6420                	flw	fs0,72(s0)
100001fa:	6e65                	lui	t3,0x19
100001fc:	206e6167          	0x206e6167
10000200:	5350                	lw	a2,36(a4)
10000202:	002e                	0x2e
10000204:	6441                	lui	s0,0x10
10000206:	2061                	jal	1000028e <fir_input+0x6>
10000208:	696c6573          	csrrsi	a0,0x696,24
1000020c:	20686973          	csrrsi	s2,0x206,16
10000210:	6168                	flw	fa0,68(a0)
10000212:	6472                	flw	fs0,28(sp)
10000214:	65726177          	0x65726177
10000218:	7620                	flw	fs0,104(a2)
1000021a:	53502073          	csrr	zero,0x535
1000021e:	002e                	0x2e
10000220:	74617453          	0x74617453
10000224:	2065                	jal	100002cc <fir_input+0x44>
10000226:	61656c63          	bltu	a0,s6,1000083e <__global_pointer+0x3e>
1000022a:	6572                	flw	fa0,28(sp)
1000022c:	2e64                	fld	fs1,216(a2)
1000022e:	0000                	unimp
10000230:	756c654b          	fnmsub.h	a0,s8,s6,a4,unknown
10000234:	7261                	lui	tp,0xffff8
10000236:	002e                	0x2e
10000238:	654d                	lui	a0,0x13
1000023a:	756e                	flw	fa0,248(sp)
1000023c:	7420                	flw	fs0,104(s0)
1000023e:	6469                	lui	s0,0x1a
10000240:	6b61                	lui	s6,0x18
10000242:	6420                	flw	fs0,72(s0)
10000244:	6b69                	lui	s6,0x1a
10000246:	6e65                	lui	t3,0x19
10000248:	6c61                	lui	s8,0x18
1000024a:	002e                	0x2e

1000024c <rng_state>:
1000024c:	5678                	lw	a4,108(a2)
1000024e:	1234                	addi	a3,sp,296

10000250 <hex_symbols>:
10000250:	3130                	fld	fa2,96(a0)
10000252:	3332                	fld	ft6,296(sp)
10000254:	3534                	fld	fa3,104(a0)
10000256:	3736                	fld	fa4,360(sp)
10000258:	3938                	fld	fa4,112(a0)
1000025a:	4241                	li	tp,16
1000025c:	46454443          	0x46454443
10000260:	6e28                	flw	fa0,88(a2)
10000262:	6c75                	lui	s8,0x1d
10000264:	296c                	fld	fa1,208(a0)
	...

10000268 <fir_coeff>:
	...

10000288 <fir_input>:
	...

100003c8 <fir_state_ps>:
	...

Disassembly of section .text:

100003e8 <__mulsi3>:
100003e8:	862a                	mv	a2,a0
100003ea:	4501                	li	a0,0
100003ec:	0015f693          	andi	a3,a1,1
100003f0:	c291                	beqz	a3,100003f4 <__mulsi3+0xc>
100003f2:	9532                	add	a0,a0,a2
100003f4:	8185                	srli	a1,a1,0x1
100003f6:	0606                	slli	a2,a2,0x1
100003f8:	f9f5                	bnez	a1,100003ec <__mulsi3+0x4>
100003fa:	8082                	ret
100003fc:	0000                	unimp
	...

10000400 <__divsi3>:
10000400:	02054e63          	bltz	a0,1000043c <__umodsi3+0x8>
10000404:	0405c363          	bltz	a1,1000044a <__umodsi3+0x16>

10000408 <__udivsi3>:
10000408:	862e                	mv	a2,a1
1000040a:	85aa                	mv	a1,a0
1000040c:	557d                	li	a0,-1
1000040e:	c215                	beqz	a2,10000432 <__udivsi3+0x2a>
10000410:	4685                	li	a3,1
10000412:	00b67863          	bleu	a1,a2,10000422 <__udivsi3+0x1a>
10000416:	00c05663          	blez	a2,10000422 <__udivsi3+0x1a>
1000041a:	0606                	slli	a2,a2,0x1
1000041c:	0686                	slli	a3,a3,0x1
1000041e:	feb66ce3          	bltu	a2,a1,10000416 <__udivsi3+0xe>
10000422:	4501                	li	a0,0
10000424:	00c5e463          	bltu	a1,a2,1000042c <__udivsi3+0x24>
10000428:	8d91                	sub	a1,a1,a2
1000042a:	8d55                	or	a0,a0,a3
1000042c:	8285                	srli	a3,a3,0x1
1000042e:	8205                	srli	a2,a2,0x1
10000430:	faf5                	bnez	a3,10000424 <__udivsi3+0x1c>
10000432:	8082                	ret

10000434 <__umodsi3>:
10000434:	8286                	mv	t0,ra
10000436:	3fc9                	jal	10000408 <__udivsi3>
10000438:	852e                	mv	a0,a1
1000043a:	8282                	jr	t0
1000043c:	40a00533          	neg	a0,a0
10000440:	0005d763          	bgez	a1,1000044e <__umodsi3+0x1a>
10000444:	40b005b3          	neg	a1,a1
10000448:	b7c1                	j	10000408 <__udivsi3>
1000044a:	40b005b3          	neg	a1,a1
1000044e:	8286                	mv	t0,ra
10000450:	3f65                	jal	10000408 <__udivsi3>
10000452:	40a00533          	neg	a0,a0
10000456:	8282                	jr	t0

10000458 <__modsi3>:
10000458:	8286                	mv	t0,ra
1000045a:	0005c763          	bltz	a1,10000468 <__modsi3+0x10>
1000045e:	00054963          	bltz	a0,10000470 <__modsi3+0x18>
10000462:	375d                	jal	10000408 <__udivsi3>
10000464:	852e                	mv	a0,a1
10000466:	8282                	jr	t0
10000468:	40b005b3          	neg	a1,a1
1000046c:	fe055be3          	bgez	a0,10000462 <__modsi3+0xa>
10000470:	40a00533          	neg	a0,a0
10000474:	3f51                	jal	10000408 <__udivsi3>
10000476:	40b00533          	neg	a0,a1
1000047a:	8282                	jr	t0
1000047c:	0000                	unimp
	...

10000480 <fir_sw_clear_state>:
10000480:	00000717          	auipc	a4,0x0
10000484:	f4870713          	addi	a4,a4,-184 # 100003c8 <fir_state_ps>
10000488:	00000793          	li	a5,0
1000048c:	01000693          	li	a3,16
10000490:	00071023          	sh	zero,0(a4)
10000494:	00178793          	addi	a5,a5,1
10000498:	00270713          	addi	a4,a4,2
1000049c:	fed79ae3          	bne	a5,a3,10000490 <fir_sw_clear_state+0x10>
100004a0:	00008067          	ret

100004a4 <generate_random_input>:
100004a4:	fe010113          	addi	sp,sp,-32
100004a8:	00000797          	auipc	a5,0x0
100004ac:	da478793          	addi	a5,a5,-604 # 1000024c <rng_state>
100004b0:	00812c23          	sw	s0,24(sp)
100004b4:	01312623          	sw	s3,12(sp)
100004b8:	01412423          	sw	s4,8(sp)
100004bc:	3c6ef9b7          	lui	s3,0x3c6ef
100004c0:	00196a37          	lui	s4,0x196
100004c4:	0007a403          	lw	s0,0(a5)
100004c8:	00912a23          	sw	s1,20(sp)
100004cc:	01212823          	sw	s2,16(sp)
100004d0:	01512223          	sw	s5,4(sp)
100004d4:	00112e23          	sw	ra,28(sp)
100004d8:	00000917          	auipc	s2,0x0
100004dc:	db090913          	addi	s2,s2,-592 # 10000288 <fir_input>
100004e0:	00000493          	li	s1,0
100004e4:	60da0a13          	addi	s4,s4,1549 # 19660d <status-0x2e699fb>
100004e8:	35f98993          	addi	s3,s3,863 # 3c6ef35f <__stack_pointer+0x2c6ee35f>
100004ec:	0a000a93          	li	s5,160
100004f0:	000a0593          	mv	a1,s4
100004f4:	00040513          	mv	a0,s0
100004f8:	ef1ff0ef          	jal	ra,100003e8 <__mulsi3>
100004fc:	01350433          	add	s0,a0,s3
10000500:	7d100593          	li	a1,2001
10000504:	01045513          	srli	a0,s0,0x10
10000508:	f2dff0ef          	jal	ra,10000434 <__umodsi3>
1000050c:	c1850513          	addi	a0,a0,-1000 # 12c18 <status-0x2fed3f0>
10000510:	00a91023          	sh	a0,0(s2)
10000514:	00148493          	addi	s1,s1,1
10000518:	00290913          	addi	s2,s2,2
1000051c:	fd549ae3          	bne	s1,s5,100004f0 <generate_random_input+0x4c>
10000520:	00000797          	auipc	a5,0x0
10000524:	d287a623          	sw	s0,-724(a5) # 1000024c <rng_state>
10000528:	01c12083          	lw	ra,28(sp)
1000052c:	01812403          	lw	s0,24(sp)
10000530:	01412483          	lw	s1,20(sp)
10000534:	01012903          	lw	s2,16(sp)
10000538:	00c12983          	lw	s3,12(sp)
1000053c:	00812a03          	lw	s4,8(sp)
10000540:	00412a83          	lw	s5,4(sp)
10000544:	02010113          	addi	sp,sp,32
10000548:	00008067          	ret

1000054c <put_str>:
1000054c:	ff010113          	addi	sp,sp,-16
10000550:	00812423          	sw	s0,8(sp)
10000554:	00112623          	sw	ra,12(sp)
10000558:	00050413          	mv	s0,a0
1000055c:	00044503          	lbu	a0,0(s0) # 1a000 <status-0x2fe6008>
10000560:	00051a63          	bnez	a0,10000574 <put_str+0x28>
10000564:	00c12083          	lw	ra,12(sp)
10000568:	00812403          	lw	s0,8(sp)
1000056c:	01010113          	addi	sp,sp,16
10000570:	00008067          	ret
10000574:	00140413          	addi	s0,s0,1
10000578:	201000ef          	jal	ra,10000f78 <uart_write>
1000057c:	fe1ff06f          	j	1000055c <put_str+0x10>

10000580 <put_crlf>:
10000580:	ff010113          	addi	sp,sp,-16
10000584:	00d00513          	li	a0,13
10000588:	00112623          	sw	ra,12(sp)
1000058c:	1ed000ef          	jal	ra,10000f78 <uart_write>
10000590:	00c12083          	lw	ra,12(sp)
10000594:	00a00513          	li	a0,10
10000598:	01010113          	addi	sp,sp,16
1000059c:	1dd0006f          	j	10000f78 <uart_write>

100005a0 <read_line.constprop.1>:
100005a0:	fd010113          	addi	sp,sp,-48
100005a4:	02812423          	sw	s0,40(sp)
100005a8:	02912223          	sw	s1,36(sp)
100005ac:	01312e23          	sw	s3,28(sp)
100005b0:	01412c23          	sw	s4,24(sp)
100005b4:	01512a23          	sw	s5,20(sp)
100005b8:	01612823          	sw	s6,16(sp)
100005bc:	01712623          	sw	s7,12(sp)
100005c0:	02112623          	sw	ra,44(sp)
100005c4:	03212023          	sw	s2,32(sp)
100005c8:	00050493          	mv	s1,a0
100005cc:	00000413          	li	s0,0
100005d0:	00d00993          	li	s3,13
100005d4:	00a00a13          	li	s4,10
100005d8:	00800a93          	li	s5,8
100005dc:	07f00b13          	li	s6,127
100005e0:	01e00b93          	li	s7,30
100005e4:	1cd000ef          	jal	ra,10000fb0 <uart_read>
100005e8:	05350863          	beq	a0,s3,10000638 <read_line.constprop.1+0x98>
100005ec:	05450663          	beq	a0,s4,10000638 <read_line.constprop.1+0x98>
100005f0:	01550463          	beq	a0,s5,100005f8 <read_line.constprop.1+0x58>
100005f4:	03651463          	bne	a0,s6,1000061c <read_line.constprop.1+0x7c>
100005f8:	02040463          	beqz	s0,10000620 <read_line.constprop.1+0x80>
100005fc:	00800513          	li	a0,8
10000600:	179000ef          	jal	ra,10000f78 <uart_write>
10000604:	02000513          	li	a0,32
10000608:	171000ef          	jal	ra,10000f78 <uart_write>
1000060c:	00800513          	li	a0,8
10000610:	fff40413          	addi	s0,s0,-1
10000614:	165000ef          	jal	ra,10000f78 <uart_write>
10000618:	fcdff06f          	j	100005e4 <read_line.constprop.1+0x44>
1000061c:	fc8bc4e3          	blt	s7,s0,100005e4 <read_line.constprop.1+0x44>
10000620:	00140913          	addi	s2,s0,1
10000624:	00848433          	add	s0,s1,s0
10000628:	00a40023          	sb	a0,0(s0)
1000062c:	14d000ef          	jal	ra,10000f78 <uart_write>
10000630:	00090413          	mv	s0,s2
10000634:	fb1ff06f          	j	100005e4 <read_line.constprop.1+0x44>
10000638:	008484b3          	add	s1,s1,s0
1000063c:	f45ff0ef          	jal	ra,10000580 <put_crlf>
10000640:	00048023          	sb	zero,0(s1)
10000644:	00040513          	mv	a0,s0
10000648:	02c12083          	lw	ra,44(sp)
1000064c:	02812403          	lw	s0,40(sp)
10000650:	02412483          	lw	s1,36(sp)
10000654:	02012903          	lw	s2,32(sp)
10000658:	01c12983          	lw	s3,28(sp)
1000065c:	01812a03          	lw	s4,24(sp)
10000660:	01412a83          	lw	s5,20(sp)
10000664:	01012b03          	lw	s6,16(sp)
10000668:	00c12b83          	lw	s7,12(sp)
1000066c:	03010113          	addi	sp,sp,48
10000670:	00008067          	ret

10000674 <main>:
10000674:	f7010113          	addi	sp,sp,-144
10000678:	08112623          	sw	ra,140(sp)
1000067c:	09212023          	sw	s2,128(sp)
10000680:	08812423          	sw	s0,136(sp)
10000684:	08912223          	sw	s1,132(sp)
10000688:	07312e23          	sw	s3,124(sp)
1000068c:	07412c23          	sw	s4,120(sp)
10000690:	07512a23          	sw	s5,116(sp)
10000694:	07612823          	sw	s6,112(sp)
10000698:	07712623          	sw	s7,108(sp)
1000069c:	07812423          	sw	s8,104(sp)
100006a0:	07912223          	sw	s9,100(sp)
100006a4:	07a12023          	sw	s10,96(sp)
100006a8:	05b12e23          	sw	s11,92(sp)
100006ac:	099000ef          	jal	ra,10000f44 <uart_init>
100006b0:	00000517          	auipc	a0,0x0
100006b4:	ab450513          	addi	a0,a0,-1356 # 10000164 <fir_coeff_default+0x10c>
100006b8:	e95ff0ef          	jal	ra,1000054c <put_str>
100006bc:	0d5000ef          	jal	ra,10000f90 <uart_write_flush>
100006c0:	00000717          	auipc	a4,0x0
100006c4:	ba870713          	addi	a4,a4,-1112 # 10000268 <fir_coeff>
100006c8:	00000793          	li	a5,0
100006cc:	00000517          	auipc	a0,0x0
100006d0:	98c50513          	addi	a0,a0,-1652 # 10000058 <fir_coeff_default>
100006d4:	02000693          	li	a3,32
100006d8:	00070913          	mv	s2,a4
100006dc:	00f505b3          	add	a1,a0,a5
100006e0:	0005d583          	lhu	a1,0(a1)
100006e4:	00f70633          	add	a2,a4,a5
100006e8:	00b61023          	sh	a1,0(a2) # 19000 <status-0x2fe7008>
100006ec:	00278793          	addi	a5,a5,2
100006f0:	fed796e3          	bne	a5,a3,100006dc <main+0x68>
100006f4:	db1ff0ef          	jal	ra,100004a4 <generate_random_input>
100006f8:	d89ff0ef          	jal	ra,10000480 <fir_sw_clear_state>
100006fc:	e85ff0ef          	jal	ra,10000580 <put_crlf>
10000700:	00000517          	auipc	a0,0x0
10000704:	97850513          	addi	a0,a0,-1672 # 10000078 <fir_coeff_default+0x20>
10000708:	e45ff0ef          	jal	ra,1000054c <put_str>
1000070c:	e75ff0ef          	jal	ra,10000580 <put_crlf>
10000710:	00000517          	auipc	a0,0x0
10000714:	97c50513          	addi	a0,a0,-1668 # 1000008c <fir_coeff_default+0x34>
10000718:	000084b7          	lui	s1,0x8
1000071c:	e31ff0ef          	jal	ra,1000054c <put_str>
10000720:	00000997          	auipc	s3,0x0
10000724:	ca898993          	addi	s3,s3,-856 # 100003c8 <fir_state_ps>
10000728:	e59ff0ef          	jal	ra,10000580 <put_crlf>
1000072c:	fff48a13          	addi	s4,s1,-1 # 7fff <status-0x2ff8009>
10000730:	061000ef          	jal	ra,10000f90 <uart_write_flush>
10000734:	00000b17          	auipc	s6,0x0
10000738:	97cb0b13          	addi	s6,s6,-1668 # 100000b0 <fir_coeff_default+0x58>
1000073c:	00000417          	auipc	s0,0x0
10000740:	98840413          	addi	s0,s0,-1656 # 100000c4 <fir_coeff_default+0x6c>
10000744:	e3dff0ef          	jal	ra,10000580 <put_crlf>
10000748:	000b0513          	mv	a0,s6
1000074c:	e01ff0ef          	jal	ra,1000054c <put_str>
10000750:	e31ff0ef          	jal	ra,10000580 <put_crlf>
10000754:	00040513          	mv	a0,s0
10000758:	df5ff0ef          	jal	ra,1000054c <put_str>
1000075c:	035000ef          	jal	ra,10000f90 <uart_write_flush>
10000760:	01010513          	addi	a0,sp,16
10000764:	e3dff0ef          	jal	ra,100005a0 <read_line.constprop.1>
10000768:	fca05ee3          	blez	a0,10000744 <main+0xd0>
1000076c:	01014783          	lbu	a5,16(sp)
10000770:	05200713          	li	a4,82
10000774:	1ee78063          	beq	a5,a4,10000954 <__global_pointer+0x154>
10000778:	04f76663          	bltu	a4,a5,100007c4 <main+0x150>
1000077c:	04b00713          	li	a4,75
10000780:	0ce78263          	beq	a5,a4,10000844 <__global_pointer+0x44>
10000784:	02f76263          	bltu	a4,a5,100007a8 <main+0x134>
10000788:	04300713          	li	a4,67
1000078c:	3ae78263          	beq	a5,a4,10000b30 <__global_pointer+0x330>
10000790:	04700713          	li	a4,71
10000794:	02e79263          	bne	a5,a4,100007b8 <main+0x144>
10000798:	d0dff0ef          	jal	ra,100004a4 <generate_random_input>
1000079c:	00000517          	auipc	a0,0x0
100007a0:	9cc50513          	addi	a0,a0,-1588 # 10000168 <fir_coeff_default+0x110>
100007a4:	0fc0006f          	j	100008a0 <__global_pointer+0xa0>
100007a8:	05000713          	li	a4,80
100007ac:	04e78663          	beq	a5,a4,100007f8 <main+0x184>
100007b0:	05100713          	li	a4,81
100007b4:	38e78e63          	beq	a5,a4,10000b50 <__global_pointer+0x350>
100007b8:	00000517          	auipc	a0,0x0
100007bc:	a8050513          	addi	a0,a0,-1408 # 10000238 <fir_coeff_default+0x1e0>
100007c0:	0e00006f          	j	100008a0 <__global_pointer+0xa0>
100007c4:	06b00713          	li	a4,107
100007c8:	06e78e63          	beq	a5,a4,10000844 <__global_pointer+0x44>
100007cc:	00f76a63          	bltu	a4,a5,100007e0 <main+0x16c>
100007d0:	06300713          	li	a4,99
100007d4:	34e78e63          	beq	a5,a4,10000b30 <__global_pointer+0x330>
100007d8:	06700713          	li	a4,103
100007dc:	fb9ff06f          	j	10000794 <main+0x120>
100007e0:	07100713          	li	a4,113
100007e4:	36e78663          	beq	a5,a4,10000b50 <__global_pointer+0x350>
100007e8:	07200713          	li	a4,114
100007ec:	16e78463          	beq	a5,a4,10000954 <__global_pointer+0x154>
100007f0:	07000713          	li	a4,112
100007f4:	fce792e3          	bne	a5,a4,100007b8 <main+0x144>
100007f8:	d89ff0ef          	jal	ra,10000580 <put_crlf>
100007fc:	00000517          	auipc	a0,0x0
10000800:	94450513          	addi	a0,a0,-1724 # 10000140 <fir_coeff_default+0xe8>
10000804:	d49ff0ef          	jal	ra,1000054c <put_str>
10000808:	00000b17          	auipc	s6,0x0
1000080c:	a60b0b13          	addi	s6,s6,-1440 # 10000268 <fir_coeff>
10000810:	d71ff0ef          	jal	ra,10000580 <put_crlf>
10000814:	00000413          	li	s0,0
10000818:	00000c17          	auipc	s8,0x0
1000081c:	940c0c13          	addi	s8,s8,-1728 # 10000158 <fir_coeff_default+0x100>
10000820:	01000b93          	li	s7,16
10000824:	000b1603          	lh	a2,0(s6)
10000828:	00040593          	mv	a1,s0
1000082c:	000c0513          	mv	a0,s8
10000830:	00140413          	addi	s0,s0,1
10000834:	4c4000ef          	jal	ra,10000cf8 <printf>
10000838:	002b0b13          	addi	s6,s6,2
1000083c:	ff7414e3          	bne	s0,s7,10000824 <__global_pointer+0x24>
10000840:	ef5ff06f          	j	10000734 <main+0xc0>
10000844:	d3dff0ef          	jal	ra,10000580 <put_crlf>
10000848:	00000517          	auipc	a0,0x0
1000084c:	88c50513          	addi	a0,a0,-1908 # 100000d4 <fir_coeff_default+0x7c>
10000850:	cfdff0ef          	jal	ra,1000054c <put_str>
10000854:	00000c93          	li	s9,0
10000858:	d29ff0ef          	jal	ra,10000580 <put_crlf>
1000085c:	00000b17          	auipc	s6,0x0
10000860:	8a4b0b13          	addi	s6,s6,-1884 # 10000100 <fir_coeff_default+0xa8>
10000864:	00000b97          	auipc	s7,0x0
10000868:	8a8b8b93          	addi	s7,s7,-1880 # 1000010c <fir_coeff_default+0xb4>
1000086c:	02d00c13          	li	s8,45
10000870:	000b0513          	mv	a0,s6
10000874:	000c8593          	mv	a1,s9
10000878:	480000ef          	jal	ra,10000cf8 <printf>
1000087c:	03010513          	addi	a0,sp,48
10000880:	d21ff0ef          	jal	ra,100005a0 <read_line.constprop.1>
10000884:	02a04463          	bgtz	a0,100008ac <__global_pointer+0xac>
10000888:	fffc8c93          	addi	s9,s9,-1
1000088c:	001c8c93          	addi	s9,s9,1
10000890:	01000793          	li	a5,16
10000894:	fcfc9ee3          	bne	s9,a5,10000870 <__global_pointer+0x70>
10000898:	00000517          	auipc	a0,0x0
1000089c:	89050513          	addi	a0,a0,-1904 # 10000128 <fir_coeff_default+0xd0>
100008a0:	cadff0ef          	jal	ra,1000054c <put_str>
100008a4:	cddff0ef          	jal	ra,10000580 <put_crlf>
100008a8:	e8dff06f          	j	10000734 <main+0xc0>
100008ac:	03014403          	lbu	s0,48(sp)
100008b0:	02040463          	beqz	s0,100008d8 <__global_pointer+0xd8>
100008b4:	03840a63          	beq	s0,s8,100008e8 <__global_pointer+0xe8>
100008b8:	fd540413          	addi	s0,s0,-43
100008bc:	00143413          	seqz	s0,s0
100008c0:	00100d93          	li	s11,1
100008c4:	03010713          	addi	a4,sp,48
100008c8:	00870433          	add	s0,a4,s0
100008cc:	00044783          	lbu	a5,0(s0)
100008d0:	00000513          	li	a0,0
100008d4:	04079063          	bnez	a5,10000914 <__global_pointer+0x114>
100008d8:	000b8513          	mv	a0,s7
100008dc:	c71ff0ef          	jal	ra,1000054c <put_str>
100008e0:	ca1ff0ef          	jal	ra,10000580 <put_crlf>
100008e4:	fa5ff06f          	j	10000888 <__global_pointer+0x88>
100008e8:	00100413          	li	s0,1
100008ec:	fff00d93          	li	s11,-1
100008f0:	fd5ff06f          	j	100008c4 <__global_pointer+0xc4>
100008f4:	fd0d0d13          	addi	s10,s10,-48 # 19fd0 <status-0x2fe6038>
100008f8:	0ffd7793          	andi	a5,s10,255
100008fc:	00900713          	li	a4,9
10000900:	00140413          	addi	s0,s0,1
10000904:	fcf76ae3          	bltu	a4,a5,100008d8 <__global_pointer+0xd8>
10000908:	00a00593          	li	a1,10
1000090c:	addff0ef          	jal	ra,100003e8 <__mulsi3>
10000910:	00ad0533          	add	a0,s10,a0
10000914:	00044d03          	lbu	s10,0(s0)
10000918:	fc0d1ee3          	bnez	s10,100008f4 <__global_pointer+0xf4>
1000091c:	000d8593          	mv	a1,s11
10000920:	ac9ff0ef          	jal	ra,100003e8 <__mulsi3>
10000924:	000a0713          	mv	a4,s4
10000928:	00954a63          	blt	a0,s1,1000093c <__global_pointer+0x13c>
1000092c:	001c9793          	slli	a5,s9,0x1
10000930:	00f907b3          	add	a5,s2,a5
10000934:	00e79023          	sh	a4,0(a5)
10000938:	f55ff06f          	j	1000088c <__global_pointer+0x8c>
1000093c:	ffff87b7          	lui	a5,0xffff8
10000940:	ffff8737          	lui	a4,0xffff8
10000944:	fef544e3          	blt	a0,a5,1000092c <__global_pointer+0x12c>
10000948:	01051713          	slli	a4,a0,0x10
1000094c:	41075713          	srai	a4,a4,0x10
10000950:	fddff06f          	j	1000092c <__global_pointer+0x12c>
10000954:	b2dff0ef          	jal	ra,10000480 <fir_sw_clear_state>
10000958:	200027b7          	lui	a5,0x20002
1000095c:	00200713          	li	a4,2
10000960:	00e7a023          	sw	a4,0(a5) # 20002000 <__stack_pointer+0x10001000>
10000964:	0ff0000f          	fence
10000968:	00000697          	auipc	a3,0x0
1000096c:	90068693          	addi	a3,a3,-1792 # 10000268 <fir_coeff>
10000970:	00000793          	li	a5,0
10000974:	20002737          	lui	a4,0x20002
10000978:	01000613          	li	a2,16
1000097c:	00069583          	lh	a1,0(a3)
10000980:	00f72423          	sw	a5,8(a4) # 20002008 <__stack_pointer+0x10001008>
10000984:	00b72623          	sw	a1,12(a4)
10000988:	00178793          	addi	a5,a5,1
1000098c:	00268693          	addi	a3,a3,2
10000990:	fec796e3          	bne	a5,a2,1000097c <__global_pointer+0x17c>
10000994:	0ff0000f          	fence
10000998:	0a000793          	li	a5,160
1000099c:	00000b97          	auipc	s7,0x0
100009a0:	8ecb8b93          	addi	s7,s7,-1812 # 10000288 <fir_input>
100009a4:	02f72023          	sw	a5,32(a4)
100009a8:	000b8693          	mv	a3,s7
100009ac:	00000793          	li	a5,0
100009b0:	20002737          	lui	a4,0x20002
100009b4:	0a000613          	li	a2,160
100009b8:	00069583          	lh	a1,0(a3)
100009bc:	00f72823          	sw	a5,16(a4) # 20002010 <__stack_pointer+0x10001010>
100009c0:	00b72a23          	sw	a1,20(a4)
100009c4:	00178793          	addi	a5,a5,1
100009c8:	00268693          	addi	a3,a3,2
100009cc:	fec796e3          	bne	a5,a2,100009b8 <__global_pointer+0x1b8>
100009d0:	0ff0000f          	fence
100009d4:	00100793          	li	a5,1
100009d8:	00f72023          	sw	a5,0(a4)
100009dc:	20002737          	lui	a4,0x20002
100009e0:	00472783          	lw	a5,4(a4) # 20002004 <__stack_pointer+0x10001004>
100009e4:	0027f793          	andi	a5,a5,2
100009e8:	fe078ce3          	beqz	a5,100009e0 <__global_pointer+0x1e0>
100009ec:	b95ff0ef          	jal	ra,10000580 <put_crlf>
100009f0:	fffff517          	auipc	a0,0xfffff
100009f4:	78450513          	addi	a0,a0,1924 # 10000174 <fir_coeff_default+0x11c>
100009f8:	b55ff0ef          	jal	ra,1000054c <put_str>
100009fc:	00000b13          	li	s6,0
10000a00:	b81ff0ef          	jal	ra,10000580 <put_crlf>
10000a04:	00000a93          	li	s5,0
10000a08:	02000c93          	li	s9,32
10000a0c:	ffff8d37          	lui	s10,0xffff8
10000a10:	20002c37          	lui	s8,0x20002
10000a14:	000b9603          	lh	a2,0(s7)
10000a18:	00000797          	auipc	a5,0x0
10000a1c:	9ce78793          	addi	a5,a5,-1586 # 100003e6 <fir_state_ps+0x1e>
10000a20:	ffe7d703          	lhu	a4,-2(a5)
10000a24:	ffe78793          	addi	a5,a5,-2
10000a28:	00e79123          	sh	a4,2(a5)
10000a2c:	fef99ae3          	bne	s3,a5,10000a20 <__global_pointer+0x220>
10000a30:	00000797          	auipc	a5,0x0
10000a34:	98c79c23          	sh	a2,-1640(a5) # 100003c8 <fir_state_ps>
10000a38:	00000793          	li	a5,0
10000a3c:	00000413          	li	s0,0
10000a40:	00000d93          	li	s11,0
10000a44:	00f90733          	add	a4,s2,a5
10000a48:	00f986b3          	add	a3,s3,a5
10000a4c:	00069583          	lh	a1,0(a3)
10000a50:	00071503          	lh	a0,0(a4)
10000a54:	00c12623          	sw	a2,12(sp)
10000a58:	00f12423          	sw	a5,8(sp)
10000a5c:	98dff0ef          	jal	ra,100003e8 <__mulsi3>
10000a60:	00812783          	lw	a5,8(sp)
10000a64:	41f55693          	srai	a3,a0,0x1f
10000a68:	00a40533          	add	a0,s0,a0
10000a6c:	00853733          	sltu	a4,a0,s0
10000a70:	00dd8db3          	add	s11,s11,a3
10000a74:	00278793          	addi	a5,a5,2
10000a78:	00050413          	mv	s0,a0
10000a7c:	01b70db3          	add	s11,a4,s11
10000a80:	00c12603          	lw	a2,12(sp)
10000a84:	fd9790e3          	bne	a5,s9,10000a44 <__global_pointer+0x244>
10000a88:	011d9d93          	slli	s11,s11,0x11
10000a8c:	00f55793          	srli	a5,a0,0xf
10000a90:	00fde7b3          	or	a5,s11,a5
10000a94:	000a0713          	mv	a4,s4
10000a98:	0097da63          	ble	s1,a5,10000aac <__global_pointer+0x2ac>
10000a9c:	ffff8737          	lui	a4,0xffff8
10000aa0:	01a7c663          	blt	a5,s10,10000aac <__global_pointer+0x2ac>
10000aa4:	01079713          	slli	a4,a5,0x10
10000aa8:	41075713          	srai	a4,a4,0x10
10000aac:	015c2c23          	sw	s5,24(s8) # 20002018 <__stack_pointer+0x10001018>
10000ab0:	0ff0000f          	fence
10000ab4:	01cc2683          	lw	a3,28(s8)
10000ab8:	00e68463          	beq	a3,a4,10000ac0 <__global_pointer+0x2c0>
10000abc:	001b0b13          	addi	s6,s6,1
10000ac0:	000a8593          	mv	a1,s5
10000ac4:	fffff517          	auipc	a0,0xfffff
10000ac8:	6c450513          	addi	a0,a0,1732 # 10000188 <fir_coeff_default+0x130>
10000acc:	22c000ef          	jal	ra,10000cf8 <printf>
10000ad0:	001a8a93          	addi	s5,s5,1
10000ad4:	0a000793          	li	a5,160
10000ad8:	002b8b93          	addi	s7,s7,2
10000adc:	f2fa9ce3          	bne	s5,a5,10000a14 <__global_pointer+0x214>
10000ae0:	aa1ff0ef          	jal	ra,10000580 <put_crlf>
10000ae4:	fffff517          	auipc	a0,0xfffff
10000ae8:	6b450513          	addi	a0,a0,1716 # 10000198 <fir_coeff_default+0x140>
10000aec:	000b0693          	mv	a3,s6
10000af0:	416a8633          	sub	a2,s5,s6
10000af4:	0a000593          	li	a1,160
10000af8:	200000ef          	jal	ra,10000cf8 <printf>
10000afc:	fffff517          	auipc	a0,0xfffff
10000b00:	6c450513          	addi	a0,a0,1732 # 100001c0 <fir_coeff_default+0x168>
10000b04:	000b0663          	beqz	s6,10000b10 <__global_pointer+0x310>
10000b08:	fffff517          	auipc	a0,0xfffff
10000b0c:	6c850513          	addi	a0,a0,1736 # 100001d0 <fir_coeff_default+0x178>
10000b10:	a3dff0ef          	jal	ra,1000054c <put_str>
10000b14:	a6dff0ef          	jal	ra,10000580 <put_crlf>
10000b18:	fffff517          	auipc	a0,0xfffff
10000b1c:	6cc50513          	addi	a0,a0,1740 # 100001e4 <fir_coeff_default+0x18c>
10000b20:	d80b00e3          	beqz	s6,100008a0 <__global_pointer+0xa0>
10000b24:	fffff517          	auipc	a0,0xfffff
10000b28:	6e050513          	addi	a0,a0,1760 # 10000204 <fir_coeff_default+0x1ac>
10000b2c:	d75ff06f          	j	100008a0 <__global_pointer+0xa0>
10000b30:	200027b7          	lui	a5,0x20002
10000b34:	00200713          	li	a4,2
10000b38:	00e7a023          	sw	a4,0(a5) # 20002000 <__stack_pointer+0x10001000>
10000b3c:	0ff0000f          	fence
10000b40:	941ff0ef          	jal	ra,10000480 <fir_sw_clear_state>
10000b44:	fffff517          	auipc	a0,0xfffff
10000b48:	6dc50513          	addi	a0,a0,1756 # 10000220 <fir_coeff_default+0x1c8>
10000b4c:	d55ff06f          	j	100008a0 <__global_pointer+0xa0>
10000b50:	fffff517          	auipc	a0,0xfffff
10000b54:	6e050513          	addi	a0,a0,1760 # 10000230 <fir_coeff_default+0x1d8>
10000b58:	9f5ff0ef          	jal	ra,1000054c <put_str>
10000b5c:	a25ff0ef          	jal	ra,10000580 <put_crlf>
10000b60:	08c12083          	lw	ra,140(sp)
10000b64:	08812403          	lw	s0,136(sp)
10000b68:	08412483          	lw	s1,132(sp)
10000b6c:	08012903          	lw	s2,128(sp)
10000b70:	07c12983          	lw	s3,124(sp)
10000b74:	07812a03          	lw	s4,120(sp)
10000b78:	07412a83          	lw	s5,116(sp)
10000b7c:	07012b03          	lw	s6,112(sp)
10000b80:	06c12b83          	lw	s7,108(sp)
10000b84:	06812c03          	lw	s8,104(sp)
10000b88:	06412c83          	lw	s9,100(sp)
10000b8c:	06012d03          	lw	s10,96(sp)
10000b90:	05c12d83          	lw	s11,92(sp)
10000b94:	00000513          	li	a0,0
10000b98:	09010113          	addi	sp,sp,144
10000b9c:	00008067          	ret

10000ba0 <print_reversed_with_padding>:
10000ba0:	fe010113          	addi	sp,sp,-32
10000ba4:	00812c23          	sw	s0,24(sp)
10000ba8:	01212823          	sw	s2,16(sp)
10000bac:	00112e23          	sw	ra,28(sp)
10000bb0:	00912a23          	sw	s1,20(sp)
10000bb4:	00050913          	mv	s2,a0
10000bb8:	00058413          	mv	s0,a1
10000bbc:	02c46463          	bltu	s0,a2,10000be4 <print_reversed_with_padding+0x44>
10000bc0:	fff00493          	li	s1,-1
10000bc4:	fff40413          	addi	s0,s0,-1
10000bc8:	04941063          	bne	s0,s1,10000c08 <print_reversed_with_padding+0x68>
10000bcc:	01c12083          	lw	ra,28(sp)
10000bd0:	01812403          	lw	s0,24(sp)
10000bd4:	01412483          	lw	s1,20(sp)
10000bd8:	01012903          	lw	s2,16(sp)
10000bdc:	02010113          	addi	sp,sp,32
10000be0:	00008067          	ret
10000be4:	00068513          	mv	a0,a3
10000be8:	00c12623          	sw	a2,12(sp)
10000bec:	00d12423          	sw	a3,8(sp)
10000bf0:	3d8000ef          	jal	ra,10000fc8 <putchar>
10000bf4:	00c12603          	lw	a2,12(sp)
10000bf8:	00812683          	lw	a3,8(sp)
10000bfc:	fff60613          	addi	a2,a2,-1
10000c00:	0ff67613          	andi	a2,a2,255
10000c04:	fb9ff06f          	j	10000bbc <print_reversed_with_padding+0x1c>
10000c08:	008907b3          	add	a5,s2,s0
10000c0c:	0007c503          	lbu	a0,0(a5)
10000c10:	3b8000ef          	jal	ra,10000fc8 <putchar>
10000c14:	fb1ff06f          	j	10000bc4 <print_reversed_with_padding+0x24>

10000c18 <format_dec32>:
10000c18:	fe010113          	addi	sp,sp,-32
10000c1c:	01312623          	sw	s3,12(sp)
10000c20:	00112e23          	sw	ra,28(sp)
10000c24:	00812c23          	sw	s0,24(sp)
10000c28:	00912a23          	sw	s1,20(sp)
10000c2c:	01212823          	sw	s2,16(sp)
10000c30:	00050993          	mv	s3,a0
10000c34:	06058263          	beqz	a1,10000c98 <format_dec32+0x80>
10000c38:	00058493          	mv	s1,a1
10000c3c:	00000793          	li	a5,0
10000c40:	00a00593          	li	a1,10
10000c44:	00048513          	mv	a0,s1
10000c48:	00178413          	addi	s0,a5,1
10000c4c:	00f98933          	add	s2,s3,a5
10000c50:	fe4ff0ef          	jal	ra,10000434 <__umodsi3>
10000c54:	03050513          	addi	a0,a0,48
10000c58:	00a90023          	sb	a0,0(s2)
10000c5c:	00a00593          	li	a1,10
10000c60:	00048513          	mv	a0,s1
10000c64:	fa4ff0ef          	jal	ra,10000408 <__udivsi3>
10000c68:	0ff47413          	andi	s0,s0,255
10000c6c:	00050493          	mv	s1,a0
10000c70:	00040793          	mv	a5,s0
10000c74:	fc0516e3          	bnez	a0,10000c40 <format_dec32+0x28>
10000c78:	00040513          	mv	a0,s0
10000c7c:	01c12083          	lw	ra,28(sp)
10000c80:	01812403          	lw	s0,24(sp)
10000c84:	01412483          	lw	s1,20(sp)
10000c88:	01012903          	lw	s2,16(sp)
10000c8c:	00c12983          	lw	s3,12(sp)
10000c90:	02010113          	addi	sp,sp,32
10000c94:	00008067          	ret
10000c98:	03000793          	li	a5,48
10000c9c:	00f50023          	sb	a5,0(a0)
10000ca0:	00100413          	li	s0,1
10000ca4:	fd5ff06f          	j	10000c78 <format_dec32+0x60>

10000ca8 <format_hex32>:
10000ca8:	04058063          	beqz	a1,10000ce8 <format_hex32+0x40>
10000cac:	00000713          	li	a4,0
10000cb0:	fffff617          	auipc	a2,0xfffff
10000cb4:	5a060613          	addi	a2,a2,1440 # 10000250 <hex_symbols>
10000cb8:	00f5f693          	andi	a3,a1,15
10000cbc:	00d606b3          	add	a3,a2,a3
10000cc0:	0006c683          	lbu	a3,0(a3)
10000cc4:	00170793          	addi	a5,a4,1 # ffff8001 <pulp__FC+0xffff8002>
10000cc8:	00e50733          	add	a4,a0,a4
10000ccc:	0ff7f793          	andi	a5,a5,255
10000cd0:	00d70023          	sb	a3,0(a4)
10000cd4:	0045d593          	srli	a1,a1,0x4
10000cd8:	00078713          	mv	a4,a5
10000cdc:	fc059ee3          	bnez	a1,10000cb8 <format_hex32+0x10>
10000ce0:	00078513          	mv	a0,a5
10000ce4:	00008067          	ret
10000ce8:	03000793          	li	a5,48
10000cec:	00f50023          	sb	a5,0(a0)
10000cf0:	00100793          	li	a5,1
10000cf4:	fedff06f          	j	10000ce0 <format_hex32+0x38>

10000cf8 <printf>:
10000cf8:	f8010113          	addi	sp,sp,-128
10000cfc:	06f12a23          	sw	a5,116(sp)
10000d00:	06410793          	addi	a5,sp,100
10000d04:	04812c23          	sw	s0,88(sp)
10000d08:	05412423          	sw	s4,72(sp)
10000d0c:	05512223          	sw	s5,68(sp)
10000d10:	05612023          	sw	s6,64(sp)
10000d14:	03712e23          	sw	s7,60(sp)
10000d18:	03812c23          	sw	s8,56(sp)
10000d1c:	04112e23          	sw	ra,92(sp)
10000d20:	04912a23          	sw	s1,84(sp)
10000d24:	05212823          	sw	s2,80(sp)
10000d28:	05312623          	sw	s3,76(sp)
10000d2c:	00050413          	mv	s0,a0
10000d30:	06b12223          	sw	a1,100(sp)
10000d34:	06c12423          	sw	a2,104(sp)
10000d38:	06d12623          	sw	a3,108(sp)
10000d3c:	06e12823          	sw	a4,112(sp)
10000d40:	07012c23          	sw	a6,120(sp)
10000d44:	07112e23          	sw	a7,124(sp)
10000d48:	02f12023          	sw	a5,32(sp)
10000d4c:	02500a13          	li	s4,37
10000d50:	03000a93          	li	s5,48
10000d54:	00900b93          	li	s7,9
10000d58:	07300b13          	li	s6,115
10000d5c:	fff00c13          	li	s8,-1
10000d60:	00044503          	lbu	a0,0(s0)
10000d64:	02051a63          	bnez	a0,10000d98 <printf+0xa0>
10000d68:	05c12083          	lw	ra,92(sp)
10000d6c:	05812403          	lw	s0,88(sp)
10000d70:	05412483          	lw	s1,84(sp)
10000d74:	05012903          	lw	s2,80(sp)
10000d78:	04c12983          	lw	s3,76(sp)
10000d7c:	04812a03          	lw	s4,72(sp)
10000d80:	04412a83          	lw	s5,68(sp)
10000d84:	04012b03          	lw	s6,64(sp)
10000d88:	03c12b83          	lw	s7,60(sp)
10000d8c:	03812c03          	lw	s8,56(sp)
10000d90:	08010113          	addi	sp,sp,128
10000d94:	00008067          	ret
10000d98:	17451063          	bne	a0,s4,10000ef8 <printf+0x200>
10000d9c:	00144783          	lbu	a5,1(s0)
10000da0:	01479a63          	bne	a5,s4,10000db4 <printf+0xbc>
10000da4:	02500513          	li	a0,37
10000da8:	220000ef          	jal	ra,10000fc8 <putchar>
10000dac:	00240413          	addi	s0,s0,2
10000db0:	fb1ff06f          	j	10000d60 <printf+0x68>
10000db4:	07578a63          	beq	a5,s5,10000e28 <printf+0x130>
10000db8:	00140413          	addi	s0,s0,1
10000dbc:	02000993          	li	s3,32
10000dc0:	00000913          	li	s2,0
10000dc4:	00044483          	lbu	s1,0(s0)
10000dc8:	fd048793          	addi	a5,s1,-48
10000dcc:	0ff7f793          	andi	a5,a5,255
10000dd0:	06fbf263          	bleu	a5,s7,10000e34 <printf+0x13c>
10000dd4:	13648663          	beq	s1,s6,10000f00 <printf+0x208>
10000dd8:	069b6e63          	bltu	s6,s1,10000e54 <printf+0x15c>
10000ddc:	06300793          	li	a5,99
10000de0:	10f48463          	beq	s1,a5,10000ee8 <printf+0x1f0>
10000de4:	06400793          	li	a5,100
10000de8:	0cf48a63          	beq	s1,a5,10000ebc <printf+0x1c4>
10000dec:	02500513          	li	a0,37
10000df0:	1d8000ef          	jal	ra,10000fc8 <putchar>
10000df4:	01599663          	bne	s3,s5,10000e00 <printf+0x108>
10000df8:	03000513          	li	a0,48
10000dfc:	1cc000ef          	jal	ra,10000fc8 <putchar>
10000e00:	00090e63          	beqz	s2,10000e1c <printf+0x124>
10000e04:	00090593          	mv	a1,s2
10000e08:	01c10513          	addi	a0,sp,28
10000e0c:	e0dff0ef          	jal	ra,10000c18 <format_dec32>
10000e10:	00050493          	mv	s1,a0
10000e14:	fff48493          	addi	s1,s1,-1
10000e18:	11849c63          	bne	s1,s8,10000f30 <printf+0x238>
10000e1c:	00044503          	lbu	a0,0(s0)
10000e20:	06050863          	beqz	a0,10000e90 <printf+0x198>
10000e24:	0d40006f          	j	10000ef8 <printf+0x200>
10000e28:	00240413          	addi	s0,s0,2
10000e2c:	03000993          	li	s3,48
10000e30:	f91ff06f          	j	10000dc0 <printf+0xc8>
10000e34:	00090513          	mv	a0,s2
10000e38:	00a00593          	li	a1,10
10000e3c:	dacff0ef          	jal	ra,100003e8 <__mulsi3>
10000e40:	00a48533          	add	a0,s1,a0
10000e44:	fd050613          	addi	a2,a0,-48
10000e48:	0ff67913          	andi	s2,a2,255
10000e4c:	00140413          	addi	s0,s0,1
10000e50:	f75ff06f          	j	10000dc4 <printf+0xcc>
10000e54:	07500793          	li	a5,117
10000e58:	04f48463          	beq	s1,a5,10000ea0 <printf+0x1a8>
10000e5c:	07800793          	li	a5,120
10000e60:	f8f496e3          	bne	s1,a5,10000dec <printf+0xf4>
10000e64:	02012783          	lw	a5,32(sp)
10000e68:	02410513          	addi	a0,sp,36
10000e6c:	0007a583          	lw	a1,0(a5)
10000e70:	00478713          	addi	a4,a5,4
10000e74:	02e12023          	sw	a4,32(sp)
10000e78:	e31ff0ef          	jal	ra,10000ca8 <format_hex32>
10000e7c:	00050593          	mv	a1,a0
10000e80:	00098693          	mv	a3,s3
10000e84:	00090613          	mv	a2,s2
10000e88:	02410513          	addi	a0,sp,36
10000e8c:	d15ff0ef          	jal	ra,10000ba0 <print_reversed_with_padding>
10000e90:	00044783          	lbu	a5,0(s0)
10000e94:	ec0786e3          	beqz	a5,10000d60 <printf+0x68>
10000e98:	00140413          	addi	s0,s0,1
10000e9c:	ec5ff06f          	j	10000d60 <printf+0x68>
10000ea0:	02012783          	lw	a5,32(sp)
10000ea4:	00478713          	addi	a4,a5,4
10000ea8:	0007a583          	lw	a1,0(a5)
10000eac:	02e12023          	sw	a4,32(sp)
10000eb0:	02410513          	addi	a0,sp,36
10000eb4:	d65ff0ef          	jal	ra,10000c18 <format_dec32>
10000eb8:	fc5ff06f          	j	10000e7c <printf+0x184>
10000ebc:	02012783          	lw	a5,32(sp)
10000ec0:	00478713          	addi	a4,a5,4
10000ec4:	0007a583          	lw	a1,0(a5)
10000ec8:	02e12023          	sw	a4,32(sp)
10000ecc:	fe05d2e3          	bgez	a1,10000eb0 <printf+0x1b8>
10000ed0:	02d00513          	li	a0,45
10000ed4:	00b12623          	sw	a1,12(sp)
10000ed8:	0f0000ef          	jal	ra,10000fc8 <putchar>
10000edc:	00c12583          	lw	a1,12(sp)
10000ee0:	40b005b3          	neg	a1,a1
10000ee4:	fcdff06f          	j	10000eb0 <printf+0x1b8>
10000ee8:	02012783          	lw	a5,32(sp)
10000eec:	00478713          	addi	a4,a5,4
10000ef0:	0007c503          	lbu	a0,0(a5)
10000ef4:	02e12023          	sw	a4,32(sp)
10000ef8:	0d0000ef          	jal	ra,10000fc8 <putchar>
10000efc:	f95ff06f          	j	10000e90 <printf+0x198>
10000f00:	02012783          	lw	a5,32(sp)
10000f04:	00478713          	addi	a4,a5,4
10000f08:	0007a483          	lw	s1,0(a5)
10000f0c:	02e12023          	sw	a4,32(sp)
10000f10:	00049663          	bnez	s1,10000f1c <printf+0x224>
10000f14:	fffff497          	auipc	s1,0xfffff
10000f18:	34c48493          	addi	s1,s1,844 # 10000260 <hex_symbols+0x10>
10000f1c:	0004c503          	lbu	a0,0(s1)
10000f20:	f60508e3          	beqz	a0,10000e90 <printf+0x198>
10000f24:	00148493          	addi	s1,s1,1
10000f28:	0a0000ef          	jal	ra,10000fc8 <putchar>
10000f2c:	ff1ff06f          	j	10000f1c <printf+0x224>
10000f30:	01c10713          	addi	a4,sp,28
10000f34:	009707b3          	add	a5,a4,s1
10000f38:	0007c503          	lbu	a0,0(a5)
10000f3c:	08c000ef          	jal	ra,10000fc8 <putchar>
10000f40:	ed5ff06f          	j	10000e14 <printf+0x11c>

10000f44 <uart_init>:
10000f44:	030027b7          	lui	a5,0x3002
10000f48:	00078223          	sb	zero,4(a5) # 3002004 <status+0x1ffc>
10000f4c:	f8000713          	li	a4,-128
10000f50:	00e78623          	sb	a4,12(a5)
10000f54:	03400713          	li	a4,52
10000f58:	00e78023          	sb	a4,0(a5)
10000f5c:	00078223          	sb	zero,4(a5)
10000f60:	00300713          	li	a4,3
10000f64:	00e78623          	sb	a4,12(a5)
10000f68:	fc700713          	li	a4,-57
10000f6c:	00e78423          	sb	a4,8(a5)
10000f70:	00078823          	sb	zero,16(a5)
10000f74:	00008067          	ret

10000f78 <uart_write>:
10000f78:	03002737          	lui	a4,0x3002
10000f7c:	01474783          	lbu	a5,20(a4) # 3002014 <status+0x200c>
10000f80:	0207f793          	andi	a5,a5,32
10000f84:	fe078ce3          	beqz	a5,10000f7c <uart_write+0x4>
10000f88:	00a70023          	sb	a0,0(a4)
10000f8c:	00008067          	ret

10000f90 <uart_write_flush>:
10000f90:	03002737          	lui	a4,0x3002
10000f94:	01474783          	lbu	a5,20(a4) # 3002014 <status+0x200c>
10000f98:	0207f793          	andi	a5,a5,32
10000f9c:	fe078ce3          	beqz	a5,10000f94 <uart_write_flush+0x4>
10000fa0:	01474783          	lbu	a5,20(a4)
10000fa4:	0407f793          	andi	a5,a5,64
10000fa8:	fe0786e3          	beqz	a5,10000f94 <uart_write_flush+0x4>
10000fac:	00008067          	ret

10000fb0 <uart_read>:
10000fb0:	03002737          	lui	a4,0x3002
10000fb4:	01474783          	lbu	a5,20(a4) # 3002014 <status+0x200c>
10000fb8:	0017f793          	andi	a5,a5,1
10000fbc:	fe078ce3          	beqz	a5,10000fb4 <uart_read+0x4>
10000fc0:	00074503          	lbu	a0,0(a4)
10000fc4:	00008067          	ret

10000fc8 <putchar>:
10000fc8:	fb1ff06f          	j	10000f78 <uart_write>

Disassembly of section .Pulp_Chip.Info:

00000000 <.Pulp_Chip.Info>:
   0:	000a                	0xa
   2:	0000                	unimp
   4:	0038                	addi	a4,sp,8
   6:	0000                	unimp
   8:	0001                	nop
   a:	0000                	unimp
   c:	7550                	flw	fa2,44(a0)
   e:	706c                	flw	fa1,100(s0)
  10:	495f 666e 006f      	0x6f666e495f
  16:	70696863          	bltu	s2,t1,726 <status-0x2fff8e2>
  1a:	6e3d                	lui	t3,0xf
  1c:	20656e6f          	jal	t3,56222 <status-0x2fa9de6>
  20:	3d757063          	bleu	s7,a0,3e0 <status-0x2fffc28>
  24:	6f6e                	flw	ft10,216(sp)
  26:	656e                	flw	fa0,216(sp)
  28:	7020                	flw	fs0,96(s0)
  2a:	3d65                	jal	fffffee2 <pulp__FC+0xfffffee3>
  2c:	312d                	jal	fffffc56 <pulp__FC+0xfffffc57>
  2e:	6620                	flw	fs0,72(a2)
  30:	312d3d63          	p.bneimm	s10,-14,34a <status-0x2fffcbe>
  34:	6c20                	flw	fs0,88(s0)
  36:	3d32                	fld	fs10,296(sp)
  38:	312d                	jal	fffffc62 <pulp__FC+0xfffffc63>
  3a:	6c20                	flw	fs0,88(s0)
  3c:	6331                	lui	t1,0xc
  3e:	3d6c                	fld	fa1,248(a0)
  40:	312d                	jal	fffffc6a <pulp__FC+0xfffffc6b>
  42:	6c20                	flw	fs0,88(s0)
  44:	6631                	lui	a2,0xc
  46:	312d3d63          	p.bneimm	s10,-14,360 <status-0x2fffca8>
  4a:	0000                	unimp
	...
