
bin/fir_manual.elf:     file format elf32-littleriscv

Contents of section .text._start:
 10000000 97110000 93810180 17110000 130181ff  ................
 10000010 93000000 13020000 93020000 13030000  ................
 10000020 93030000 13040000 93040000 13050000  ................
 10000030 93050000 13060000 93060000 13070000  ................
 10000040 93070000 ef004066 970200f3 938202fc  ......@f........
 10000050 23a0a200 73005010                    #...s.P.        
Contents of section .misc:
 10000058 46495220 4d616e75 616c2031 362d5461  FIR Manual 16-Ta
 10000068 70202850 726f6772 616d2054 65727069  p (Program Terpi
 10000078 73616829 00000000 53656d75 61206b6f  sah)....Semua ko
 10000088 65666973 69656e20 6469696e 70757420  efisien diinput 
 10000098 6d616e75 616c2076 69612055 4152542e  manual via UART.
 100000a8 00000000 4d656e75 3a205b6b 5d207365  ....Menu: [k] se
 100000b8 7420636f 65666620 205b705d 20707269  t coeff  [p] pri
 100000c8 6e742063 6f656666 20205b78 5d20696e  nt coeff  [x] in
 100000d8 70757420 73616d70 6c652020 5b695d20  put sample  [i] 
 100000e8 696d7075 6c736520 74657374 20205b63  impulse test  [c
 100000f8 5d20636c 65617220 73746174 6520205b  ] clear state  [
 10000108 715d206b 656c7561 72000000 50696c69  q] keluar...Pili
 10000118 68206d65 6e753a20 00000000 4b656c75  h menu: ....Kelu
 10000128 61722064 61726920 46495220 4d616e75  ar dari FIR Manu
 10000138 616c2e00 496e7075 74203136 206b6f65  al..Input 16 koe
 10000148 66697369 656e2046 49522028 696e7431  fisien FIR (int1
 10000158 36293a00 685b2530 32645d20 3d200000  6):.h[%02d] = ..
 10000168 496e7075 74207469 64616b20 76616c69  Input tidak vali
 10000178 642c2075 6c616e67 692e0000 4b6f6566  d, ulangi...Koef
 10000188 69736965 6e207465 7273696d 70616e2e  isien tersimpan.
 10000198 20537461 74652046 49522064 692d7265   State FIR di-re
 100001a8 7365742e 00000000 4b6f6566 69736965  set.....Koefisie
 100001b8 6e204649 52207361 61742069 6e693a00  n FIR saat ini:.
 100001c8 685b2530 32645d20 3d202564 0d0a0000  h[%02d] = %d....
 100001d8 785b6e5d 203d2000 496e7075 74207361  x[n] = .Input sa
 100001e8 6d706c65 20746964 616b2076 616c6964  mple tidak valid
 100001f8 2e000000 783d2564 202d3e20 793d2564  ....x=%d -> y=%d
 10000208 20283078 25303878 290d0a00 4a756d6c   (0x%08x)...Juml
 10000218 61682073 616d7065 6c20696d 70756c73  ah sampel impuls
 10000228 65207465 7374203d 20000000 4a756d6c  e test = ...Juml
 10000238 61682073 616d7065 6c207469 64616b20  ah sampel tidak 
 10000248 76616c69 64202831 2e2e3132 38292e00  valid (1..128)..
 10000258 496d7075 6c736520 74657374 2064696d  Impulse test dim
 10000268 756c6169 20287830 3d312c20 73697361  ulai (x0=1, sisa
 10000278 6e796120 30290000 6e3d2530 32642078  nya 0)..n=%02d x
 10000288 3d256420 793d2564 0d0a0000 53746174  =%d y=%d....Stat
 10000298 65204649 52206469 2d726573 65742e00  e FIR di-reset..
 100002a8 4d656e75 20746964 616b2076 616c6964  Menu tidak valid
 100002b8 2e000000 30313233 34353637 38394142  ....0123456789AB
 100002c8 43444546 286e756c 6c290000 00000000  CDEF(null)......
 100002d8 00000000 00000000 00000000 00000000  ................
 100002e8 00000000 00000000 00000000 00000000  ................
 100002f8 00000000 00000000 00000000 00000000  ................
 10000308 00000000 00000000 00000000           ............    
Contents of section .text:
 10000314 2a860145 93f61500 91c23295 85810606  *..E......2.....
 10000324 f5f98280 00000000 634e0502 63c30504  ........cN..c...
 10000334 2e86aa85 7d5515c2 85466378 b6006356  ....}U...Fcx..cV
 10000344 c0000606 8606e36c b6fe0145 63e4c500  .......l...Ec...
 10000354 918d558d 85820582 f5fa8280 8682c93f  ..U............?
 10000364 2e858282 3305a040 63d70500 b305b040  ....3..@c......@
 10000374 c1b7b305 b0408682 653f3305 a0408282  .....@..e?3..@..
 10000384 868263c7 05006349 05005d37 2e858282  ..c...cI..]7....
 10000394 b305b040 e35b05fe 3305a040 513f3305  ...@.[..3..@Q?3.
 100003a4 b0408282 00000000 17070000 130787f4  .@..............
 100003b4 93070000 93060001 23100700 93871700  ........#.......
 100003c4 13072700 e39ad7fe 67800000 130101fe  ..'.....g.......
 100003d4 17070000 130707f2 23244101 232e1100  ........#$A.#...
 100003e4 232c8100 232a9100 23282101 23263101  #,..#*..#(!.#&1.
 100003f4 23225101 97070000 9387a7f1 130a0700  #"Q.............
 10000404 83d6e7ff 9387e7ff 2391d700 e39ae7fe  ........#.......
 10000414 97070000 2390a7ee 13090000 13040000  ....#...........
 10000424 93040000 970a0000 938acaea 93090002  ................
 10000434 b3872a01 33072a01 03950700 83150700  ..*.3.*.........
 10000444 13092900 eff0dfec 9357f541 3305a400  ..)......W.A3...
 10000454 33348500 b384f400 b3079400 93840700  34..............
 10000464 13040500 e31639fd 6342f004 63940700  ......9.cB..c...
 10000474 634e0502 1307f0ff 63c0e704 6396e700  cN......c...c...
 10000484 b7070080 636af502 8320c101 03248101  ....cj... ...$..
 10000494 83244101 03290101 8329c100 032a8100  .$A..)...)...*..
 100004a4 832a4100 13010102 67800000 37050080  .*A.....g...7...
 100004b4 1345f5ff 6ff05ffd 37050080 6ff0dffc  .E..o._.7...o...
 100004c4 130101ff 23248100 23261100 13040500  ....#$..#&......
 100004d4 03450400 631a0500 8320c100 03248100  .E..c.... ...$..
 100004e4 13010101 67800000 13041400 ef005010  ....g.........P.
 100004f4 6ff01ffe 130101ff 1305d000 23261100  o...........#&..
 10000504 ef00100f 8320c100 1305a000 13010101  ..... ..........
 10000514 6f00100e 130101fe 232e1100 232c8100  o.......#...#,..
 10000524 232a9100 23282101 23263101 23244101  #*..#(!.#&1.#$A.
 10000534 03440500 630a0408 9307d002 6300f406  .D..c.......c...
 10000544 130454fd 13341400 93091000 33048500  ..T..4......3...
 10000554 83470400 13050000 63820702 13890500  .G......c.......
 10000564 130a9000 83440400 63900404 93850900  .....D..c.......
 10000574 eff01fda 2320a900 13051000 8320c101  ....# ....... ..
 10000584 03248101 83244101 03290101 8329c100  .$...$A..)...)..
 10000594 032a8100 13010102 67800000 13041000  .*......g.......
 100005a4 9309f0ff 6ff09ffa 938404fd 93f7f40f  ....o...........
 100005b4 13041400 636afa00 9305a000 eff05fd5  ....cj........_.
 100005c4 3385a400 6ff01ffa 13050000 6ff01ffb  3...o.......o...
 100005d4 130101fd 23248102 23229102 232e3101  ....#$..#"..#.1.
 100005e4 232c4101 232a5101 23286101 23267101  #,A.#*Q.#(a.#&q.
 100005f4 23261102 23202103 93040500 13040000  #&..# !.........
 10000604 9309d000 130aa000 930a8000 130bf007  ................
 10000614 930be002 ef005001 63083505 63064505  ......P.c.5.c.E.
 10000624 63045501 63146503 63040402 13058000  c.U.c.e.c.......
 10000634 ef00007c 13050002 ef00807b 13058000  ...|.......{....
 10000644 1304f4ff ef00c07a 6ff0dffc e3c48bfc  .......zo.......
 10000654 13091400 33848400 2300a400 ef004079  ....3...#.....@y
 10000664 13040900 6ff01ffb b3848400 eff09fe8  ....o...........
 10000674 23800400 13050400 8320c102 03248102  #........ ...$..
 10000684 83244102 03290102 8329c101 032a8101  .$A..)...)...*..
 10000694 832a4101 032b0101 832bc100 13010103  .*A..+...+......
 100006a4 67800000 130101f5 2322910a 2326110a  g.......#"..#&..
 100006b4 2324810a 2320210b 232e3109 232c4109  #$..# !.#.1.#,A.
 100006c4 232a5109 23286109 23267109 23248109  #*Q.#(a.#&q.#$..
 100006d4 23229109 2320a109 97040000 938484bf  #"..# ..........
 100006e4 ef00c06d 13870400 93070000 93060001  ...m............
 100006f4 23100700 93871700 13072700 e39ad7fe  #.........'.....
 10000704 eff09fca eff01fdf 17050000 1305c594  ................
 10000714 eff01fdb eff01fde 17050000 13054596  ..............E.
 10000724 37890000 eff0dfd9 170a0000 130a0a98  7...............
 10000734 eff05fdc 970a0000 938aca9d 9309f9ff  .._.............
 10000744 eff05fdb 13050a00 eff09fd7 eff09fda  .._.............
 10000754 13850a00 eff0dfd6 13050102 eff05fe7  .............._.
 10000764 e350a0fe 83470102 13071005 93f6f70d  .P...G..........
 10000774 639ee600 17050000 1305c59a eff05fd4  c............._.
 10000784 eff05fd7 73005010 6ff0dfff 13078005  .._.s.P.o.......
 10000794 638ae70e 6360f708 13079004 638ae708  c...c`......c...
 100007a4 636cf700 13073004 6380e726 17050000  cl....0.c..&....
 100007b4 130585af 6f00801a 1307b004 638ee70e  ....o.......c...
 100007c4 13070005 e394e7fe eff0dfd2 17050000  ................
 100007d4 1305059e eff0dfce 138b0400 eff09fd1  ................
 100007e4 13040000 170c0000 130c0c9e 930b0001  ................
 100007f4 03160b00 93050400 13050c00 13041400  ................
 10000804 ef000037 130b2b00 e31474ff ef00c05f  ...7..+...t...._
 10000814 6ff01ff3 1307b006 6380e70a 636cf704  o.......c...cl..
 10000824 13073006 6382e71e 13079006 e390e7f8  ..0.c...........
 10000834 17050000 1305059e eff09fc8 13050105  ................
 10000844 eff01fd9 9305c101 13050105 232e0100  ............#...
 10000854 eff05fcc 630a0500 8327c101 1307f007  .._.c....'......
 10000864 9387f7ff 6376f714 17050000 1305859c  ....cv..........
 10000874 6f00c00e 13070007 e388e7f4 13078007  o...............
 10000884 e396e7f2 17050000 13050595 eff05fc3  .............._.
 10000894 13050105 eff0dfd3 9305c101 13050105  ................
 100008a4 232e0100 eff01fc7 6310050c 17050000  #.......c.......
 100008b4 13050593 6f00800a eff0dfc3 17050000  ....o...........
 100008c4 1305c587 eff0dfbf 138b0400 eff09fc2  ................
 100008d4 13040000 170c0000 130c4c88 970c0000  ..........L.....
 100008e4 938c8c88 378dffff 930b0001 93050400  ....7...........
 100008f4 13050c00 ef00c027 13050105 eff05fcd  .......'......_.
 10000904 9305c101 13050105 232e0100 eff09fc0  ........#.......
 10000914 631a0500 13850c00 eff09fba eff09fbd  c...............
 10000924 6ff0dffc 0327c101 93870900 635a2701  o....'......cZ'.
 10000934 b787ffff 6346a701 93170701 93d70741  ....cF.........A
 10000944 2310fb00 13041400 130b2b00 e31074fb  #.........+...t.
 10000954 eff09fa5 17050000 1305c582 eff05fb6  .............._.
 10000964 eff05fb9 6ff09fea 8327c101 93850900  .._.o....'......
 10000974 63dc2701 3787ffff b785ffff 63c6e700  c.'.7.......c...
 10000984 93950701 93d50541 13850500 2326b100  .......A....#&..
 10000994 eff0dfa3 8325c100 93060500 13060500  .....%..........
 100009a4 17050000 13058585 ef00801c 6ff01fe6  ............o...
 100009b4 eff09f9f 17050000 1305058a eff05fb0  .............._.
 100009c4 13040000 eff01fb3 170b0000 130b4b8b  ..............K.
 100009d4 8327c101 e35cf4e2 13361400 1376f60f  .'...\...6...v..
 100009e4 13050600 2326c100 eff05f9e 0326c100  ....#&...._..&..
 100009f4 93060500 93050400 13050b00 ef004017  ..............@.
 10000a04 13041400 6ff0dffc eff01f9a 17050000  ....o...........
 10000a14 13054588 6ff09ff4 130101fe 232c8100  ..E.o.......#,..
 10000a24 23282101 232e1100 232a9100 13090500  #(!.#...#*......
 10000a34 13840500 6364c402 9304f0ff 1304f4ff  ....cd..........
 10000a44 63109404 8320c101 03248101 83244101  c.... ...$...$A.
 10000a54 03290101 13010102 67800000 13850600  .)......g.......
 10000a64 2326c100 2324d100 ef00803d 0326c100  #&..#$.....=.&..
 10000a74 83268100 1306f6ff 1376f60f 6ff09ffb  .&.......v..o...
 10000a84 b3078900 03c50700 ef00803b 6ff01ffb  ...........;o...
 10000a94 130101fe 23263101 232e1100 232c8100  ....#&1.#...#,..
 10000aa4 232a9100 23282101 93090500 63820506  #*..#(!.....c...
 10000ab4 93840500 93070000 9305a000 13850400  ................
 10000ac4 13841700 3389f900 eff05f89 13050503  ....3....._.....
 10000ad4 2300a900 9305a000 13850400 eff05f85  #............._.
 10000ae4 1374f40f 93040500 93070400 e31605fc  .t..............
 10000af4 13050400 8320c101 03248101 83244101  ..... ...$...$A.
 10000b04 03290101 8329c100 13010102 67800000  .)...)......g...
 10000b14 93070003 2300f500 13041000 6ff05ffd  ....#.......o._.
 10000b24 63800504 13070000 17f6ffff 13060679  c..............y
 10000b34 93f6f500 b306d600 83c60600 93071700  ................
 10000b44 3307e500 93f7f70f 2300d700 93d54500  3.......#.....E.
 10000b54 13870700 e39e05fc 13850700 67800000  ............g...
 10000b64 93070003 2300f500 93071000 6ff0dffe  ....#.......o...
 10000b74 130101f8 232af106 93074106 232c8104  ....#*....A.#,..
 10000b84 23244105 23225105 23206105 232e7103  #$A.#"Q.# a.#.q.
 10000b94 232c8103 232e1104 232a9104 23282105  #,..#...#*..#(!.
 10000ba4 23263105 13040500 2322b106 2324c106  #&1.....#"..#$..
 10000bb4 2326d106 2328e106 232c0107 232e1107  #&..#(..#,..#...
 10000bc4 2320f102 130a5002 930a0003 930b9000  # ....P.........
 10000bd4 130b3007 130cf0ff 03450400 631a0502  ..0......E..c...
 10000be4 8320c105 03248105 83244105 03290105  . ...$...$A..)..
 10000bf4 8329c104 032a8104 832a4104 032b0104  .)...*...*A..+..
 10000c04 832bc103 032c8103 13010108 67800000  .+...,......g...
 10000c14 63104517 83471400 639a4701 13055002  c.E..G..c.G...P.
 10000c24 ef000022 13042400 6ff01ffb 638a5707  ..."..$.o...c.W.
 10000c34 13041400 93090002 13090000 83440400  .............D..
 10000c44 938704fd 93f7f70f 63f2fb06 63866413  ........c...c.d.
 10000c54 636e9b06 93073006 6384f410 93074006  cn....0.c.....@.
 10000c64 638af40c 13055002 ef00801d 63965901  c.....P.....c.Y.
 10000c74 13050003 ef00c01c 630e0900 93050900  ........c.......
 10000c84 1305c101 eff0dfe0 93040500 9384f4ff  ................
 10000c94 639c8411 03450400 63080506 6f00400d  c....E..c...o.@.
 10000ca4 13042400 93090003 6ff01ff9 13050900  ..$.....o.......
 10000cb4 9305a000 eff0cfe5 3385a400 130605fd  ........3.......
 10000cc4 1379f60f 13041400 6ff05ff7 93075007  .y......o._...P.
 10000cd4 6384f404 93078007 e396f4f8 83270102  c............'..
 10000ce4 13054102 83a50700 13874700 2320e102  ..A.......G.# ..
 10000cf4 eff01fe3 93050500 93860900 13060900  ................
 10000d04 13054102 eff05fd1 83470400 e38607ec  ..A..._..G......
 10000d14 13041400 6ff05fec 83270102 13874700  ....o._..'....G.
 10000d24 83a50700 2320e102 13054102 eff05fd6  ....# ....A..._.
 10000d34 6ff05ffc 83270102 13874700 83a50700  o._..'....G.....
 10000d44 2320e102 e3d205fe 1305d002 2326b100  # ..........#&..
 10000d54 ef00000f 8325c100 b305b040 6ff0dffc  .....%.....@o...
 10000d64 83270102 13874700 03c50700 2320e102  .'....G.....# ..
 10000d74 ef00000d 6ff05ff9 83270102 13874700  ....o._..'....G.
 10000d84 83a40700 2320e102 63960400 97f4ffff  ....# ..c.......
 10000d94 9384c453 03c50400 e30805f6 93841400  ...S............
 10000da4 ef00000a 6ff01fff 1307c101 b3079700  ....o...........
 10000db4 03c50700 ef00c008 6ff05fed b7270003  ........o._..'..
 10000dc4 23820700 130700f8 2386e700 13074003  #.......#.....@.
 10000dd4 2380e700 23820700 13073000 2386e700  #...#.....0.#...
 10000de4 130770fc 2384e700 23880700 67800000  ..p.#...#...g...
 10000df4 37270003 83474701 93f70702 e38c07fe  7'...GG.........
 10000e04 2300a700 67800000 37270003 83474701  #...g...7'...GG.
 10000e14 93f70702 e38c07fe 83474701 93f70704  .........GG.....
 10000e24 e38607fe 67800000 37270003 83474701  ....g...7'...GG.
 10000e34 93f71700 e38c07fe 03450700 67800000  .........E..g...
 10000e44 6ff01ffb                             o...            
Contents of section .Pulp_Chip.Info:
 0000 0a000000 38000000 01000000 50756c70  ....8.......Pulp
 0010 5f496e66 6f006368 69703d6e 6f6e6520  _Info.chip=none 
 0020 6370753d 6e6f6e65 2070653d 2d312066  cpu=none pe=-1 f
 0030 633d2d31 206c323d 2d31206c 31636c3d  c=-1 l2=-1 l1cl=
 0040 2d31206c 3166633d 2d310000 0000      -1 l1fc=-1....  
Contents of section .debug_line:
 0000 ac000000 02006600 00000101 fb0e0d00  ......f.........
 0010 01010101 00000001 0000012f 686f6d65  .........../home
 0020 2f646576 616e2f53 6f432f70 756c702d  /devan/SoC/pulp-
 0030 72697363 762d676e 752d746f 6f6c6368  riscv-gnu-toolch
 0040 61696e2f 72697363 762d6763 632f6c69  ain/riscv-gcc/li
 0050 62676363 2f636f6e 6669672f 72697363  bgcc/config/risc
 0060 7600006d 756c6469 332e5300 01000000  v..muldi3.S.....
 0070 00050214 03001003 23010301 09020001  ........#.......
 0080 03020902 00010301 09040001 03010902  ................
 0090 00010302 09020001 03010902 00010301  ................
 00a0 09020001 03010902 00010902 00000101  ................
 00b0 82010000 02006300 00000101 fb0e0d00  ......c.........
 00c0 01010101 00000001 0000012f 686f6d65  .........../home
 00d0 2f646576 616e2f53 6f432f70 756c702d  /devan/SoC/pulp-
 00e0 72697363 762d676e 752d746f 6f6c6368  riscv-gnu-toolch
 00f0 61696e2f 72697363 762d6763 632f6c69  ain/riscv-gcc/li
 0100 62676363 2f636f6e 6669672f 72697363  bgcc/config/risc
 0110 76000064 69762e53 00010000 00000502  v..div.S........
 0120 2c030010 03c50001 03010904 00010305  ,...............
 0130 09040001 03010902 00010301 09020001  ................
 0140 03010902 00010301 09020001 03010902  ................
 0150 00010302 09040001 03010904 00010301  ................
 0160 09020001 03010902 00010302 09040001  ................
 0170 03020902 00010301 09040001 03010902  ................
 0180 00010302 09020001 03010902 00010301  ................
 0190 09020001 03020902 00010305 09020001  ................
 01a0 03010902 00010301 09020001 03010902  ................
 01b0 00010304 09020001 03010904 00010301  ................
 01c0 09040001 03010904 00010302 09020001  ................
 01d0 03020904 00010301 09020001 03010902  ................
 01e0 00010301 09040001 03040902 00010301  ................
 01f0 09020001 03010904 00010302 09040001  ................
 0200 03010902 00010301 09020001 03020902  ................
 0210 00010301 09040001 03020904 00010301  ................
 0220 09040001 03010902 00010301 09040001  ................
 0230 09020000 0101                        ......          
Contents of section .debug_info:
 0000 d0000000 02000000 00000401 00000000  ................
 0010 14030010 28030010 2f686f6d 652f6465  ....(.../home/de
 0020 76616e2f 536f432f 70756c70 2d726973  van/SoC/pulp-ris
 0030 63762d67 6e752d74 6f6f6c63 6861696e  cv-gnu-toolchain
 0040 2f726973 63762d67 63632f6c 69626763  /riscv-gcc/libgc
 0050 632f636f 6e666967 2f726973 63762f6d  c/config/riscv/m
 0060 756c6469 332e5300 2f686f6d 652f6465  uldi3.S./home/de
 0070 76616e2f 536f432f 70756c70 2d726973  van/SoC/pulp-ris
 0080 63762d67 6e752d74 6f6f6c63 6861696e  cv-gnu-toolchain
 0090 2f627569 6c642d67 63632d6e 65776c69  /build-gcc-newli
 00a0 622d7374 61676532 2f726973 63763332  b-stage2/riscv32
 00b0 2d756e6b 6e6f776e 2d656c66 2f6c6962  -unknown-elf/lib
 00c0 67636300 474e5520 41532032 2e32382e  gcc.GNU AS 2.28.
 00d0 30000180 cd000000 02001400 00000401  0...............
 00e0 b0000000 2c030010 a8030010 2f686f6d  ....,......./hom
 00f0 652f6465 76616e2f 536f432f 70756c70  e/devan/SoC/pulp
 0100 2d726973 63762d67 6e752d74 6f6f6c63  -riscv-gnu-toolc
 0110 6861696e 2f726973 63762d67 63632f6c  hain/riscv-gcc/l
 0120 69626763 632f636f 6e666967 2f726973  ibgcc/config/ris
 0130 63762f64 69762e53 002f686f 6d652f64  cv/div.S./home/d
 0140 6576616e 2f536f43 2f70756c 702d7269  evan/SoC/pulp-ri
 0150 7363762d 676e752d 746f6f6c 63686169  scv-gnu-toolchai
 0160 6e2f6275 696c642d 6763632d 6e65776c  n/build-gcc-newl
 0170 69622d73 74616765 322f7269 73637633  ib-stage2/riscv3
 0180 322d756e 6b6e6f77 6e2d656c 662f6c69  2-unknown-elf/li
 0190 62676363 00474e55 20415320 322e3238  bgcc.GNU AS 2.28
 01a0 2e300001 80                          .0...           
Contents of section .debug_abbrev:
 0000 01110010 06110112 0103081b 08250813  .............%..
 0010 05000000 01110010 06110112 0103081b  ................
 0020 08250813 05000000                    .%......        
Contents of section .debug_aranges:
 0000 1c000000 02000000 00000400 00000000  ................
 0010 14030010 14000000 00000000 00000000  ................
 0020 1c000000 0200d400 00000400 00000000  ................
 0030 2c030010 7c000000 00000000 00000000  ,...|...........

Disassembly of section .text._start:

10000000 <_start>:
10000000:	00001197          	auipc	gp,0x1
10000004:	80018193          	addi	gp,gp,-2048 # 10000800 <__global_pointer>
10000008:	00001117          	auipc	sp,0x1
1000000c:	ff810113          	addi	sp,sp,-8 # 10001000 <__stack_pointer>
10000010:	00000093          	li	ra,0
10000014:	00000213          	li	tp,0
10000018:	00000293          	li	t0,0
1000001c:	00000313          	li	t1,0
10000020:	00000393          	li	t2,0
10000024:	00000413          	li	s0,0
10000028:	00000493          	li	s1,0
1000002c:	00000513          	li	a0,0
10000030:	00000593          	li	a1,0
10000034:	00000613          	li	a2,0
10000038:	00000693          	li	a3,0
1000003c:	00000713          	li	a4,0
10000040:	00000793          	li	a5,0
10000044:	664000ef          	jal	ra,100006a8 <main>

10000048 <_eoc>:
10000048:	f3000297          	auipc	t0,0xf3000
1000004c:	fc028293          	addi	t0,t0,-64 # 3000008 <status>
10000050:	00a2a023          	sw	a0,0(t0)
10000054:	10500073          	wfi

Disassembly of section .misc:

10000058 <hex_symbols-0x264>:
10000058:	4946                	lw	s2,80(sp)
1000005a:	2052                	fld	ft0,272(sp)
1000005c:	614d                	addi	sp,sp,176
1000005e:	756e                	flw	fa0,248(sp)
10000060:	6c61                	lui	s8,0x18
10000062:	3120                	fld	fs0,96(a0)
10000064:	2d36                	fld	fs10,328(sp)
10000066:	6154                	flw	fa3,4(a0)
10000068:	2070                	fld	fa2,192(s0)
1000006a:	5028                	lw	a0,96(s0)
1000006c:	6f72                	flw	ft10,28(sp)
1000006e:	6d617267          	0x6d617267
10000072:	5420                	lw	s0,104(s0)
10000074:	7265                	lui	tp,0xffff9
10000076:	6970                	flw	fa2,84(a0)
10000078:	29686173          	csrrsi	sp,0x296,16
1000007c:	0000                	unimp
1000007e:	0000                	unimp
10000080:	756d6553          	0x756d6553
10000084:	2061                	jal	1000010c <_eoc+0xc4>
10000086:	66656f6b          	0x66656f6b
1000008a:	7369                	lui	t1,0xffffa
1000008c:	6569                	lui	a0,0x1a
1000008e:	206e                	fld	ft0,216(sp)
10000090:	6964                	flw	fs1,84(a0)
10000092:	6e69                	lui	t3,0x1a
10000094:	7570                	flw	fa2,108(a0)
10000096:	2074                	fld	fa3,192(s0)
10000098:	616d                	addi	sp,sp,240
1000009a:	756e                	flw	fa0,248(sp)
1000009c:	6c61                	lui	s8,0x18
1000009e:	7620                	flw	fs0,104(a2)
100000a0:	6169                	addi	sp,sp,208
100000a2:	5520                	lw	s0,104(a0)
100000a4:	5241                	li	tp,-16
100000a6:	2e54                	fld	fa3,152(a2)
100000a8:	0000                	unimp
100000aa:	0000                	unimp
100000ac:	654d                	lui	a0,0x13
100000ae:	756e                	flw	fa0,248(sp)
100000b0:	203a                	fld	ft0,392(sp)
100000b2:	205d6b5b          	p.mac.zh.zl	s6,s10,t0,a6
100000b6:	20746573          	csrrsi	a0,0x207,8
100000ba:	66656f63          	bltu	a0,t1,10000738 <main+0x90>
100000be:	2066                	fld	ft0,88(sp)
100000c0:	5b20                	lw	s0,112(a4)
100000c2:	5d70                	lw	a2,124(a0)
100000c4:	7020                	flw	fs0,96(s0)
100000c6:	6972                	flw	fs2,28(sp)
100000c8:	746e                	flw	fs0,248(sp)
100000ca:	6320                	flw	fs0,64(a4)
100000cc:	6666656f          	jal	a0,10066732 <__stack_pointer+0x65732>
100000d0:	2020                	fld	fs0,64(s0)
100000d2:	205d785b          	p.mac.zh.zh	a6,s10,t0,a6
100000d6:	6e69                	lui	t3,0x1a
100000d8:	7570                	flw	fa2,108(a0)
100000da:	2074                	fld	fa3,192(s0)
100000dc:	706d6173          	csrrsi	sp,0x706,26
100000e0:	656c                	flw	fa1,76(a0)
100000e2:	2020                	fld	fs0,64(s0)
100000e4:	205d695b          	p.mac.zh.zl	s2,s10,t0,a6
100000e8:	6d69                	lui	s10,0x1a
100000ea:	7570                	flw	fa2,108(a0)
100000ec:	736c                	flw	fa1,100(a4)
100000ee:	2065                	jal	10000196 <_eoc+0x14e>
100000f0:	6574                	flw	fa3,76(a0)
100000f2:	20207473          	csrrci	s0,0x202,0
100000f6:	205d635b          	p.mac.zh.zl	t1,s10,t0,a6
100000fa:	61656c63          	bltu	a0,s6,10000712 <main+0x6a>
100000fe:	2072                	fld	ft0,280(sp)
10000100:	74617473          	csrrci	s0,0x746,2
10000104:	2065                	jal	100001ac <_eoc+0x164>
10000106:	5b20                	lw	s0,112(a4)
10000108:	5d71                	li	s10,-4
1000010a:	6b20                	flw	fs0,80(a4)
1000010c:	6c65                	lui	s8,0x19
1000010e:	6175                	addi	sp,sp,368
10000110:	0072                	0x72
10000112:	0000                	unimp
10000114:	6950                	flw	fa2,20(a0)
10000116:	696c                	flw	fa1,84(a0)
10000118:	2068                	fld	fa0,192(s0)
1000011a:	656d                	lui	a0,0x1b
1000011c:	756e                	flw	fa0,248(sp)
1000011e:	203a                	fld	ft0,392(sp)
10000120:	0000                	unimp
10000122:	0000                	unimp
10000124:	756c654b          	fnmsub.h	a0,s8,s6,a4,unknown
10000128:	7261                	lui	tp,0xffff8
1000012a:	6420                	flw	fs0,72(s0)
1000012c:	7261                	lui	tp,0xffff8
1000012e:	2069                	jal	100001b8 <_eoc+0x170>
10000130:	4946                	lw	s2,80(sp)
10000132:	2052                	fld	ft0,272(sp)
10000134:	614d                	addi	sp,sp,176
10000136:	756e                	flw	fa0,248(sp)
10000138:	6c61                	lui	s8,0x18
1000013a:	002e                	0x2e
1000013c:	6e49                	lui	t3,0x12
1000013e:	7570                	flw	fa2,108(a0)
10000140:	2074                	fld	fa3,192(s0)
10000142:	3631                	jal	ffffc4e <status+0xcfffc46>
10000144:	6b20                	flw	fs0,80(a4)
10000146:	6966656f          	jal	a0,100667dc <__stack_pointer+0x657dc>
1000014a:	6e656973          	csrrsi	s2,0x6e6,10
1000014e:	4620                	lw	s0,72(a2)
10000150:	5249                	li	tp,-14
10000152:	2820                	fld	fs0,80(s0)
10000154:	6e69                	lui	t3,0x1a
10000156:	3174                	fld	fa3,224(a0)
10000158:	2936                	fld	fs2,328(sp)
1000015a:	003a                	0x3a
1000015c:	5b68                	lw	a0,116(a4)
1000015e:	3025                	jal	ffff986 <status+0xcfff97e>
10000160:	6432                	flw	fs0,12(sp)
10000162:	205d                	jal	10000208 <_eoc+0x1c0>
10000164:	203d                	jal	10000192 <_eoc+0x14a>
10000166:	0000                	unimp
10000168:	6e49                	lui	t3,0x12
1000016a:	7570                	flw	fa2,108(a0)
1000016c:	2074                	fld	fa3,192(s0)
1000016e:	6974                	flw	fa3,84(a0)
10000170:	6164                	flw	fs1,68(a0)
10000172:	6176206b          	0x6176206b
10000176:	696c                	flw	fa1,84(a0)
10000178:	2c64                	fld	fs1,216(s0)
1000017a:	7520                	flw	fs0,104(a0)
1000017c:	616c                	flw	fa1,68(a0)
1000017e:	676e                	flw	fa4,216(sp)
10000180:	2e69                	jal	1000051a <parse_int32.constprop.0+0x2>
10000182:	0000                	unimp
10000184:	66656f4b          	0x66656f4b
10000188:	7369                	lui	t1,0xffffa
1000018a:	6569                	lui	a0,0x1a
1000018c:	206e                	fld	ft0,216(sp)
1000018e:	6574                	flw	fa3,76(a0)
10000190:	7372                	flw	ft6,60(sp)
10000192:	6d69                	lui	s10,0x1a
10000194:	6170                	flw	fa2,68(a0)
10000196:	2e6e                	fld	ft8,216(sp)
10000198:	5320                	lw	s0,96(a4)
1000019a:	6174                	flw	fa3,68(a0)
1000019c:	6574                	flw	fa3,76(a0)
1000019e:	4620                	lw	s0,72(a2)
100001a0:	5249                	li	tp,-14
100001a2:	6420                	flw	fs0,72(s0)
100001a4:	2d69                	jal	1000083e <__global_pointer+0x3e>
100001a6:	6572                	flw	fa0,28(sp)
100001a8:	2e746573          	csrrsi	a0,0x2e7,8
100001ac:	0000                	unimp
100001ae:	0000                	unimp
100001b0:	66656f4b          	0x66656f4b
100001b4:	7369                	lui	t1,0xffffa
100001b6:	6569                	lui	a0,0x1a
100001b8:	206e                	fld	ft0,216(sp)
100001ba:	4946                	lw	s2,80(sp)
100001bc:	2052                	fld	ft0,272(sp)
100001be:	74616173          	csrrsi	sp,0x746,2
100001c2:	6920                	flw	fs0,80(a0)
100001c4:	696e                	flw	fs2,216(sp)
100001c6:	003a                	0x3a
100001c8:	5b68                	lw	a0,116(a4)
100001ca:	3025                	jal	ffff9f2 <status+0xcfff9ea>
100001cc:	6432                	flw	fs0,12(sp)
100001ce:	205d                	jal	10000274 <_eoc+0x22c>
100001d0:	203d                	jal	100001fe <_eoc+0x1b6>
100001d2:	6425                	lui	s0,0x9
100001d4:	0a0d                	addi	s4,s4,3
100001d6:	0000                	unimp
100001d8:	5b78                	lw	a4,116(a4)
100001da:	5d6e                	lw	s10,248(sp)
100001dc:	3d20                	fld	fs0,120(a0)
100001de:	0020                	addi	s0,sp,8
100001e0:	6e49                	lui	t3,0x12
100001e2:	7570                	flw	fa2,108(a0)
100001e4:	2074                	fld	fa3,192(s0)
100001e6:	706d6173          	csrrsi	sp,0x706,26
100001ea:	656c                	flw	fa1,76(a0)
100001ec:	7420                	flw	fs0,104(s0)
100001ee:	6469                	lui	s0,0x1a
100001f0:	6b61                	lui	s6,0x18
100001f2:	7620                	flw	fs0,104(a2)
100001f4:	6c61                	lui	s8,0x18
100001f6:	6469                	lui	s0,0x1a
100001f8:	002e                	0x2e
100001fa:	0000                	unimp
100001fc:	3d78                	fld	fa4,248(a0)
100001fe:	6425                	lui	s0,0x9
10000200:	2d20                	fld	fs0,88(a0)
10000202:	203e                	fld	ft0,456(sp)
10000204:	3d79                	jal	100000a2 <_eoc+0x5a>
10000206:	6425                	lui	s0,0x9
10000208:	2820                	fld	fs0,80(s0)
1000020a:	7830                	flw	fa2,112(s0)
1000020c:	3025                	jal	ffffa34 <status+0xcfffa2c>
1000020e:	7838                	flw	fa4,112(s0)
10000210:	0d29                	addi	s10,s10,10
10000212:	000a                	0xa
10000214:	754a                	flw	fa0,176(sp)
10000216:	6c6d                	lui	s8,0x1b
10000218:	6861                	lui	a6,0x18
1000021a:	7320                	flw	fs0,96(a4)
1000021c:	6d61                	lui	s10,0x18
1000021e:	6570                	flw	fa2,76(a0)
10000220:	206c                	fld	fa1,192(s0)
10000222:	6d69                	lui	s10,0x1a
10000224:	7570                	flw	fa2,108(a0)
10000226:	736c                	flw	fa1,100(a4)
10000228:	2065                	jal	100002d0 <hex_symbols+0x14>
1000022a:	6574                	flw	fa3,76(a0)
1000022c:	3d207473          	csrrci	s0,0x3d2,0
10000230:	0020                	addi	s0,sp,8
10000232:	0000                	unimp
10000234:	754a                	flw	fa0,176(sp)
10000236:	6c6d                	lui	s8,0x1b
10000238:	6861                	lui	a6,0x18
1000023a:	7320                	flw	fs0,96(a4)
1000023c:	6d61                	lui	s10,0x18
1000023e:	6570                	flw	fa2,76(a0)
10000240:	206c                	fld	fa1,192(s0)
10000242:	6974                	flw	fa3,84(a0)
10000244:	6164                	flw	fs1,68(a0)
10000246:	6176206b          	0x6176206b
1000024a:	696c                	flw	fa1,84(a0)
1000024c:	2064                	fld	fs1,192(s0)
1000024e:	3128                	fld	fa0,96(a0)
10000250:	2e2e                	fld	ft8,200(sp)
10000252:	3231                	jal	ffffb5e <status+0xcfffb56>
10000254:	2938                	fld	fa4,80(a0)
10000256:	002e                	0x2e
10000258:	6d49                	lui	s10,0x12
1000025a:	7570                	flw	fa2,108(a0)
1000025c:	736c                	flw	fa1,100(a4)
1000025e:	2065                	jal	10000306 <fir_state+0x12>
10000260:	6574                	flw	fa3,76(a0)
10000262:	64207473          	csrrci	s0,0x642,0
10000266:	6d69                	lui	s10,0x1a
10000268:	6c75                	lui	s8,0x1d
1000026a:	6961                	lui	s2,0x18
1000026c:	2820                	fld	fs0,80(s0)
1000026e:	3078                	fld	fa4,224(s0)
10000270:	313d                	jal	ffffe9e <status+0xcfffe96>
10000272:	202c                	fld	fa1,64(s0)
10000274:	61736973          	csrrsi	s2,0x617,6
10000278:	796e                	flw	fs2,248(sp)
1000027a:	2061                	jal	10000302 <fir_state+0xe>
1000027c:	2930                	fld	fa2,80(a0)
1000027e:	0000                	unimp
10000280:	3d6e                	fld	fs10,248(sp)
10000282:	3025                	jal	ffffaaa <status+0xcfffaa2>
10000284:	6432                	flw	fs0,12(sp)
10000286:	7820                	flw	fs0,112(s0)
10000288:	253d                	jal	100008b6 <__global_pointer+0xb6>
1000028a:	2064                	fld	fs1,192(s0)
1000028c:	3d79                	jal	1000012a <_eoc+0xe2>
1000028e:	6425                	lui	s0,0x9
10000290:	0a0d                	addi	s4,s4,3
10000292:	0000                	unimp
10000294:	74617453          	0x74617453
10000298:	2065                	jal	10000340 <__udivsi3+0xc>
1000029a:	4946                	lw	s2,80(sp)
1000029c:	2052                	fld	ft0,272(sp)
1000029e:	6964                	flw	fs1,84(a0)
100002a0:	722d                	lui	tp,0xfffeb
100002a2:	7365                	lui	t1,0xffff9
100002a4:	7465                	lui	s0,0xffff9
100002a6:	002e                	0x2e
100002a8:	654d                	lui	a0,0x13
100002aa:	756e                	flw	fa0,248(sp)
100002ac:	7420                	flw	fs0,104(s0)
100002ae:	6469                	lui	s0,0x1a
100002b0:	6b61                	lui	s6,0x18
100002b2:	7620                	flw	fs0,104(a2)
100002b4:	6c61                	lui	s8,0x18
100002b6:	6469                	lui	s0,0x1a
100002b8:	002e                	0x2e
	...

100002bc <hex_symbols>:
100002bc:	3130                	fld	fa2,96(a0)
100002be:	3332                	fld	ft6,296(sp)
100002c0:	3534                	fld	fa3,104(a0)
100002c2:	3736                	fld	fa4,360(sp)
100002c4:	3938                	fld	fa4,112(a0)
100002c6:	4241                	li	tp,16
100002c8:	46454443          	0x46454443
100002cc:	6e28                	flw	fa0,88(a2)
100002ce:	6c75                	lui	s8,0x1d
100002d0:	296c                	fld	fa1,208(a0)
	...

100002d4 <fir_coeff>:
	...

100002f4 <fir_state>:
	...

Disassembly of section .text:

10000314 <__mulsi3>:
10000314:	862a                	mv	a2,a0
10000316:	4501                	li	a0,0
10000318:	0015f693          	andi	a3,a1,1
1000031c:	c291                	beqz	a3,10000320 <__mulsi3+0xc>
1000031e:	9532                	add	a0,a0,a2
10000320:	8185                	srli	a1,a1,0x1
10000322:	0606                	slli	a2,a2,0x1
10000324:	f9f5                	bnez	a1,10000318 <__mulsi3+0x4>
10000326:	8082                	ret
10000328:	0000                	unimp
	...

1000032c <__divsi3>:
1000032c:	02054e63          	bltz	a0,10000368 <__umodsi3+0x8>
10000330:	0405c363          	bltz	a1,10000376 <__umodsi3+0x16>

10000334 <__udivsi3>:
10000334:	862e                	mv	a2,a1
10000336:	85aa                	mv	a1,a0
10000338:	557d                	li	a0,-1
1000033a:	c215                	beqz	a2,1000035e <__udivsi3+0x2a>
1000033c:	4685                	li	a3,1
1000033e:	00b67863          	bleu	a1,a2,1000034e <__udivsi3+0x1a>
10000342:	00c05663          	blez	a2,1000034e <__udivsi3+0x1a>
10000346:	0606                	slli	a2,a2,0x1
10000348:	0686                	slli	a3,a3,0x1
1000034a:	feb66ce3          	bltu	a2,a1,10000342 <__udivsi3+0xe>
1000034e:	4501                	li	a0,0
10000350:	00c5e463          	bltu	a1,a2,10000358 <__udivsi3+0x24>
10000354:	8d91                	sub	a1,a1,a2
10000356:	8d55                	or	a0,a0,a3
10000358:	8285                	srli	a3,a3,0x1
1000035a:	8205                	srli	a2,a2,0x1
1000035c:	faf5                	bnez	a3,10000350 <__udivsi3+0x1c>
1000035e:	8082                	ret

10000360 <__umodsi3>:
10000360:	8286                	mv	t0,ra
10000362:	3fc9                	jal	10000334 <__udivsi3>
10000364:	852e                	mv	a0,a1
10000366:	8282                	jr	t0
10000368:	40a00533          	neg	a0,a0
1000036c:	0005d763          	bgez	a1,1000037a <__umodsi3+0x1a>
10000370:	40b005b3          	neg	a1,a1
10000374:	b7c1                	j	10000334 <__udivsi3>
10000376:	40b005b3          	neg	a1,a1
1000037a:	8286                	mv	t0,ra
1000037c:	3f65                	jal	10000334 <__udivsi3>
1000037e:	40a00533          	neg	a0,a0
10000382:	8282                	jr	t0

10000384 <__modsi3>:
10000384:	8286                	mv	t0,ra
10000386:	0005c763          	bltz	a1,10000394 <__modsi3+0x10>
1000038a:	00054963          	bltz	a0,1000039c <__modsi3+0x18>
1000038e:	375d                	jal	10000334 <__udivsi3>
10000390:	852e                	mv	a0,a1
10000392:	8282                	jr	t0
10000394:	40b005b3          	neg	a1,a1
10000398:	fe055be3          	bgez	a0,1000038e <__modsi3+0xa>
1000039c:	40a00533          	neg	a0,a0
100003a0:	3f51                	jal	10000334 <__udivsi3>
100003a2:	40b00533          	neg	a0,a1
100003a6:	8282                	jr	t0
100003a8:	0000                	unimp
	...

100003ac <fir_clear_state>:
100003ac:	00000717          	auipc	a4,0x0
100003b0:	f4870713          	addi	a4,a4,-184 # 100002f4 <fir_state>
100003b4:	00000793          	li	a5,0
100003b8:	01000693          	li	a3,16
100003bc:	00071023          	sh	zero,0(a4)
100003c0:	00178793          	addi	a5,a5,1
100003c4:	00270713          	addi	a4,a4,2
100003c8:	fed79ae3          	bne	a5,a3,100003bc <fir_clear_state+0x10>
100003cc:	00008067          	ret

100003d0 <fir_process_sample>:
100003d0:	fe010113          	addi	sp,sp,-32
100003d4:	00000717          	auipc	a4,0x0
100003d8:	f2070713          	addi	a4,a4,-224 # 100002f4 <fir_state>
100003dc:	01412423          	sw	s4,8(sp)
100003e0:	00112e23          	sw	ra,28(sp)
100003e4:	00812c23          	sw	s0,24(sp)
100003e8:	00912a23          	sw	s1,20(sp)
100003ec:	01212823          	sw	s2,16(sp)
100003f0:	01312623          	sw	s3,12(sp)
100003f4:	01512223          	sw	s5,4(sp)
100003f8:	00000797          	auipc	a5,0x0
100003fc:	f1a78793          	addi	a5,a5,-230 # 10000312 <fir_state+0x1e>
10000400:	00070a13          	mv	s4,a4
10000404:	ffe7d683          	lhu	a3,-2(a5)
10000408:	ffe78793          	addi	a5,a5,-2
1000040c:	00d79123          	sh	a3,2(a5)
10000410:	fee79ae3          	bne	a5,a4,10000404 <fir_process_sample+0x34>
10000414:	00000797          	auipc	a5,0x0
10000418:	eea79023          	sh	a0,-288(a5) # 100002f4 <fir_state>
1000041c:	00000913          	li	s2,0
10000420:	00000413          	li	s0,0
10000424:	00000493          	li	s1,0
10000428:	00000a97          	auipc	s5,0x0
1000042c:	eaca8a93          	addi	s5,s5,-340 # 100002d4 <fir_coeff>
10000430:	02000993          	li	s3,32
10000434:	012a87b3          	add	a5,s5,s2
10000438:	012a0733          	add	a4,s4,s2
1000043c:	00079503          	lh	a0,0(a5)
10000440:	00071583          	lh	a1,0(a4)
10000444:	00290913          	addi	s2,s2,2 # 18002 <status-0x2fe8006>
10000448:	ecdff0ef          	jal	ra,10000314 <__mulsi3>
1000044c:	41f55793          	srai	a5,a0,0x1f
10000450:	00a40533          	add	a0,s0,a0
10000454:	00853433          	sltu	s0,a0,s0
10000458:	00f484b3          	add	s1,s1,a5
1000045c:	009407b3          	add	a5,s0,s1
10000460:	00078493          	mv	s1,a5
10000464:	00050413          	mv	s0,a0
10000468:	fd3916e3          	bne	s2,s3,10000434 <fir_process_sample+0x64>
1000046c:	04f04263          	bgtz	a5,100004b0 <fir_process_sample+0xe0>
10000470:	00079463          	bnez	a5,10000478 <fir_process_sample+0xa8>
10000474:	02054e63          	bltz	a0,100004b0 <fir_process_sample+0xe0>
10000478:	fff00713          	li	a4,-1
1000047c:	04e7c063          	blt	a5,a4,100004bc <fir_process_sample+0xec>
10000480:	00e79663          	bne	a5,a4,1000048c <fir_process_sample+0xbc>
10000484:	800007b7          	lui	a5,0x80000
10000488:	02f56a63          	bltu	a0,a5,100004bc <fir_process_sample+0xec>
1000048c:	01c12083          	lw	ra,28(sp)
10000490:	01812403          	lw	s0,24(sp)
10000494:	01412483          	lw	s1,20(sp)
10000498:	01012903          	lw	s2,16(sp)
1000049c:	00c12983          	lw	s3,12(sp)
100004a0:	00812a03          	lw	s4,8(sp)
100004a4:	00412a83          	lw	s5,4(sp)
100004a8:	02010113          	addi	sp,sp,32
100004ac:	00008067          	ret
100004b0:	80000537          	lui	a0,0x80000
100004b4:	fff54513          	not	a0,a0
100004b8:	fd5ff06f          	j	1000048c <fir_process_sample+0xbc>
100004bc:	80000537          	lui	a0,0x80000
100004c0:	fcdff06f          	j	1000048c <fir_process_sample+0xbc>

100004c4 <put_str>:
100004c4:	ff010113          	addi	sp,sp,-16
100004c8:	00812423          	sw	s0,8(sp)
100004cc:	00112623          	sw	ra,12(sp)
100004d0:	00050413          	mv	s0,a0
100004d4:	00044503          	lbu	a0,0(s0) # 1a000 <status-0x2fe6008>
100004d8:	00051a63          	bnez	a0,100004ec <put_str+0x28>
100004dc:	00c12083          	lw	ra,12(sp)
100004e0:	00812403          	lw	s0,8(sp)
100004e4:	01010113          	addi	sp,sp,16
100004e8:	00008067          	ret
100004ec:	00140413          	addi	s0,s0,1
100004f0:	105000ef          	jal	ra,10000df4 <uart_write>
100004f4:	fe1ff06f          	j	100004d4 <put_str+0x10>

100004f8 <put_crlf>:
100004f8:	ff010113          	addi	sp,sp,-16
100004fc:	00d00513          	li	a0,13
10000500:	00112623          	sw	ra,12(sp)
10000504:	0f1000ef          	jal	ra,10000df4 <uart_write>
10000508:	00c12083          	lw	ra,12(sp)
1000050c:	00a00513          	li	a0,10
10000510:	01010113          	addi	sp,sp,16
10000514:	0e10006f          	j	10000df4 <uart_write>

10000518 <parse_int32.constprop.0>:
10000518:	fe010113          	addi	sp,sp,-32
1000051c:	00112e23          	sw	ra,28(sp)
10000520:	00812c23          	sw	s0,24(sp)
10000524:	00912a23          	sw	s1,20(sp)
10000528:	01212823          	sw	s2,16(sp)
1000052c:	01312623          	sw	s3,12(sp)
10000530:	01412423          	sw	s4,8(sp)
10000534:	00054403          	lbu	s0,0(a0) # 80000000 <pulp__FC+0x80000001>
10000538:	08040a63          	beqz	s0,100005cc <parse_int32.constprop.0+0xb4>
1000053c:	02d00793          	li	a5,45
10000540:	06f40063          	beq	s0,a5,100005a0 <parse_int32.constprop.0+0x88>
10000544:	fd540413          	addi	s0,s0,-43
10000548:	00143413          	seqz	s0,s0
1000054c:	00100993          	li	s3,1
10000550:	00850433          	add	s0,a0,s0
10000554:	00044783          	lbu	a5,0(s0)
10000558:	00000513          	li	a0,0
1000055c:	02078263          	beqz	a5,10000580 <parse_int32.constprop.0+0x68>
10000560:	00058913          	mv	s2,a1
10000564:	00900a13          	li	s4,9
10000568:	00044483          	lbu	s1,0(s0)
1000056c:	04049063          	bnez	s1,100005ac <parse_int32.constprop.0+0x94>
10000570:	00098593          	mv	a1,s3
10000574:	da1ff0ef          	jal	ra,10000314 <__mulsi3>
10000578:	00a92023          	sw	a0,0(s2)
1000057c:	00100513          	li	a0,1
10000580:	01c12083          	lw	ra,28(sp)
10000584:	01812403          	lw	s0,24(sp)
10000588:	01412483          	lw	s1,20(sp)
1000058c:	01012903          	lw	s2,16(sp)
10000590:	00c12983          	lw	s3,12(sp)
10000594:	00812a03          	lw	s4,8(sp)
10000598:	02010113          	addi	sp,sp,32
1000059c:	00008067          	ret
100005a0:	00100413          	li	s0,1
100005a4:	fff00993          	li	s3,-1
100005a8:	fa9ff06f          	j	10000550 <parse_int32.constprop.0+0x38>
100005ac:	fd048493          	addi	s1,s1,-48
100005b0:	0ff4f793          	andi	a5,s1,255
100005b4:	00140413          	addi	s0,s0,1
100005b8:	00fa6a63          	bltu	s4,a5,100005cc <parse_int32.constprop.0+0xb4>
100005bc:	00a00593          	li	a1,10
100005c0:	d55ff0ef          	jal	ra,10000314 <__mulsi3>
100005c4:	00a48533          	add	a0,s1,a0
100005c8:	fa1ff06f          	j	10000568 <parse_int32.constprop.0+0x50>
100005cc:	00000513          	li	a0,0
100005d0:	fb1ff06f          	j	10000580 <parse_int32.constprop.0+0x68>

100005d4 <read_line.constprop.1>:
100005d4:	fd010113          	addi	sp,sp,-48
100005d8:	02812423          	sw	s0,40(sp)
100005dc:	02912223          	sw	s1,36(sp)
100005e0:	01312e23          	sw	s3,28(sp)
100005e4:	01412c23          	sw	s4,24(sp)
100005e8:	01512a23          	sw	s5,20(sp)
100005ec:	01612823          	sw	s6,16(sp)
100005f0:	01712623          	sw	s7,12(sp)
100005f4:	02112623          	sw	ra,44(sp)
100005f8:	03212023          	sw	s2,32(sp)
100005fc:	00050493          	mv	s1,a0
10000600:	00000413          	li	s0,0
10000604:	00d00993          	li	s3,13
10000608:	00a00a13          	li	s4,10
1000060c:	00800a93          	li	s5,8
10000610:	07f00b13          	li	s6,127
10000614:	02e00b93          	li	s7,46
10000618:	015000ef          	jal	ra,10000e2c <uart_read>
1000061c:	05350863          	beq	a0,s3,1000066c <read_line.constprop.1+0x98>
10000620:	05450663          	beq	a0,s4,1000066c <read_line.constprop.1+0x98>
10000624:	01550463          	beq	a0,s5,1000062c <read_line.constprop.1+0x58>
10000628:	03651463          	bne	a0,s6,10000650 <read_line.constprop.1+0x7c>
1000062c:	02040463          	beqz	s0,10000654 <read_line.constprop.1+0x80>
10000630:	00800513          	li	a0,8
10000634:	7c0000ef          	jal	ra,10000df4 <uart_write>
10000638:	02000513          	li	a0,32
1000063c:	7b8000ef          	jal	ra,10000df4 <uart_write>
10000640:	00800513          	li	a0,8
10000644:	fff40413          	addi	s0,s0,-1
10000648:	7ac000ef          	jal	ra,10000df4 <uart_write>
1000064c:	fcdff06f          	j	10000618 <read_line.constprop.1+0x44>
10000650:	fc8bc4e3          	blt	s7,s0,10000618 <read_line.constprop.1+0x44>
10000654:	00140913          	addi	s2,s0,1
10000658:	00848433          	add	s0,s1,s0
1000065c:	00a40023          	sb	a0,0(s0)
10000660:	794000ef          	jal	ra,10000df4 <uart_write>
10000664:	00090413          	mv	s0,s2
10000668:	fb1ff06f          	j	10000618 <read_line.constprop.1+0x44>
1000066c:	008484b3          	add	s1,s1,s0
10000670:	e89ff0ef          	jal	ra,100004f8 <put_crlf>
10000674:	00048023          	sb	zero,0(s1)
10000678:	00040513          	mv	a0,s0
1000067c:	02c12083          	lw	ra,44(sp)
10000680:	02812403          	lw	s0,40(sp)
10000684:	02412483          	lw	s1,36(sp)
10000688:	02012903          	lw	s2,32(sp)
1000068c:	01c12983          	lw	s3,28(sp)
10000690:	01812a03          	lw	s4,24(sp)
10000694:	01412a83          	lw	s5,20(sp)
10000698:	01012b03          	lw	s6,16(sp)
1000069c:	00c12b83          	lw	s7,12(sp)
100006a0:	03010113          	addi	sp,sp,48
100006a4:	00008067          	ret

100006a8 <main>:
100006a8:	f5010113          	addi	sp,sp,-176
100006ac:	0a912223          	sw	s1,164(sp)
100006b0:	0a112623          	sw	ra,172(sp)
100006b4:	0a812423          	sw	s0,168(sp)
100006b8:	0b212023          	sw	s2,160(sp)
100006bc:	09312e23          	sw	s3,156(sp)
100006c0:	09412c23          	sw	s4,152(sp)
100006c4:	09512a23          	sw	s5,148(sp)
100006c8:	09612823          	sw	s6,144(sp)
100006cc:	09712623          	sw	s7,140(sp)
100006d0:	09812423          	sw	s8,136(sp)
100006d4:	09912223          	sw	s9,132(sp)
100006d8:	09a12023          	sw	s10,128(sp)
100006dc:	00000497          	auipc	s1,0x0
100006e0:	bf848493          	addi	s1,s1,-1032 # 100002d4 <fir_coeff>
100006e4:	6dc000ef          	jal	ra,10000dc0 <uart_init>
100006e8:	00048713          	mv	a4,s1
100006ec:	00000793          	li	a5,0
100006f0:	01000693          	li	a3,16
100006f4:	00071023          	sh	zero,0(a4)
100006f8:	00178793          	addi	a5,a5,1 # 80000001 <pulp__FC+0x80000002>
100006fc:	00270713          	addi	a4,a4,2
10000700:	fed79ae3          	bne	a5,a3,100006f4 <main+0x4c>
10000704:	ca9ff0ef          	jal	ra,100003ac <fir_clear_state>
10000708:	df1ff0ef          	jal	ra,100004f8 <put_crlf>
1000070c:	00000517          	auipc	a0,0x0
10000710:	94c50513          	addi	a0,a0,-1716 # 10000058 <_eoc+0x10>
10000714:	db1ff0ef          	jal	ra,100004c4 <put_str>
10000718:	de1ff0ef          	jal	ra,100004f8 <put_crlf>
1000071c:	00000517          	auipc	a0,0x0
10000720:	96450513          	addi	a0,a0,-1692 # 10000080 <_eoc+0x38>
10000724:	00008937          	lui	s2,0x8
10000728:	d9dff0ef          	jal	ra,100004c4 <put_str>
1000072c:	00000a17          	auipc	s4,0x0
10000730:	980a0a13          	addi	s4,s4,-1664 # 100000ac <_eoc+0x64>
10000734:	dc5ff0ef          	jal	ra,100004f8 <put_crlf>
10000738:	00000a97          	auipc	s5,0x0
1000073c:	9dca8a93          	addi	s5,s5,-1572 # 10000114 <_eoc+0xcc>
10000740:	fff90993          	addi	s3,s2,-1 # 7fff <status-0x2ff8009>
10000744:	db5ff0ef          	jal	ra,100004f8 <put_crlf>
10000748:	000a0513          	mv	a0,s4
1000074c:	d79ff0ef          	jal	ra,100004c4 <put_str>
10000750:	da9ff0ef          	jal	ra,100004f8 <put_crlf>
10000754:	000a8513          	mv	a0,s5
10000758:	d6dff0ef          	jal	ra,100004c4 <put_str>
1000075c:	02010513          	addi	a0,sp,32
10000760:	e75ff0ef          	jal	ra,100005d4 <read_line.constprop.1>
10000764:	fea050e3          	blez	a0,10000744 <main+0x9c>
10000768:	02014783          	lbu	a5,32(sp)
1000076c:	05100713          	li	a4,81
10000770:	0df7f693          	andi	a3,a5,223
10000774:	00e69e63          	bne	a3,a4,10000790 <main+0xe8>
10000778:	00000517          	auipc	a0,0x0
1000077c:	9ac50513          	addi	a0,a0,-1620 # 10000124 <_eoc+0xdc>
10000780:	d45ff0ef          	jal	ra,100004c4 <put_str>
10000784:	d75ff0ef          	jal	ra,100004f8 <put_crlf>
10000788:	10500073          	wfi
1000078c:	ffdff06f          	j	10000788 <main+0xe0>
10000790:	05800713          	li	a4,88
10000794:	0ee78a63          	beq	a5,a4,10000888 <__global_pointer+0x88>
10000798:	08f76063          	bltu	a4,a5,10000818 <__global_pointer+0x18>
1000079c:	04900713          	li	a4,73
100007a0:	08e78a63          	beq	a5,a4,10000834 <__global_pointer+0x34>
100007a4:	00f76c63          	bltu	a4,a5,100007bc <main+0x114>
100007a8:	04300713          	li	a4,67
100007ac:	26e78063          	beq	a5,a4,10000a0c <__global_pointer+0x20c>
100007b0:	00000517          	auipc	a0,0x0
100007b4:	af850513          	addi	a0,a0,-1288 # 100002a8 <_eoc+0x260>
100007b8:	1a80006f          	j	10000960 <__global_pointer+0x160>
100007bc:	04b00713          	li	a4,75
100007c0:	0ee78e63          	beq	a5,a4,100008bc <__global_pointer+0xbc>
100007c4:	05000713          	li	a4,80
100007c8:	fee794e3          	bne	a5,a4,100007b0 <main+0x108>
100007cc:	d2dff0ef          	jal	ra,100004f8 <put_crlf>
100007d0:	00000517          	auipc	a0,0x0
100007d4:	9e050513          	addi	a0,a0,-1568 # 100001b0 <_eoc+0x168>
100007d8:	cedff0ef          	jal	ra,100004c4 <put_str>
100007dc:	00048b13          	mv	s6,s1
100007e0:	d19ff0ef          	jal	ra,100004f8 <put_crlf>
100007e4:	00000413          	li	s0,0
100007e8:	00000c17          	auipc	s8,0x0
100007ec:	9e0c0c13          	addi	s8,s8,-1568 # 100001c8 <_eoc+0x180>
100007f0:	01000b93          	li	s7,16
100007f4:	000b1603          	lh	a2,0(s6) # 18000 <status-0x2fe8008>
100007f8:	00040593          	mv	a1,s0
100007fc:	000c0513          	mv	a0,s8
10000800:	00140413          	addi	s0,s0,1
10000804:	370000ef          	jal	ra,10000b74 <printf>
10000808:	002b0b13          	addi	s6,s6,2
1000080c:	ff7414e3          	bne	s0,s7,100007f4 <main+0x14c>
10000810:	5fc000ef          	jal	ra,10000e0c <uart_write_flush>
10000814:	f31ff06f          	j	10000744 <main+0x9c>
10000818:	06b00713          	li	a4,107
1000081c:	0ae78063          	beq	a5,a4,100008bc <__global_pointer+0xbc>
10000820:	04f76c63          	bltu	a4,a5,10000878 <__global_pointer+0x78>
10000824:	06300713          	li	a4,99
10000828:	1ee78263          	beq	a5,a4,10000a0c <__global_pointer+0x20c>
1000082c:	06900713          	li	a4,105
10000830:	f8e790e3          	bne	a5,a4,100007b0 <main+0x108>
10000834:	00000517          	auipc	a0,0x0
10000838:	9e050513          	addi	a0,a0,-1568 # 10000214 <_eoc+0x1cc>
1000083c:	c89ff0ef          	jal	ra,100004c4 <put_str>
10000840:	05010513          	addi	a0,sp,80
10000844:	d91ff0ef          	jal	ra,100005d4 <read_line.constprop.1>
10000848:	01c10593          	addi	a1,sp,28
1000084c:	05010513          	addi	a0,sp,80
10000850:	00012e23          	sw	zero,28(sp)
10000854:	cc5ff0ef          	jal	ra,10000518 <parse_int32.constprop.0>
10000858:	00050a63          	beqz	a0,1000086c <__global_pointer+0x6c>
1000085c:	01c12783          	lw	a5,28(sp)
10000860:	07f00713          	li	a4,127
10000864:	fff78793          	addi	a5,a5,-1
10000868:	14f77663          	bleu	a5,a4,100009b4 <__global_pointer+0x1b4>
1000086c:	00000517          	auipc	a0,0x0
10000870:	9c850513          	addi	a0,a0,-1592 # 10000234 <_eoc+0x1ec>
10000874:	0ec0006f          	j	10000960 <__global_pointer+0x160>
10000878:	07000713          	li	a4,112
1000087c:	f4e788e3          	beq	a5,a4,100007cc <main+0x124>
10000880:	07800713          	li	a4,120
10000884:	f2e796e3          	bne	a5,a4,100007b0 <main+0x108>
10000888:	00000517          	auipc	a0,0x0
1000088c:	95050513          	addi	a0,a0,-1712 # 100001d8 <_eoc+0x190>
10000890:	c35ff0ef          	jal	ra,100004c4 <put_str>
10000894:	05010513          	addi	a0,sp,80
10000898:	d3dff0ef          	jal	ra,100005d4 <read_line.constprop.1>
1000089c:	01c10593          	addi	a1,sp,28
100008a0:	05010513          	addi	a0,sp,80
100008a4:	00012e23          	sw	zero,28(sp)
100008a8:	c71ff0ef          	jal	ra,10000518 <parse_int32.constprop.0>
100008ac:	0c051063          	bnez	a0,1000096c <__global_pointer+0x16c>
100008b0:	00000517          	auipc	a0,0x0
100008b4:	93050513          	addi	a0,a0,-1744 # 100001e0 <_eoc+0x198>
100008b8:	0a80006f          	j	10000960 <__global_pointer+0x160>
100008bc:	c3dff0ef          	jal	ra,100004f8 <put_crlf>
100008c0:	00000517          	auipc	a0,0x0
100008c4:	87c50513          	addi	a0,a0,-1924 # 1000013c <_eoc+0xf4>
100008c8:	bfdff0ef          	jal	ra,100004c4 <put_str>
100008cc:	00048b13          	mv	s6,s1
100008d0:	c29ff0ef          	jal	ra,100004f8 <put_crlf>
100008d4:	00000413          	li	s0,0
100008d8:	00000c17          	auipc	s8,0x0
100008dc:	884c0c13          	addi	s8,s8,-1916 # 1000015c <_eoc+0x114>
100008e0:	00000c97          	auipc	s9,0x0
100008e4:	888c8c93          	addi	s9,s9,-1912 # 10000168 <_eoc+0x120>
100008e8:	ffff8d37          	lui	s10,0xffff8
100008ec:	01000b93          	li	s7,16
100008f0:	00040593          	mv	a1,s0
100008f4:	000c0513          	mv	a0,s8
100008f8:	27c000ef          	jal	ra,10000b74 <printf>
100008fc:	05010513          	addi	a0,sp,80
10000900:	cd5ff0ef          	jal	ra,100005d4 <read_line.constprop.1>
10000904:	01c10593          	addi	a1,sp,28
10000908:	05010513          	addi	a0,sp,80
1000090c:	00012e23          	sw	zero,28(sp)
10000910:	c09ff0ef          	jal	ra,10000518 <parse_int32.constprop.0>
10000914:	00051a63          	bnez	a0,10000928 <__global_pointer+0x128>
10000918:	000c8513          	mv	a0,s9
1000091c:	ba9ff0ef          	jal	ra,100004c4 <put_str>
10000920:	bd9ff0ef          	jal	ra,100004f8 <put_crlf>
10000924:	fcdff06f          	j	100008f0 <__global_pointer+0xf0>
10000928:	01c12703          	lw	a4,28(sp)
1000092c:	00098793          	mv	a5,s3
10000930:	01275a63          	ble	s2,a4,10000944 <__global_pointer+0x144>
10000934:	ffff87b7          	lui	a5,0xffff8
10000938:	01a74663          	blt	a4,s10,10000944 <__global_pointer+0x144>
1000093c:	01071793          	slli	a5,a4,0x10
10000940:	4107d793          	srai	a5,a5,0x10
10000944:	00fb1023          	sh	a5,0(s6)
10000948:	00140413          	addi	s0,s0,1
1000094c:	002b0b13          	addi	s6,s6,2
10000950:	fb7410e3          	bne	s0,s7,100008f0 <__global_pointer+0xf0>
10000954:	a59ff0ef          	jal	ra,100003ac <fir_clear_state>
10000958:	00000517          	auipc	a0,0x0
1000095c:	82c50513          	addi	a0,a0,-2004 # 10000184 <_eoc+0x13c>
10000960:	b65ff0ef          	jal	ra,100004c4 <put_str>
10000964:	b95ff0ef          	jal	ra,100004f8 <put_crlf>
10000968:	ea9ff06f          	j	10000810 <__global_pointer+0x10>
1000096c:	01c12783          	lw	a5,28(sp)
10000970:	00098593          	mv	a1,s3
10000974:	0127dc63          	ble	s2,a5,1000098c <__global_pointer+0x18c>
10000978:	ffff8737          	lui	a4,0xffff8
1000097c:	ffff85b7          	lui	a1,0xffff8
10000980:	00e7c663          	blt	a5,a4,1000098c <__global_pointer+0x18c>
10000984:	01079593          	slli	a1,a5,0x10
10000988:	4105d593          	srai	a1,a1,0x10
1000098c:	00058513          	mv	a0,a1
10000990:	00b12623          	sw	a1,12(sp)
10000994:	a3dff0ef          	jal	ra,100003d0 <fir_process_sample>
10000998:	00c12583          	lw	a1,12(sp)
1000099c:	00050693          	mv	a3,a0
100009a0:	00050613          	mv	a2,a0
100009a4:	00000517          	auipc	a0,0x0
100009a8:	85850513          	addi	a0,a0,-1960 # 100001fc <_eoc+0x1b4>
100009ac:	1c8000ef          	jal	ra,10000b74 <printf>
100009b0:	e61ff06f          	j	10000810 <__global_pointer+0x10>
100009b4:	9f9ff0ef          	jal	ra,100003ac <fir_clear_state>
100009b8:	00000517          	auipc	a0,0x0
100009bc:	8a050513          	addi	a0,a0,-1888 # 10000258 <_eoc+0x210>
100009c0:	b05ff0ef          	jal	ra,100004c4 <put_str>
100009c4:	00000413          	li	s0,0
100009c8:	b31ff0ef          	jal	ra,100004f8 <put_crlf>
100009cc:	00000b17          	auipc	s6,0x0
100009d0:	8b4b0b13          	addi	s6,s6,-1868 # 10000280 <_eoc+0x238>
100009d4:	01c12783          	lw	a5,28(sp)
100009d8:	e2f45ce3          	ble	a5,s0,10000810 <__global_pointer+0x10>
100009dc:	00143613          	seqz	a2,s0
100009e0:	0ff67613          	andi	a2,a2,255
100009e4:	00060513          	mv	a0,a2
100009e8:	00c12623          	sw	a2,12(sp)
100009ec:	9e5ff0ef          	jal	ra,100003d0 <fir_process_sample>
100009f0:	00c12603          	lw	a2,12(sp)
100009f4:	00050693          	mv	a3,a0
100009f8:	00040593          	mv	a1,s0
100009fc:	000b0513          	mv	a0,s6
10000a00:	174000ef          	jal	ra,10000b74 <printf>
10000a04:	00140413          	addi	s0,s0,1
10000a08:	fcdff06f          	j	100009d4 <__global_pointer+0x1d4>
10000a0c:	9a1ff0ef          	jal	ra,100003ac <fir_clear_state>
10000a10:	00000517          	auipc	a0,0x0
10000a14:	88450513          	addi	a0,a0,-1916 # 10000294 <_eoc+0x24c>
10000a18:	f49ff06f          	j	10000960 <__global_pointer+0x160>

10000a1c <print_reversed_with_padding>:
10000a1c:	fe010113          	addi	sp,sp,-32
10000a20:	00812c23          	sw	s0,24(sp)
10000a24:	01212823          	sw	s2,16(sp)
10000a28:	00112e23          	sw	ra,28(sp)
10000a2c:	00912a23          	sw	s1,20(sp)
10000a30:	00050913          	mv	s2,a0
10000a34:	00058413          	mv	s0,a1
10000a38:	02c46463          	bltu	s0,a2,10000a60 <print_reversed_with_padding+0x44>
10000a3c:	fff00493          	li	s1,-1
10000a40:	fff40413          	addi	s0,s0,-1
10000a44:	04941063          	bne	s0,s1,10000a84 <print_reversed_with_padding+0x68>
10000a48:	01c12083          	lw	ra,28(sp)
10000a4c:	01812403          	lw	s0,24(sp)
10000a50:	01412483          	lw	s1,20(sp)
10000a54:	01012903          	lw	s2,16(sp)
10000a58:	02010113          	addi	sp,sp,32
10000a5c:	00008067          	ret
10000a60:	00068513          	mv	a0,a3
10000a64:	00c12623          	sw	a2,12(sp)
10000a68:	00d12423          	sw	a3,8(sp)
10000a6c:	3d8000ef          	jal	ra,10000e44 <putchar>
10000a70:	00c12603          	lw	a2,12(sp)
10000a74:	00812683          	lw	a3,8(sp)
10000a78:	fff60613          	addi	a2,a2,-1
10000a7c:	0ff67613          	andi	a2,a2,255
10000a80:	fb9ff06f          	j	10000a38 <print_reversed_with_padding+0x1c>
10000a84:	008907b3          	add	a5,s2,s0
10000a88:	0007c503          	lbu	a0,0(a5) # ffff8000 <pulp__FC+0xffff8001>
10000a8c:	3b8000ef          	jal	ra,10000e44 <putchar>
10000a90:	fb1ff06f          	j	10000a40 <print_reversed_with_padding+0x24>

10000a94 <format_dec32>:
10000a94:	fe010113          	addi	sp,sp,-32
10000a98:	01312623          	sw	s3,12(sp)
10000a9c:	00112e23          	sw	ra,28(sp)
10000aa0:	00812c23          	sw	s0,24(sp)
10000aa4:	00912a23          	sw	s1,20(sp)
10000aa8:	01212823          	sw	s2,16(sp)
10000aac:	00050993          	mv	s3,a0
10000ab0:	06058263          	beqz	a1,10000b14 <format_dec32+0x80>
10000ab4:	00058493          	mv	s1,a1
10000ab8:	00000793          	li	a5,0
10000abc:	00a00593          	li	a1,10
10000ac0:	00048513          	mv	a0,s1
10000ac4:	00178413          	addi	s0,a5,1
10000ac8:	00f98933          	add	s2,s3,a5
10000acc:	895ff0ef          	jal	ra,10000360 <__umodsi3>
10000ad0:	03050513          	addi	a0,a0,48
10000ad4:	00a90023          	sb	a0,0(s2)
10000ad8:	00a00593          	li	a1,10
10000adc:	00048513          	mv	a0,s1
10000ae0:	855ff0ef          	jal	ra,10000334 <__udivsi3>
10000ae4:	0ff47413          	andi	s0,s0,255
10000ae8:	00050493          	mv	s1,a0
10000aec:	00040793          	mv	a5,s0
10000af0:	fc0516e3          	bnez	a0,10000abc <format_dec32+0x28>
10000af4:	00040513          	mv	a0,s0
10000af8:	01c12083          	lw	ra,28(sp)
10000afc:	01812403          	lw	s0,24(sp)
10000b00:	01412483          	lw	s1,20(sp)
10000b04:	01012903          	lw	s2,16(sp)
10000b08:	00c12983          	lw	s3,12(sp)
10000b0c:	02010113          	addi	sp,sp,32
10000b10:	00008067          	ret
10000b14:	03000793          	li	a5,48
10000b18:	00f50023          	sb	a5,0(a0)
10000b1c:	00100413          	li	s0,1
10000b20:	fd5ff06f          	j	10000af4 <format_dec32+0x60>

10000b24 <format_hex32>:
10000b24:	04058063          	beqz	a1,10000b64 <format_hex32+0x40>
10000b28:	00000713          	li	a4,0
10000b2c:	fffff617          	auipc	a2,0xfffff
10000b30:	79060613          	addi	a2,a2,1936 # 100002bc <hex_symbols>
10000b34:	00f5f693          	andi	a3,a1,15
10000b38:	00d606b3          	add	a3,a2,a3
10000b3c:	0006c683          	lbu	a3,0(a3)
10000b40:	00170793          	addi	a5,a4,1 # ffff8001 <pulp__FC+0xffff8002>
10000b44:	00e50733          	add	a4,a0,a4
10000b48:	0ff7f793          	andi	a5,a5,255
10000b4c:	00d70023          	sb	a3,0(a4)
10000b50:	0045d593          	srli	a1,a1,0x4
10000b54:	00078713          	mv	a4,a5
10000b58:	fc059ee3          	bnez	a1,10000b34 <format_hex32+0x10>
10000b5c:	00078513          	mv	a0,a5
10000b60:	00008067          	ret
10000b64:	03000793          	li	a5,48
10000b68:	00f50023          	sb	a5,0(a0)
10000b6c:	00100793          	li	a5,1
10000b70:	fedff06f          	j	10000b5c <format_hex32+0x38>

10000b74 <printf>:
10000b74:	f8010113          	addi	sp,sp,-128
10000b78:	06f12a23          	sw	a5,116(sp)
10000b7c:	06410793          	addi	a5,sp,100
10000b80:	04812c23          	sw	s0,88(sp)
10000b84:	05412423          	sw	s4,72(sp)
10000b88:	05512223          	sw	s5,68(sp)
10000b8c:	05612023          	sw	s6,64(sp)
10000b90:	03712e23          	sw	s7,60(sp)
10000b94:	03812c23          	sw	s8,56(sp)
10000b98:	04112e23          	sw	ra,92(sp)
10000b9c:	04912a23          	sw	s1,84(sp)
10000ba0:	05212823          	sw	s2,80(sp)
10000ba4:	05312623          	sw	s3,76(sp)
10000ba8:	00050413          	mv	s0,a0
10000bac:	06b12223          	sw	a1,100(sp)
10000bb0:	06c12423          	sw	a2,104(sp)
10000bb4:	06d12623          	sw	a3,108(sp)
10000bb8:	06e12823          	sw	a4,112(sp)
10000bbc:	07012c23          	sw	a6,120(sp)
10000bc0:	07112e23          	sw	a7,124(sp)
10000bc4:	02f12023          	sw	a5,32(sp)
10000bc8:	02500a13          	li	s4,37
10000bcc:	03000a93          	li	s5,48
10000bd0:	00900b93          	li	s7,9
10000bd4:	07300b13          	li	s6,115
10000bd8:	fff00c13          	li	s8,-1
10000bdc:	00044503          	lbu	a0,0(s0)
10000be0:	02051a63          	bnez	a0,10000c14 <printf+0xa0>
10000be4:	05c12083          	lw	ra,92(sp)
10000be8:	05812403          	lw	s0,88(sp)
10000bec:	05412483          	lw	s1,84(sp)
10000bf0:	05012903          	lw	s2,80(sp)
10000bf4:	04c12983          	lw	s3,76(sp)
10000bf8:	04812a03          	lw	s4,72(sp)
10000bfc:	04412a83          	lw	s5,68(sp)
10000c00:	04012b03          	lw	s6,64(sp)
10000c04:	03c12b83          	lw	s7,60(sp)
10000c08:	03812c03          	lw	s8,56(sp)
10000c0c:	08010113          	addi	sp,sp,128
10000c10:	00008067          	ret
10000c14:	17451063          	bne	a0,s4,10000d74 <printf+0x200>
10000c18:	00144783          	lbu	a5,1(s0)
10000c1c:	01479a63          	bne	a5,s4,10000c30 <printf+0xbc>
10000c20:	02500513          	li	a0,37
10000c24:	220000ef          	jal	ra,10000e44 <putchar>
10000c28:	00240413          	addi	s0,s0,2
10000c2c:	fb1ff06f          	j	10000bdc <printf+0x68>
10000c30:	07578a63          	beq	a5,s5,10000ca4 <printf+0x130>
10000c34:	00140413          	addi	s0,s0,1
10000c38:	02000993          	li	s3,32
10000c3c:	00000913          	li	s2,0
10000c40:	00044483          	lbu	s1,0(s0)
10000c44:	fd048793          	addi	a5,s1,-48
10000c48:	0ff7f793          	andi	a5,a5,255
10000c4c:	06fbf263          	bleu	a5,s7,10000cb0 <printf+0x13c>
10000c50:	13648663          	beq	s1,s6,10000d7c <printf+0x208>
10000c54:	069b6e63          	bltu	s6,s1,10000cd0 <printf+0x15c>
10000c58:	06300793          	li	a5,99
10000c5c:	10f48463          	beq	s1,a5,10000d64 <printf+0x1f0>
10000c60:	06400793          	li	a5,100
10000c64:	0cf48a63          	beq	s1,a5,10000d38 <printf+0x1c4>
10000c68:	02500513          	li	a0,37
10000c6c:	1d8000ef          	jal	ra,10000e44 <putchar>
10000c70:	01599663          	bne	s3,s5,10000c7c <printf+0x108>
10000c74:	03000513          	li	a0,48
10000c78:	1cc000ef          	jal	ra,10000e44 <putchar>
10000c7c:	00090e63          	beqz	s2,10000c98 <printf+0x124>
10000c80:	00090593          	mv	a1,s2
10000c84:	01c10513          	addi	a0,sp,28
10000c88:	e0dff0ef          	jal	ra,10000a94 <format_dec32>
10000c8c:	00050493          	mv	s1,a0
10000c90:	fff48493          	addi	s1,s1,-1
10000c94:	11849c63          	bne	s1,s8,10000dac <printf+0x238>
10000c98:	00044503          	lbu	a0,0(s0)
10000c9c:	06050863          	beqz	a0,10000d0c <printf+0x198>
10000ca0:	0d40006f          	j	10000d74 <printf+0x200>
10000ca4:	00240413          	addi	s0,s0,2
10000ca8:	03000993          	li	s3,48
10000cac:	f91ff06f          	j	10000c3c <printf+0xc8>
10000cb0:	00090513          	mv	a0,s2
10000cb4:	00a00593          	li	a1,10
10000cb8:	e5cff0ef          	jal	ra,10000314 <__mulsi3>
10000cbc:	00a48533          	add	a0,s1,a0
10000cc0:	fd050613          	addi	a2,a0,-48
10000cc4:	0ff67913          	andi	s2,a2,255
10000cc8:	00140413          	addi	s0,s0,1
10000ccc:	f75ff06f          	j	10000c40 <printf+0xcc>
10000cd0:	07500793          	li	a5,117
10000cd4:	04f48463          	beq	s1,a5,10000d1c <printf+0x1a8>
10000cd8:	07800793          	li	a5,120
10000cdc:	f8f496e3          	bne	s1,a5,10000c68 <printf+0xf4>
10000ce0:	02012783          	lw	a5,32(sp)
10000ce4:	02410513          	addi	a0,sp,36
10000ce8:	0007a583          	lw	a1,0(a5)
10000cec:	00478713          	addi	a4,a5,4
10000cf0:	02e12023          	sw	a4,32(sp)
10000cf4:	e31ff0ef          	jal	ra,10000b24 <format_hex32>
10000cf8:	00050593          	mv	a1,a0
10000cfc:	00098693          	mv	a3,s3
10000d00:	00090613          	mv	a2,s2
10000d04:	02410513          	addi	a0,sp,36
10000d08:	d15ff0ef          	jal	ra,10000a1c <print_reversed_with_padding>
10000d0c:	00044783          	lbu	a5,0(s0)
10000d10:	ec0786e3          	beqz	a5,10000bdc <printf+0x68>
10000d14:	00140413          	addi	s0,s0,1
10000d18:	ec5ff06f          	j	10000bdc <printf+0x68>
10000d1c:	02012783          	lw	a5,32(sp)
10000d20:	00478713          	addi	a4,a5,4
10000d24:	0007a583          	lw	a1,0(a5)
10000d28:	02e12023          	sw	a4,32(sp)
10000d2c:	02410513          	addi	a0,sp,36
10000d30:	d65ff0ef          	jal	ra,10000a94 <format_dec32>
10000d34:	fc5ff06f          	j	10000cf8 <printf+0x184>
10000d38:	02012783          	lw	a5,32(sp)
10000d3c:	00478713          	addi	a4,a5,4
10000d40:	0007a583          	lw	a1,0(a5)
10000d44:	02e12023          	sw	a4,32(sp)
10000d48:	fe05d2e3          	bgez	a1,10000d2c <printf+0x1b8>
10000d4c:	02d00513          	li	a0,45
10000d50:	00b12623          	sw	a1,12(sp)
10000d54:	0f0000ef          	jal	ra,10000e44 <putchar>
10000d58:	00c12583          	lw	a1,12(sp)
10000d5c:	40b005b3          	neg	a1,a1
10000d60:	fcdff06f          	j	10000d2c <printf+0x1b8>
10000d64:	02012783          	lw	a5,32(sp)
10000d68:	00478713          	addi	a4,a5,4
10000d6c:	0007c503          	lbu	a0,0(a5)
10000d70:	02e12023          	sw	a4,32(sp)
10000d74:	0d0000ef          	jal	ra,10000e44 <putchar>
10000d78:	f95ff06f          	j	10000d0c <printf+0x198>
10000d7c:	02012783          	lw	a5,32(sp)
10000d80:	00478713          	addi	a4,a5,4
10000d84:	0007a483          	lw	s1,0(a5)
10000d88:	02e12023          	sw	a4,32(sp)
10000d8c:	00049663          	bnez	s1,10000d98 <printf+0x224>
10000d90:	fffff497          	auipc	s1,0xfffff
10000d94:	53c48493          	addi	s1,s1,1340 # 100002cc <hex_symbols+0x10>
10000d98:	0004c503          	lbu	a0,0(s1)
10000d9c:	f60508e3          	beqz	a0,10000d0c <printf+0x198>
10000da0:	00148493          	addi	s1,s1,1
10000da4:	0a0000ef          	jal	ra,10000e44 <putchar>
10000da8:	ff1ff06f          	j	10000d98 <printf+0x224>
10000dac:	01c10713          	addi	a4,sp,28
10000db0:	009707b3          	add	a5,a4,s1
10000db4:	0007c503          	lbu	a0,0(a5)
10000db8:	08c000ef          	jal	ra,10000e44 <putchar>
10000dbc:	ed5ff06f          	j	10000c90 <printf+0x11c>

10000dc0 <uart_init>:
10000dc0:	030027b7          	lui	a5,0x3002
10000dc4:	00078223          	sb	zero,4(a5) # 3002004 <status+0x1ffc>
10000dc8:	f8000713          	li	a4,-128
10000dcc:	00e78623          	sb	a4,12(a5)
10000dd0:	03400713          	li	a4,52
10000dd4:	00e78023          	sb	a4,0(a5)
10000dd8:	00078223          	sb	zero,4(a5)
10000ddc:	00300713          	li	a4,3
10000de0:	00e78623          	sb	a4,12(a5)
10000de4:	fc700713          	li	a4,-57
10000de8:	00e78423          	sb	a4,8(a5)
10000dec:	00078823          	sb	zero,16(a5)
10000df0:	00008067          	ret

10000df4 <uart_write>:
10000df4:	03002737          	lui	a4,0x3002
10000df8:	01474783          	lbu	a5,20(a4) # 3002014 <status+0x200c>
10000dfc:	0207f793          	andi	a5,a5,32
10000e00:	fe078ce3          	beqz	a5,10000df8 <uart_write+0x4>
10000e04:	00a70023          	sb	a0,0(a4)
10000e08:	00008067          	ret

10000e0c <uart_write_flush>:
10000e0c:	03002737          	lui	a4,0x3002
10000e10:	01474783          	lbu	a5,20(a4) # 3002014 <status+0x200c>
10000e14:	0207f793          	andi	a5,a5,32
10000e18:	fe078ce3          	beqz	a5,10000e10 <uart_write_flush+0x4>
10000e1c:	01474783          	lbu	a5,20(a4)
10000e20:	0407f793          	andi	a5,a5,64
10000e24:	fe0786e3          	beqz	a5,10000e10 <uart_write_flush+0x4>
10000e28:	00008067          	ret

10000e2c <uart_read>:
10000e2c:	03002737          	lui	a4,0x3002
10000e30:	01474783          	lbu	a5,20(a4) # 3002014 <status+0x200c>
10000e34:	0017f793          	andi	a5,a5,1
10000e38:	fe078ce3          	beqz	a5,10000e30 <uart_read+0x4>
10000e3c:	00074503          	lbu	a0,0(a4)
10000e40:	00008067          	ret

10000e44 <putchar>:
10000e44:	fb1ff06f          	j	10000df4 <uart_write>

Disassembly of section .Pulp_Chip.Info:

00000000 <.Pulp_Chip.Info>:
   0:	000a                	0xa
   2:	0000                	unimp
   4:	0038                	addi	a4,sp,8
   6:	0000                	unimp
   8:	0001                	nop
   a:	0000                	unimp
   c:	7550                	flw	fa2,44(a0)
   e:	706c                	flw	fa1,100(s0)
  10:	495f 666e 006f      	0x6f666e495f
  16:	70696863          	bltu	s2,t1,726 <status-0x2fff8e2>
  1a:	6e3d                	lui	t3,0xf
  1c:	20656e6f          	jal	t3,56222 <status-0x2fa9de6>
  20:	3d757063          	bleu	s7,a0,3e0 <status-0x2fffc28>
  24:	6f6e                	flw	ft10,216(sp)
  26:	656e                	flw	fa0,216(sp)
  28:	7020                	flw	fs0,96(s0)
  2a:	3d65                	jal	fffffee2 <pulp__FC+0xfffffee3>
  2c:	312d                	jal	fffffc56 <pulp__FC+0xfffffc57>
  2e:	6620                	flw	fs0,72(a2)
  30:	312d3d63          	p.bneimm	s10,-14,34a <status-0x2fffcbe>
  34:	6c20                	flw	fs0,88(s0)
  36:	3d32                	fld	fs10,296(sp)
  38:	312d                	jal	fffffc62 <pulp__FC+0xfffffc63>
  3a:	6c20                	flw	fs0,88(s0)
  3c:	6331                	lui	t1,0xc
  3e:	3d6c                	fld	fa1,248(a0)
  40:	312d                	jal	fffffc6a <pulp__FC+0xfffffc6b>
  42:	6c20                	flw	fs0,88(s0)
  44:	6631                	lui	a2,0xc
  46:	312d3d63          	p.bneimm	s10,-14,360 <status-0x2fffca8>
  4a:	0000                	unimp
	...
