
bin/fir_auto_run.elf:     file format elf32-littleriscv

Contents of section .text._start:
 10000000 97110000 93810180 17110000 130181ff  ................
 10000010 93000000 13020000 93020000 13030000  ................
 10000020 93030000 13040000 93040000 13050000  ................
 10000030 93050000 13060000 93060000 13070000  ................
 10000040 93070000 ef00003a 970200f3 938202fc  .......:........
 10000050 23a0a200 73005010                    #...s.P.        
Contents of section .misc:
 10000058 cef90d04 7d081002 40f6a6fa 87176635  ....}...@.....f5
 10000068 66358717 a6fa40f6 10027d08 0d04cef9  f5....@...}.....
 10000078 46495220 4155544f 2052554e 20286e6f  FIR AUTO RUN (no
 10000088 206d656e 75290000 4b6f6566 69736965   menu)..Koefisie
 10000098 6e206461 6e20696e 70757420 73756461  n dan input suda
 100000a8 68206669 78656420 64692073 6f757263  h fixed di sourc
 100000b8 652e0000 4b6f6566 69736965 6e204649  e...Koefisien FI
 100000c8 52206669 78656420 64692070 726f6772  R fixed di progr
 100000d8 616d3a00 685b2530 32645d20 3d202564  am:.h[%02d] = %d
 100000e8 0d0a0000 4d656e6a 616c616e 6b616e20  ....Menjalankan 
 100000f8 636f6d70 61726520 48572076 73205053  compare HW vs PS
 10000108 2e2e2e00 6e202078 5b6e5d20 20795f68  ....n  x[n]  y_h
 10000118 77202079 5f707300 25303364 20256420  w  y_ps.%03d %d 
 10000128 25642025 640d0a00 53554d3a 20746f74  %d %d...SUM: tot
 10000138 616c3d25 64206d61 7463683d 2564206d  al=%d match=%d m
 10000148 69736d61 7463683d 25640d0a 00000000  ismatch=%d......
 10000158 53544154 55533a20 4d415443 48000000  STATUS: MATCH...
 10000168 53544154 55533a20 4d49534d 41544348  STATUS: MISMATCH
 10000178 00000000 78563412 30313233 34353637  ....xV4.01234567
 10000188 38394142 43444546 286e756c 6c290000  89ABCDEF(null)..
 10000198 00000000 00000000 00000000 00000000  ................
 100001a8 00000000 00000000 00000000 00000000  ................
 100001b8 00000000 00000000 00000000 00000000  ................
 100001c8 00000000 00000000 00000000 00000000  ................
 100001d8 00000000 00000000 00000000 00000000  ................
 100001e8 00000000 00000000 00000000 00000000  ................
 100001f8 00000000 00000000 00000000 00000000  ................
 10000208 00000000 00000000 00000000 00000000  ................
 10000218 00000000 00000000 00000000 00000000  ................
 10000228 00000000 00000000 00000000 00000000  ................
 10000238 00000000 00000000 00000000 00000000  ................
 10000248 00000000 00000000 00000000 00000000  ................
 10000258 00000000 00000000 00000000 00000000  ................
 10000268 00000000 00000000 00000000 00000000  ................
 10000278 00000000 00000000 00000000 00000000  ................
 10000288 00000000 00000000 00000000 00000000  ................
 10000298 00000000 00000000 00000000 00000000  ................
 100002a8 00000000 00000000 00000000 00000000  ................
 100002b8 00000000 00000000 00000000 00000000  ................
 100002c8 00000000 00000000 00000000 00000000  ................
 100002d8 00000000 00000000 00000000 00000000  ................
 100002e8 00000000 00000000 00000000 00000000  ................
Contents of section .text:
 100002f8 2a860145 93f61500 91c23295 85810606  *..E......2.....
 10000308 f5f98280 00000000 634e0502 63c30504  ........cN..c...
 10000318 2e86aa85 7d5515c2 85466378 b6006356  ....}U...Fcx..cV
 10000328 c0000606 8606e36c b6fe0145 63e4c500  .......l...Ec...
 10000338 918d558d 85820582 f5fa8280 8682c93f  ..U............?
 10000348 2e858282 3305a040 63d70500 b305b040  ....3..@c......@
 10000358 c1b7b305 b0408682 653f3305 a0408282  .....@..e?3..@..
 10000368 868263c7 05006349 05005d37 2e858282  ..c...cI..]7....
 10000378 b305b040 e35b05fe 3305a040 513f3305  ...@.[..3..@Q?3.
 10000388 b0408282 00000000 130101ff 23248100  .@..........#$..
 10000398 23261100 13040500 03450400 631a0500  #&.......E..c...
 100003a8 8320c100 03248100 13010101 67800000  . ...$......g...
 100003b8 13041400 ef004073 6ff01ffe 130101ff  ......@so.......
 100003c8 1305d000 23261100 ef000072 8320c100  ....#&.....r. ..
 100003d8 1305a000 13010101 6f000071 130101fb  ........o..q....
 100003e8 23261104 23248104 23229104 23202105  #&..#$..#"..# !.
 100003f8 232e3103 232c4103 23248103 232a5103  #.1.#,A.#$..#*Q.
 10000408 23286103 23267103 23229103 2320a103  #(a.#&q.#"..# ..
 10000418 232eb101 ef00006a eff05ffa 17050000  #......j.._.....
 10000428 130545c5 eff05ff6 eff05ff9 17050000  ..E..._..._.....
 10000438 1305c5c5 eff05ff5 eff05ff8 eff01ff8  ......_..._.....
 10000448 17050000 130545c7 17040000 130484c0  ......E.........
 10000458 eff09ff3 13090400 eff05ff6 93040000  .........._.....
 10000468 130c0400 170a0000 130a0ac7 93090001  ................
 10000478 03160900 93850400 13050a00 93841400  ................
 10000488 ef00803e 13092900 e39434ff 97070000  ...>..)...4.....
 10000498 938787ce 97040000 9384c4cf 376b1900  ............7k..
 100004a8 b7fa6e3c 03a90700 138a0400 93090000  ..n<............
 100004b8 130bdb60 938afa35 930b000a 93050b00  ...`...5........
 100004c8 13050900 eff0dfe2 33095501 9305107d  ........3.U....}
 100004d8 13550901 eff09fe6 130585c1 2310aa00  .U..........#...
 100004e8 93891900 130a2a00 e39a79fd 97070000  ......*...y.....
 100004f8 23a427c9 eff09fec 17050000 1305c5be  #.'.............
 10000508 eff09fe8 17090000 1309c9dc eff01feb  ................
 10000518 ef00005f 13070900 93070000 930c0900  ..._............
 10000528 93060001 23100700 93871700 13072700  ....#.........'.
 10000538 e39ad7fe b7270020 13072000 23a0e700  .....'. .. .#...
 10000548 0f00f00f 93070000 37270020 93060001  ........7'. ....
 10000558 03160400 2324f700 2326c700 93871700  ....#$..#&......
 10000568 13042400 e396d7fe 0f00f00f 9307000a  ..$.............
 10000578 2320f702 97060000 9386c6c1 93070000  # ..............
 10000588 37270020 1306000a 83950600 2328f700  7'. ........#(..
 10000598 232ab700 93871700 93862600 e396c7fe  #*........&.....
 100005a8 0f00f00f 93071000 2320f700 37270020  ........# ..7'. 
 100005b8 83274700 93f72700 e38c07fe eff01fe0  .'G...'.........
 100005c8 17050000 130545b4 b7890000 eff0dfdb  ......E.........
 100005d8 13040000 eff09fde 930a0000 930b0002  ................
 100005e8 138df9ff b78dffff 372a0020 170b0000  ........7*. ....
 100005f8 130bcbb2 03960400 97070000 938767cf  ..............g.
 10000608 03d7e7ff 9387e7ff 2391e700 e31af9fe  ........#.......
 10000618 97070000 2390c7cc 93060000 93070000  ....#...........
 10000628 13070000 3305dc00 b385dc00 83950500  ....3...........
 10000638 03150500 2326c100 2324d100 2320e100  ....#&..#$..# ..
 10000648 2322f100 eff0dfca 83274100 03270100  #".......'A..'..
 10000658 83268100 9358f541 3385a700 b335f500  .&...X.A3....5..
 10000668 33071701 93862600 93070500 3387e500  3.....&.....3...
 10000678 0326c100 e39876fb 13171701 9357f500  .&....v......W..
 10000688 b367f700 13070d00 63da3701 3787ffff  .g......c.7.7...
 10000698 63c6b701 13970701 13570741 232c5a01  c........W.A#,Z.
 100006a8 0f00f00f 8326ca01 6384e600 13041400  .....&..c.......
 100006b8 93850a00 13050b00 ef00001b 938a1a00  ................
 100006c8 9307000a 93842400 e396faf2 eff01fcf  ......$.........
 100006d8 17050000 130585a5 93060400 33868a40  ............3..@
 100006e8 9305000a ef004018 17050000 130585a6  ......@.........
 100006f8 63060400 17050000 1305c5a6 eff0dfc8  c...............
 10000708 eff0dfcb ef00c03f 73005010 6ff0dfff  .......?s.P.o...
 10000718 130101fe 232c8100 23282101 232e1100  ....#,..#(!.#...
 10000728 232a9100 13090500 13840500 6364c402  #*..........cd..
 10000738 9304f0ff 1304f4ff 63109404 8320c101  ........c.... ..
 10000748 03248101 83244101 03290101 13010102  .$...$A..)......
 10000758 67800000 13850600 2326c100 2324d100  g.......#&..#$..
 10000768 ef00003c 0326c100 83268100 1306f6ff  ...<.&...&......
 10000778 1376f60f 6ff09ffb b3078900 03c50700  .v..o...........
 10000788 ef00003a 6ff01ffb 130101fe 23263101  ...:o.......#&1.
 10000798 232e1100 232c8100 232a9100 23282101  #...#,..#*..#(!.
 100007a8 93090500 63820506 93840500 93070000  ....c...........
 100007b8 9305a000 13850400 13841700 3389f900  ............3...
 100007c8 eff0dfb7 13050503 2300a900 9305a000  ........#.......
 100007d8 13850400 eff0dfb3 1374f40f 93040500  .........t......
 100007e8 93070400 e31605fc 13050400 8320c101  ............. ..
 100007f8 03248101 83244101 03290101 8329c100  .$...$A..)...)..
 10000808 13010102 67800000 93070003 2300f500  ....g.......#...
 10000818 13041000 6ff05ffd 63800504 13070000  ....o._.c.......
 10000828 17060000 13068695 93f6f500 b306d600  ................
 10000838 83c60600 93071700 3307e500 93f7f70f  ........3.......
 10000848 2300d700 93d54500 13870700 e39e05fc  #.....E.........
 10000858 13850700 67800000 93070003 2300f500  ....g.......#...
 10000868 93071000 6ff0dffe 130101f8 232af106  ....o.......#*..
 10000878 93074106 232c8104 23244105 23225105  ..A.#,..#$A.#"Q.
 10000888 23206105 232e7103 232c8103 232e1104  # a.#.q.#,..#...
 10000898 232a9104 23282105 23263105 13040500  #*..#(!.#&1.....
 100008a8 2322b106 2324c106 2326d106 2328e106  #"..#$..#&..#(..
 100008b8 232c0107 232e1107 2320f102 130a5002  #,..#...# ....P.
 100008c8 930a0003 930b9000 130b3007 130cf0ff  ..........0.....
 100008d8 03450400 631a0502 8320c105 03248105  .E..c.... ...$..
 100008e8 83244105 03290105 8329c104 032a8104  .$A..)...)...*..
 100008f8 832a4104 032b0104 832bc103 032c8103  .*A..+...+...,..
 10000908 13010108 67800000 63104517 83471400  ....g...c.E..G..
 10000918 639a4701 13055002 ef008020 13042400  c.G...P.... ..$.
 10000928 6ff01ffb 638a5707 13041400 93090002  o...c.W.........
 10000938 13090000 83440400 938704fd 93f7f70f  .....D..........
 10000948 63f2fb06 63866413 636e9b06 93073006  c...c.d.cn....0.
 10000958 6384f410 93074006 638af40c 13055002  c.....@.c.....P.
 10000968 ef00001c 63965901 13050003 ef00401b  ....c.Y.......@.
 10000978 630e0900 93050900 1305c101 eff0dfe0  c...............
 10000988 93040500 9384f4ff 639c8411 03450400  ........c....E..
 10000998 63080506 6f00400d 13042400 93090003  c...o.@...$.....
 100009a8 6ff01ff9 13050900 9305a000 eff05f94  o............._.
 100009b8 3385a400 130605fd 1379f60f 13041400  3........y......
 100009c8 6ff05ff7 93075007 6384f404 93078007  o._...P.c.......
 100009d8 e396f4f8 83270102 13054102 83a50700  .....'....A.....
 100009e8 13874700 2320e102 eff01fe3 93050500  ..G.# ..........
 100009f8 93860900 13060900 13054102 eff05fd1  ..........A..._.
 10000a08 83470400 e38607ec 13041400 6ff05fec  .G..........o._.
 10000a18 83270102 13874700 83a50700 2320e102  .'....G.....# ..
 10000a28 13054102 eff05fd6 6ff05ffc 83270102  ..A..._.o._..'..
 10000a38 13874700 83a50700 2320e102 e3d205fe  ..G.....# ......
 10000a48 1305d002 2326b100 ef00800d 8325c100  ....#&.......%..
 10000a58 b305b040 6ff0dffc 83270102 13874700  ...@o....'....G.
 10000a68 03c50700 2320e102 ef00800b 6ff05ff9  ....# ......o._.
 10000a78 83270102 13874700 83a40700 2320e102  .'....G.....# ..
 10000a88 63960400 97f4ffff 93844470 03c50400  c.........Dp....
 10000a98 e30805f6 93841400 ef008008 6ff01fff  ............o...
 10000aa8 1307c101 b3079700 03c50700 ef004007  ..............@.
 10000ab8 6ff05fed b7270003 23820700 130700f8  o._..'..#.......
 10000ac8 2386e700 13074003 2380e700 23820700  #.....@.#...#...
 10000ad8 13073000 2386e700 130770fc 2384e700  ..0.#.....p.#...
 10000ae8 23880700 67800000 37270003 83474701  #...g...7'...GG.
 10000af8 93f70702 e38c07fe 2300a700 67800000  ........#...g...
 10000b08 37270003 83474701 93f70702 e38c07fe  7'...GG.........
 10000b18 83474701 93f70704 e38607fe 67800000  .GG.........g...
 10000b28 6ff09ffc                             o...            
Contents of section .Pulp_Chip.Info:
 0000 0a000000 38000000 01000000 50756c70  ....8.......Pulp
 0010 5f496e66 6f006368 69703d6e 6f6e6520  _Info.chip=none 
 0020 6370753d 6e6f6e65 2070653d 2d312066  cpu=none pe=-1 f
 0030 633d2d31 206c323d 2d31206c 31636c3d  c=-1 l2=-1 l1cl=
 0040 2d31206c 3166633d 2d310000 0000      -1 l1fc=-1....  
Contents of section .debug_line:
 0000 ac000000 02006600 00000101 fb0e0d00  ......f.........
 0010 01010101 00000001 0000012f 686f6d65  .........../home
 0020 2f646576 616e2f53 6f432f70 756c702d  /devan/SoC/pulp-
 0030 72697363 762d676e 752d746f 6f6c6368  riscv-gnu-toolch
 0040 61696e2f 72697363 762d6763 632f6c69  ain/riscv-gcc/li
 0050 62676363 2f636f6e 6669672f 72697363  bgcc/config/risc
 0060 7600006d 756c6469 332e5300 01000000  v..muldi3.S.....
 0070 000502f8 02001003 23010301 09020001  ........#.......
 0080 03020902 00010301 09040001 03010902  ................
 0090 00010302 09020001 03010902 00010301  ................
 00a0 09020001 03010902 00010902 00000101  ................
 00b0 82010000 02006300 00000101 fb0e0d00  ......c.........
 00c0 01010101 00000001 0000012f 686f6d65  .........../home
 00d0 2f646576 616e2f53 6f432f70 756c702d  /devan/SoC/pulp-
 00e0 72697363 762d676e 752d746f 6f6c6368  riscv-gnu-toolch
 00f0 61696e2f 72697363 762d6763 632f6c69  ain/riscv-gcc/li
 0100 62676363 2f636f6e 6669672f 72697363  bgcc/config/risc
 0110 76000064 69762e53 00010000 00000502  v..div.S........
 0120 10030010 03c50001 03010904 00010305  ................
 0130 09040001 03010902 00010301 09020001  ................
 0140 03010902 00010301 09020001 03010902  ................
 0150 00010302 09040001 03010904 00010301  ................
 0160 09020001 03010902 00010302 09040001  ................
 0170 03020902 00010301 09040001 03010902  ................
 0180 00010302 09020001 03010902 00010301  ................
 0190 09020001 03020902 00010305 09020001  ................
 01a0 03010902 00010301 09020001 03010902  ................
 01b0 00010304 09020001 03010904 00010301  ................
 01c0 09040001 03010904 00010302 09020001  ................
 01d0 03020904 00010301 09020001 03010902  ................
 01e0 00010301 09040001 03040902 00010301  ................
 01f0 09020001 03010904 00010302 09040001  ................
 0200 03010902 00010301 09020001 03020902  ................
 0210 00010301 09040001 03020904 00010301  ................
 0220 09040001 03010902 00010301 09040001  ................
 0230 09020000 0101                        ......          
Contents of section .debug_info:
 0000 d0000000 02000000 00000401 00000000  ................
 0010 f8020010 0c030010 2f686f6d 652f6465  ......../home/de
 0020 76616e2f 536f432f 70756c70 2d726973  van/SoC/pulp-ris
 0030 63762d67 6e752d74 6f6f6c63 6861696e  cv-gnu-toolchain
 0040 2f726973 63762d67 63632f6c 69626763  /riscv-gcc/libgc
 0050 632f636f 6e666967 2f726973 63762f6d  c/config/riscv/m
 0060 756c6469 332e5300 2f686f6d 652f6465  uldi3.S./home/de
 0070 76616e2f 536f432f 70756c70 2d726973  van/SoC/pulp-ris
 0080 63762d67 6e752d74 6f6f6c63 6861696e  cv-gnu-toolchain
 0090 2f627569 6c642d67 63632d6e 65776c69  /build-gcc-newli
 00a0 622d7374 61676532 2f726973 63763332  b-stage2/riscv32
 00b0 2d756e6b 6e6f776e 2d656c66 2f6c6962  -unknown-elf/lib
 00c0 67636300 474e5520 41532032 2e32382e  gcc.GNU AS 2.28.
 00d0 30000180 cd000000 02001400 00000401  0...............
 00e0 b0000000 10030010 8c030010 2f686f6d  ............/hom
 00f0 652f6465 76616e2f 536f432f 70756c70  e/devan/SoC/pulp
 0100 2d726973 63762d67 6e752d74 6f6f6c63  -riscv-gnu-toolc
 0110 6861696e 2f726973 63762d67 63632f6c  hain/riscv-gcc/l
 0120 69626763 632f636f 6e666967 2f726973  ibgcc/config/ris
 0130 63762f64 69762e53 002f686f 6d652f64  cv/div.S./home/d
 0140 6576616e 2f536f43 2f70756c 702d7269  evan/SoC/pulp-ri
 0150 7363762d 676e752d 746f6f6c 63686169  scv-gnu-toolchai
 0160 6e2f6275 696c642d 6763632d 6e65776c  n/build-gcc-newl
 0170 69622d73 74616765 322f7269 73637633  ib-stage2/riscv3
 0180 322d756e 6b6e6f77 6e2d656c 662f6c69  2-unknown-elf/li
 0190 62676363 00474e55 20415320 322e3238  bgcc.GNU AS 2.28
 01a0 2e300001 80                          .0...           
Contents of section .debug_abbrev:
 0000 01110010 06110112 0103081b 08250813  .............%..
 0010 05000000 01110010 06110112 0103081b  ................
 0020 08250813 05000000                    .%......        
Contents of section .debug_aranges:
 0000 1c000000 02000000 00000400 00000000  ................
 0010 f8020010 14000000 00000000 00000000  ................
 0020 1c000000 0200d400 00000400 00000000  ................
 0030 10030010 7c000000 00000000 00000000  ....|...........

Disassembly of section .text._start:

10000000 <_start>:
10000000:	00001197          	auipc	gp,0x1
10000004:	80018193          	addi	gp,gp,-2048 # 10000800 <__global_pointer>
10000008:	00001117          	auipc	sp,0x1
1000000c:	ff810113          	addi	sp,sp,-8 # 10001000 <__stack_pointer>
10000010:	00000093          	li	ra,0
10000014:	00000213          	li	tp,0
10000018:	00000293          	li	t0,0
1000001c:	00000313          	li	t1,0
10000020:	00000393          	li	t2,0
10000024:	00000413          	li	s0,0
10000028:	00000493          	li	s1,0
1000002c:	00000513          	li	a0,0
10000030:	00000593          	li	a1,0
10000034:	00000613          	li	a2,0
10000038:	00000693          	li	a3,0
1000003c:	00000713          	li	a4,0
10000040:	00000793          	li	a5,0
10000044:	3a0000ef          	jal	ra,100003e4 <main>

10000048 <_eoc>:
10000048:	f3000297          	auipc	t0,0xf3000
1000004c:	fc028293          	addi	t0,t0,-64 # 3000008 <status>
10000050:	00a2a023          	sw	a0,0(t0)
10000054:	10500073          	wfi

Disassembly of section .misc:

10000058 <fir_coeff>:
10000058:	f9ce                	fsw	fs3,240(sp)
1000005a:	040d                	addi	s0,s0,3
1000005c:	087d                	addi	a6,a6,31
1000005e:	0210                	addi	a2,sp,256
10000060:	f640                	fsw	fs0,44(a2)
10000062:	faa6                	fsw	fs1,116(sp)
10000064:	35661787          	0x35661787
10000068:	3566                	fld	fa0,120(sp)
1000006a:	faa61787          	0xfaa61787
1000006e:	f640                	fsw	fs0,44(a2)
10000070:	0210                	addi	a2,sp,256
10000072:	087d                	addi	a6,a6,31
10000074:	040d                	addi	s0,s0,3
10000076:	f9ce                	fsw	fs3,240(sp)
10000078:	4946                	lw	s2,80(sp)
1000007a:	2052                	fld	ft0,272(sp)
1000007c:	5541                	li	a0,-16
1000007e:	4f54                	lw	a3,28(a4)
10000080:	5220                	lw	s0,96(a2)
10000082:	4e55                	li	t3,21
10000084:	2820                	fld	fs0,80(s0)
10000086:	6f6e                	flw	ft10,216(sp)
10000088:	6d20                	flw	fs0,88(a0)
1000008a:	6e65                	lui	t3,0x19
1000008c:	2975                	jal	10000548 <main+0x164>
1000008e:	0000                	unimp
10000090:	66656f4b          	0x66656f4b
10000094:	7369                	lui	t1,0xffffa
10000096:	6569                	lui	a0,0x1a
10000098:	206e                	fld	ft0,216(sp)
1000009a:	6164                	flw	fs1,68(a0)
1000009c:	206e                	fld	ft0,216(sp)
1000009e:	6e69                	lui	t3,0x1a
100000a0:	7570                	flw	fa2,108(a0)
100000a2:	2074                	fld	fa3,192(s0)
100000a4:	61647573          	csrrci	a0,0x616,8
100000a8:	2068                	fld	fa0,192(s0)
100000aa:	6966                	flw	fs2,88(sp)
100000ac:	6578                	flw	fa4,76(a0)
100000ae:	2064                	fld	fs1,192(s0)
100000b0:	6964                	flw	fs1,84(a0)
100000b2:	7320                	flw	fs0,96(a4)
100000b4:	6372756f          	jal	a0,10027eea <__stack_pointer+0x26eea>
100000b8:	2e65                	jal	10000470 <main+0x8c>
100000ba:	0000                	unimp
100000bc:	66656f4b          	0x66656f4b
100000c0:	7369                	lui	t1,0xffffa
100000c2:	6569                	lui	a0,0x1a
100000c4:	206e                	fld	ft0,216(sp)
100000c6:	4946                	lw	s2,80(sp)
100000c8:	2052                	fld	ft0,272(sp)
100000ca:	6966                	flw	fs2,88(sp)
100000cc:	6578                	flw	fa4,76(a0)
100000ce:	2064                	fld	fs1,192(s0)
100000d0:	6964                	flw	fs1,84(a0)
100000d2:	7020                	flw	fs0,96(s0)
100000d4:	6f72                	flw	ft10,28(sp)
100000d6:	6d617267          	0x6d617267
100000da:	003a                	0x3a
100000dc:	5b68                	lw	a0,116(a4)
100000de:	3025                	jal	ffff906 <status+0xcfff8fe>
100000e0:	6432                	flw	fs0,12(sp)
100000e2:	205d                	jal	10000188 <hex_symbols+0x8>
100000e4:	203d                	jal	10000112 <fir_coeff+0xba>
100000e6:	6425                	lui	s0,0x9
100000e8:	0a0d                	addi	s4,s4,3
100000ea:	0000                	unimp
100000ec:	654d                	lui	a0,0x13
100000ee:	6a6e                	flw	fs4,216(sp)
100000f0:	6c61                	lui	s8,0x18
100000f2:	6e61                	lui	t3,0x18
100000f4:	206e616b          	0x206e616b
100000f8:	706d6f63          	bltu	s10,t1,10000816 <__global_pointer+0x16>
100000fc:	7261                	lui	tp,0xffff8
100000fe:	2065                	jal	100001a6 <fir_input+0xe>
10000100:	5748                	lw	a0,44(a4)
10000102:	7620                	flw	fs0,104(a2)
10000104:	53502073          	csrr	zero,0x535
10000108:	2e2e                	fld	ft8,200(sp)
1000010a:	002e                	0x2e
1000010c:	206e                	fld	ft0,216(sp)
1000010e:	7820                	flw	fs0,112(s0)
10000110:	205d6e5b          	p.mac.zh.zl	t3,s10,t0,a6
10000114:	7920                	flw	fs0,112(a0)
10000116:	685f 2077 7920      	0x79202077685f
1000011c:	705f 0073 3025      	0x30250073705f
10000122:	25206433          	0x25206433
10000126:	2064                	fld	fs1,192(s0)
10000128:	6425                	lui	s0,0x9
1000012a:	2520                	fld	fs0,72(a0)
1000012c:	0d64                	addi	s1,sp,668
1000012e:	000a                	0xa
10000130:	3a4d5553          	0x3a4d5553
10000134:	7420                	flw	fs0,104(s0)
10000136:	6c61746f          	jal	s0,100177fc <__stack_pointer+0x167fc>
1000013a:	253d                	jal	10000768 <print_reversed_with_padding+0x50>
1000013c:	2064                	fld	fs1,192(s0)
1000013e:	616d                	addi	sp,sp,240
10000140:	6374                	flw	fa3,68(a4)
10000142:	3d68                	fld	fa0,248(a0)
10000144:	6425                	lui	s0,0x9
10000146:	6d20                	flw	fs0,88(a0)
10000148:	7369                	lui	t1,0xffffa
1000014a:	616d                	addi	sp,sp,240
1000014c:	6374                	flw	fa3,68(a4)
1000014e:	3d68                	fld	fa0,248(a0)
10000150:	6425                	lui	s0,0x9
10000152:	0a0d                	addi	s4,s4,3
10000154:	0000                	unimp
10000156:	0000                	unimp
10000158:	54415453          	fmacex.s.ah	s0,sp,tp
1000015c:	5355                	li	t1,-11
1000015e:	203a                	fld	ft0,392(sp)
10000160:	414d                	li	sp,19
10000162:	4354                	lw	a3,4(a4)
10000164:	0048                	addi	a0,sp,4
10000166:	0000                	unimp
10000168:	54415453          	fmacex.s.ah	s0,sp,tp
1000016c:	5355                	li	t1,-11
1000016e:	203a                	fld	ft0,392(sp)
10000170:	494d                	li	s2,19
10000172:	54414d53          	0x54414d53
10000176:	00004843          	fmadd.s	fa6,ft0,ft0,ft0,rmm
	...

1000017c <rng_state>:
1000017c:	5678                	lw	a4,108(a2)
1000017e:	1234                	addi	a3,sp,296

10000180 <hex_symbols>:
10000180:	3130                	fld	fa2,96(a0)
10000182:	3332                	fld	ft6,296(sp)
10000184:	3534                	fld	fa3,104(a0)
10000186:	3736                	fld	fa4,360(sp)
10000188:	3938                	fld	fa4,112(a0)
1000018a:	4241                	li	tp,16
1000018c:	46454443          	0x46454443
10000190:	6e28                	flw	fa0,88(a2)
10000192:	6c75                	lui	s8,0x1d
10000194:	296c                	fld	fa1,208(a0)
	...

10000198 <fir_input>:
	...

100002d8 <fir_state_ps>:
	...

Disassembly of section .text:

100002f8 <__mulsi3>:
100002f8:	862a                	mv	a2,a0
100002fa:	4501                	li	a0,0
100002fc:	0015f693          	andi	a3,a1,1
10000300:	c291                	beqz	a3,10000304 <__mulsi3+0xc>
10000302:	9532                	add	a0,a0,a2
10000304:	8185                	srli	a1,a1,0x1
10000306:	0606                	slli	a2,a2,0x1
10000308:	f9f5                	bnez	a1,100002fc <__mulsi3+0x4>
1000030a:	8082                	ret
1000030c:	0000                	unimp
	...

10000310 <__divsi3>:
10000310:	02054e63          	bltz	a0,1000034c <__umodsi3+0x8>
10000314:	0405c363          	bltz	a1,1000035a <__umodsi3+0x16>

10000318 <__udivsi3>:
10000318:	862e                	mv	a2,a1
1000031a:	85aa                	mv	a1,a0
1000031c:	557d                	li	a0,-1
1000031e:	c215                	beqz	a2,10000342 <__udivsi3+0x2a>
10000320:	4685                	li	a3,1
10000322:	00b67863          	bleu	a1,a2,10000332 <__udivsi3+0x1a>
10000326:	00c05663          	blez	a2,10000332 <__udivsi3+0x1a>
1000032a:	0606                	slli	a2,a2,0x1
1000032c:	0686                	slli	a3,a3,0x1
1000032e:	feb66ce3          	bltu	a2,a1,10000326 <__udivsi3+0xe>
10000332:	4501                	li	a0,0
10000334:	00c5e463          	bltu	a1,a2,1000033c <__udivsi3+0x24>
10000338:	8d91                	sub	a1,a1,a2
1000033a:	8d55                	or	a0,a0,a3
1000033c:	8285                	srli	a3,a3,0x1
1000033e:	8205                	srli	a2,a2,0x1
10000340:	faf5                	bnez	a3,10000334 <__udivsi3+0x1c>
10000342:	8082                	ret

10000344 <__umodsi3>:
10000344:	8286                	mv	t0,ra
10000346:	3fc9                	jal	10000318 <__udivsi3>
10000348:	852e                	mv	a0,a1
1000034a:	8282                	jr	t0
1000034c:	40a00533          	neg	a0,a0
10000350:	0005d763          	bgez	a1,1000035e <__umodsi3+0x1a>
10000354:	40b005b3          	neg	a1,a1
10000358:	b7c1                	j	10000318 <__udivsi3>
1000035a:	40b005b3          	neg	a1,a1
1000035e:	8286                	mv	t0,ra
10000360:	3f65                	jal	10000318 <__udivsi3>
10000362:	40a00533          	neg	a0,a0
10000366:	8282                	jr	t0

10000368 <__modsi3>:
10000368:	8286                	mv	t0,ra
1000036a:	0005c763          	bltz	a1,10000378 <__modsi3+0x10>
1000036e:	00054963          	bltz	a0,10000380 <__modsi3+0x18>
10000372:	375d                	jal	10000318 <__udivsi3>
10000374:	852e                	mv	a0,a1
10000376:	8282                	jr	t0
10000378:	40b005b3          	neg	a1,a1
1000037c:	fe055be3          	bgez	a0,10000372 <__modsi3+0xa>
10000380:	40a00533          	neg	a0,a0
10000384:	3f51                	jal	10000318 <__udivsi3>
10000386:	40b00533          	neg	a0,a1
1000038a:	8282                	jr	t0
1000038c:	0000                	unimp
	...

10000390 <put_str>:
10000390:	ff010113          	addi	sp,sp,-16
10000394:	00812423          	sw	s0,8(sp)
10000398:	00112623          	sw	ra,12(sp)
1000039c:	00050413          	mv	s0,a0
100003a0:	00044503          	lbu	a0,0(s0) # 9000 <status-0x2ff7008>
100003a4:	00051a63          	bnez	a0,100003b8 <put_str+0x28>
100003a8:	00c12083          	lw	ra,12(sp)
100003ac:	00812403          	lw	s0,8(sp)
100003b0:	01010113          	addi	sp,sp,16
100003b4:	00008067          	ret
100003b8:	00140413          	addi	s0,s0,1
100003bc:	734000ef          	jal	ra,10000af0 <uart_write>
100003c0:	fe1ff06f          	j	100003a0 <put_str+0x10>

100003c4 <put_crlf>:
100003c4:	ff010113          	addi	sp,sp,-16
100003c8:	00d00513          	li	a0,13
100003cc:	00112623          	sw	ra,12(sp)
100003d0:	720000ef          	jal	ra,10000af0 <uart_write>
100003d4:	00c12083          	lw	ra,12(sp)
100003d8:	00a00513          	li	a0,10
100003dc:	01010113          	addi	sp,sp,16
100003e0:	7100006f          	j	10000af0 <uart_write>

100003e4 <main>:
100003e4:	fb010113          	addi	sp,sp,-80
100003e8:	04112623          	sw	ra,76(sp)
100003ec:	04812423          	sw	s0,72(sp)
100003f0:	04912223          	sw	s1,68(sp)
100003f4:	05212023          	sw	s2,64(sp)
100003f8:	03312e23          	sw	s3,60(sp)
100003fc:	03412c23          	sw	s4,56(sp)
10000400:	03812423          	sw	s8,40(sp)
10000404:	03512a23          	sw	s5,52(sp)
10000408:	03612823          	sw	s6,48(sp)
1000040c:	03712623          	sw	s7,44(sp)
10000410:	03912223          	sw	s9,36(sp)
10000414:	03a12023          	sw	s10,32(sp)
10000418:	01b12e23          	sw	s11,28(sp)
1000041c:	6a0000ef          	jal	ra,10000abc <uart_init>
10000420:	fa5ff0ef          	jal	ra,100003c4 <put_crlf>
10000424:	00000517          	auipc	a0,0x0
10000428:	c5450513          	addi	a0,a0,-940 # 10000078 <fir_coeff+0x20>
1000042c:	f65ff0ef          	jal	ra,10000390 <put_str>
10000430:	f95ff0ef          	jal	ra,100003c4 <put_crlf>
10000434:	00000517          	auipc	a0,0x0
10000438:	c5c50513          	addi	a0,a0,-932 # 10000090 <fir_coeff+0x38>
1000043c:	f55ff0ef          	jal	ra,10000390 <put_str>
10000440:	f85ff0ef          	jal	ra,100003c4 <put_crlf>
10000444:	f81ff0ef          	jal	ra,100003c4 <put_crlf>
10000448:	00000517          	auipc	a0,0x0
1000044c:	c7450513          	addi	a0,a0,-908 # 100000bc <fir_coeff+0x64>
10000450:	00000417          	auipc	s0,0x0
10000454:	c0840413          	addi	s0,s0,-1016 # 10000058 <fir_coeff>
10000458:	f39ff0ef          	jal	ra,10000390 <put_str>
1000045c:	00040913          	mv	s2,s0
10000460:	f65ff0ef          	jal	ra,100003c4 <put_crlf>
10000464:	00000493          	li	s1,0
10000468:	00040c13          	mv	s8,s0
1000046c:	00000a17          	auipc	s4,0x0
10000470:	c70a0a13          	addi	s4,s4,-912 # 100000dc <fir_coeff+0x84>
10000474:	01000993          	li	s3,16
10000478:	00091603          	lh	a2,0(s2)
1000047c:	00048593          	mv	a1,s1
10000480:	000a0513          	mv	a0,s4
10000484:	00148493          	addi	s1,s1,1
10000488:	3e8000ef          	jal	ra,10000870 <printf>
1000048c:	00290913          	addi	s2,s2,2
10000490:	ff3494e3          	bne	s1,s3,10000478 <main+0x94>
10000494:	00000797          	auipc	a5,0x0
10000498:	ce878793          	addi	a5,a5,-792 # 1000017c <rng_state>
1000049c:	00000497          	auipc	s1,0x0
100004a0:	cfc48493          	addi	s1,s1,-772 # 10000198 <fir_input>
100004a4:	00196b37          	lui	s6,0x196
100004a8:	3c6efab7          	lui	s5,0x3c6ef
100004ac:	0007a903          	lw	s2,0(a5)
100004b0:	00048a13          	mv	s4,s1
100004b4:	00000993          	li	s3,0
100004b8:	60db0b13          	addi	s6,s6,1549 # 19660d <status-0x2e699fb>
100004bc:	35fa8a93          	addi	s5,s5,863 # 3c6ef35f <__stack_pointer+0x2c6ee35f>
100004c0:	0a000b93          	li	s7,160
100004c4:	000b0593          	mv	a1,s6
100004c8:	00090513          	mv	a0,s2
100004cc:	e2dff0ef          	jal	ra,100002f8 <__mulsi3>
100004d0:	01550933          	add	s2,a0,s5
100004d4:	7d100593          	li	a1,2001
100004d8:	01095513          	srli	a0,s2,0x10
100004dc:	e69ff0ef          	jal	ra,10000344 <__umodsi3>
100004e0:	c1850513          	addi	a0,a0,-1000
100004e4:	00aa1023          	sh	a0,0(s4)
100004e8:	00198993          	addi	s3,s3,1
100004ec:	002a0a13          	addi	s4,s4,2
100004f0:	fd799ae3          	bne	s3,s7,100004c4 <main+0xe0>
100004f4:	00000797          	auipc	a5,0x0
100004f8:	c927a423          	sw	s2,-888(a5) # 1000017c <rng_state>
100004fc:	ec9ff0ef          	jal	ra,100003c4 <put_crlf>
10000500:	00000517          	auipc	a0,0x0
10000504:	bec50513          	addi	a0,a0,-1044 # 100000ec <fir_coeff+0x94>
10000508:	e89ff0ef          	jal	ra,10000390 <put_str>
1000050c:	00000917          	auipc	s2,0x0
10000510:	dcc90913          	addi	s2,s2,-564 # 100002d8 <fir_state_ps>
10000514:	eb1ff0ef          	jal	ra,100003c4 <put_crlf>
10000518:	5f0000ef          	jal	ra,10000b08 <uart_write_flush>
1000051c:	00090713          	mv	a4,s2
10000520:	00000793          	li	a5,0
10000524:	00090c93          	mv	s9,s2
10000528:	01000693          	li	a3,16
1000052c:	00071023          	sh	zero,0(a4)
10000530:	00178793          	addi	a5,a5,1
10000534:	00270713          	addi	a4,a4,2
10000538:	fed79ae3          	bne	a5,a3,1000052c <main+0x148>
1000053c:	200027b7          	lui	a5,0x20002
10000540:	00200713          	li	a4,2
10000544:	00e7a023          	sw	a4,0(a5) # 20002000 <__stack_pointer+0x10001000>
10000548:	0ff0000f          	fence
1000054c:	00000793          	li	a5,0
10000550:	20002737          	lui	a4,0x20002
10000554:	01000693          	li	a3,16
10000558:	00041603          	lh	a2,0(s0)
1000055c:	00f72423          	sw	a5,8(a4) # 20002008 <__stack_pointer+0x10001008>
10000560:	00c72623          	sw	a2,12(a4)
10000564:	00178793          	addi	a5,a5,1
10000568:	00240413          	addi	s0,s0,2
1000056c:	fed796e3          	bne	a5,a3,10000558 <main+0x174>
10000570:	0ff0000f          	fence
10000574:	0a000793          	li	a5,160
10000578:	02f72023          	sw	a5,32(a4)
1000057c:	00000697          	auipc	a3,0x0
10000580:	c1c68693          	addi	a3,a3,-996 # 10000198 <fir_input>
10000584:	00000793          	li	a5,0
10000588:	20002737          	lui	a4,0x20002
1000058c:	0a000613          	li	a2,160
10000590:	00069583          	lh	a1,0(a3)
10000594:	00f72823          	sw	a5,16(a4) # 20002010 <__stack_pointer+0x10001010>
10000598:	00b72a23          	sw	a1,20(a4)
1000059c:	00178793          	addi	a5,a5,1
100005a0:	00268693          	addi	a3,a3,2
100005a4:	fec796e3          	bne	a5,a2,10000590 <main+0x1ac>
100005a8:	0ff0000f          	fence
100005ac:	00100793          	li	a5,1
100005b0:	00f72023          	sw	a5,0(a4)
100005b4:	20002737          	lui	a4,0x20002
100005b8:	00472783          	lw	a5,4(a4) # 20002004 <__stack_pointer+0x10001004>
100005bc:	0027f793          	andi	a5,a5,2
100005c0:	fe078ce3          	beqz	a5,100005b8 <main+0x1d4>
100005c4:	e01ff0ef          	jal	ra,100003c4 <put_crlf>
100005c8:	00000517          	auipc	a0,0x0
100005cc:	b4450513          	addi	a0,a0,-1212 # 1000010c <fir_coeff+0xb4>
100005d0:	000089b7          	lui	s3,0x8
100005d4:	dbdff0ef          	jal	ra,10000390 <put_str>
100005d8:	00000413          	li	s0,0
100005dc:	de9ff0ef          	jal	ra,100003c4 <put_crlf>
100005e0:	00000a93          	li	s5,0
100005e4:	02000b93          	li	s7,32
100005e8:	fff98d13          	addi	s10,s3,-1 # 7fff <status-0x2ff8009>
100005ec:	ffff8db7          	lui	s11,0xffff8
100005f0:	20002a37          	lui	s4,0x20002
100005f4:	00000b17          	auipc	s6,0x0
100005f8:	b2cb0b13          	addi	s6,s6,-1236 # 10000120 <fir_coeff+0xc8>
100005fc:	00049603          	lh	a2,0(s1)
10000600:	00000797          	auipc	a5,0x0
10000604:	cf678793          	addi	a5,a5,-778 # 100002f6 <fir_state_ps+0x1e>
10000608:	ffe7d703          	lhu	a4,-2(a5)
1000060c:	ffe78793          	addi	a5,a5,-2
10000610:	00e79123          	sh	a4,2(a5)
10000614:	fef91ae3          	bne	s2,a5,10000608 <main+0x224>
10000618:	00000797          	auipc	a5,0x0
1000061c:	ccc79023          	sh	a2,-832(a5) # 100002d8 <fir_state_ps>
10000620:	00000693          	li	a3,0
10000624:	00000793          	li	a5,0
10000628:	00000713          	li	a4,0
1000062c:	00dc0533          	add	a0,s8,a3
10000630:	00dc85b3          	add	a1,s9,a3
10000634:	00059583          	lh	a1,0(a1)
10000638:	00051503          	lh	a0,0(a0)
1000063c:	00c12623          	sw	a2,12(sp)
10000640:	00d12423          	sw	a3,8(sp)
10000644:	00e12023          	sw	a4,0(sp)
10000648:	00f12223          	sw	a5,4(sp)
1000064c:	cadff0ef          	jal	ra,100002f8 <__mulsi3>
10000650:	00412783          	lw	a5,4(sp)
10000654:	00012703          	lw	a4,0(sp)
10000658:	00812683          	lw	a3,8(sp)
1000065c:	41f55893          	srai	a7,a0,0x1f
10000660:	00a78533          	add	a0,a5,a0
10000664:	00f535b3          	sltu	a1,a0,a5
10000668:	01170733          	add	a4,a4,a7
1000066c:	00268693          	addi	a3,a3,2
10000670:	00050793          	mv	a5,a0
10000674:	00e58733          	add	a4,a1,a4
10000678:	00c12603          	lw	a2,12(sp)
1000067c:	fb7698e3          	bne	a3,s7,1000062c <main+0x248>
10000680:	01171713          	slli	a4,a4,0x11
10000684:	00f55793          	srli	a5,a0,0xf
10000688:	00f767b3          	or	a5,a4,a5
1000068c:	000d0713          	mv	a4,s10
10000690:	0137da63          	ble	s3,a5,100006a4 <main+0x2c0>
10000694:	ffff8737          	lui	a4,0xffff8
10000698:	01b7c663          	blt	a5,s11,100006a4 <main+0x2c0>
1000069c:	01079713          	slli	a4,a5,0x10
100006a0:	41075713          	srai	a4,a4,0x10
100006a4:	015a2c23          	sw	s5,24(s4) # 20002018 <__stack_pointer+0x10001018>
100006a8:	0ff0000f          	fence
100006ac:	01ca2683          	lw	a3,28(s4)
100006b0:	00e68463          	beq	a3,a4,100006b8 <main+0x2d4>
100006b4:	00140413          	addi	s0,s0,1
100006b8:	000a8593          	mv	a1,s5
100006bc:	000b0513          	mv	a0,s6
100006c0:	1b0000ef          	jal	ra,10000870 <printf>
100006c4:	001a8a93          	addi	s5,s5,1
100006c8:	0a000793          	li	a5,160
100006cc:	00248493          	addi	s1,s1,2
100006d0:	f2fa96e3          	bne	s5,a5,100005fc <main+0x218>
100006d4:	cf1ff0ef          	jal	ra,100003c4 <put_crlf>
100006d8:	00000517          	auipc	a0,0x0
100006dc:	a5850513          	addi	a0,a0,-1448 # 10000130 <fir_coeff+0xd8>
100006e0:	00040693          	mv	a3,s0
100006e4:	408a8633          	sub	a2,s5,s0
100006e8:	0a000593          	li	a1,160
100006ec:	184000ef          	jal	ra,10000870 <printf>
100006f0:	00000517          	auipc	a0,0x0
100006f4:	a6850513          	addi	a0,a0,-1432 # 10000158 <fir_coeff+0x100>
100006f8:	00040663          	beqz	s0,10000704 <main+0x320>
100006fc:	00000517          	auipc	a0,0x0
10000700:	a6c50513          	addi	a0,a0,-1428 # 10000168 <fir_coeff+0x110>
10000704:	c8dff0ef          	jal	ra,10000390 <put_str>
10000708:	cbdff0ef          	jal	ra,100003c4 <put_crlf>
1000070c:	3fc000ef          	jal	ra,10000b08 <uart_write_flush>
10000710:	10500073          	wfi
10000714:	ffdff06f          	j	10000710 <main+0x32c>

10000718 <print_reversed_with_padding>:
10000718:	fe010113          	addi	sp,sp,-32
1000071c:	00812c23          	sw	s0,24(sp)
10000720:	01212823          	sw	s2,16(sp)
10000724:	00112e23          	sw	ra,28(sp)
10000728:	00912a23          	sw	s1,20(sp)
1000072c:	00050913          	mv	s2,a0
10000730:	00058413          	mv	s0,a1
10000734:	02c46463          	bltu	s0,a2,1000075c <print_reversed_with_padding+0x44>
10000738:	fff00493          	li	s1,-1
1000073c:	fff40413          	addi	s0,s0,-1
10000740:	04941063          	bne	s0,s1,10000780 <print_reversed_with_padding+0x68>
10000744:	01c12083          	lw	ra,28(sp)
10000748:	01812403          	lw	s0,24(sp)
1000074c:	01412483          	lw	s1,20(sp)
10000750:	01012903          	lw	s2,16(sp)
10000754:	02010113          	addi	sp,sp,32
10000758:	00008067          	ret
1000075c:	00068513          	mv	a0,a3
10000760:	00c12623          	sw	a2,12(sp)
10000764:	00d12423          	sw	a3,8(sp)
10000768:	3c0000ef          	jal	ra,10000b28 <putchar>
1000076c:	00c12603          	lw	a2,12(sp)
10000770:	00812683          	lw	a3,8(sp)
10000774:	fff60613          	addi	a2,a2,-1
10000778:	0ff67613          	andi	a2,a2,255
1000077c:	fb9ff06f          	j	10000734 <print_reversed_with_padding+0x1c>
10000780:	008907b3          	add	a5,s2,s0
10000784:	0007c503          	lbu	a0,0(a5)
10000788:	3a0000ef          	jal	ra,10000b28 <putchar>
1000078c:	fb1ff06f          	j	1000073c <print_reversed_with_padding+0x24>

10000790 <format_dec32>:
10000790:	fe010113          	addi	sp,sp,-32
10000794:	01312623          	sw	s3,12(sp)
10000798:	00112e23          	sw	ra,28(sp)
1000079c:	00812c23          	sw	s0,24(sp)
100007a0:	00912a23          	sw	s1,20(sp)
100007a4:	01212823          	sw	s2,16(sp)
100007a8:	00050993          	mv	s3,a0
100007ac:	06058263          	beqz	a1,10000810 <__global_pointer+0x10>
100007b0:	00058493          	mv	s1,a1
100007b4:	00000793          	li	a5,0
100007b8:	00a00593          	li	a1,10
100007bc:	00048513          	mv	a0,s1
100007c0:	00178413          	addi	s0,a5,1
100007c4:	00f98933          	add	s2,s3,a5
100007c8:	b7dff0ef          	jal	ra,10000344 <__umodsi3>
100007cc:	03050513          	addi	a0,a0,48
100007d0:	00a90023          	sb	a0,0(s2)
100007d4:	00a00593          	li	a1,10
100007d8:	00048513          	mv	a0,s1
100007dc:	b3dff0ef          	jal	ra,10000318 <__udivsi3>
100007e0:	0ff47413          	andi	s0,s0,255
100007e4:	00050493          	mv	s1,a0
100007e8:	00040793          	mv	a5,s0
100007ec:	fc0516e3          	bnez	a0,100007b8 <format_dec32+0x28>
100007f0:	00040513          	mv	a0,s0
100007f4:	01c12083          	lw	ra,28(sp)
100007f8:	01812403          	lw	s0,24(sp)
100007fc:	01412483          	lw	s1,20(sp)
10000800:	01012903          	lw	s2,16(sp)
10000804:	00c12983          	lw	s3,12(sp)
10000808:	02010113          	addi	sp,sp,32
1000080c:	00008067          	ret
10000810:	03000793          	li	a5,48
10000814:	00f50023          	sb	a5,0(a0)
10000818:	00100413          	li	s0,1
1000081c:	fd5ff06f          	j	100007f0 <format_dec32+0x60>

10000820 <format_hex32>:
10000820:	04058063          	beqz	a1,10000860 <format_hex32+0x40>
10000824:	00000713          	li	a4,0
10000828:	00000617          	auipc	a2,0x0
1000082c:	95860613          	addi	a2,a2,-1704 # 10000180 <hex_symbols>
10000830:	00f5f693          	andi	a3,a1,15
10000834:	00d606b3          	add	a3,a2,a3
10000838:	0006c683          	lbu	a3,0(a3)
1000083c:	00170793          	addi	a5,a4,1 # ffff8001 <pulp__FC+0xffff8002>
10000840:	00e50733          	add	a4,a0,a4
10000844:	0ff7f793          	andi	a5,a5,255
10000848:	00d70023          	sb	a3,0(a4)
1000084c:	0045d593          	srli	a1,a1,0x4
10000850:	00078713          	mv	a4,a5
10000854:	fc059ee3          	bnez	a1,10000830 <format_hex32+0x10>
10000858:	00078513          	mv	a0,a5
1000085c:	00008067          	ret
10000860:	03000793          	li	a5,48
10000864:	00f50023          	sb	a5,0(a0)
10000868:	00100793          	li	a5,1
1000086c:	fedff06f          	j	10000858 <format_hex32+0x38>

10000870 <printf>:
10000870:	f8010113          	addi	sp,sp,-128
10000874:	06f12a23          	sw	a5,116(sp)
10000878:	06410793          	addi	a5,sp,100
1000087c:	04812c23          	sw	s0,88(sp)
10000880:	05412423          	sw	s4,72(sp)
10000884:	05512223          	sw	s5,68(sp)
10000888:	05612023          	sw	s6,64(sp)
1000088c:	03712e23          	sw	s7,60(sp)
10000890:	03812c23          	sw	s8,56(sp)
10000894:	04112e23          	sw	ra,92(sp)
10000898:	04912a23          	sw	s1,84(sp)
1000089c:	05212823          	sw	s2,80(sp)
100008a0:	05312623          	sw	s3,76(sp)
100008a4:	00050413          	mv	s0,a0
100008a8:	06b12223          	sw	a1,100(sp)
100008ac:	06c12423          	sw	a2,104(sp)
100008b0:	06d12623          	sw	a3,108(sp)
100008b4:	06e12823          	sw	a4,112(sp)
100008b8:	07012c23          	sw	a6,120(sp)
100008bc:	07112e23          	sw	a7,124(sp)
100008c0:	02f12023          	sw	a5,32(sp)
100008c4:	02500a13          	li	s4,37
100008c8:	03000a93          	li	s5,48
100008cc:	00900b93          	li	s7,9
100008d0:	07300b13          	li	s6,115
100008d4:	fff00c13          	li	s8,-1
100008d8:	00044503          	lbu	a0,0(s0)
100008dc:	02051a63          	bnez	a0,10000910 <printf+0xa0>
100008e0:	05c12083          	lw	ra,92(sp)
100008e4:	05812403          	lw	s0,88(sp)
100008e8:	05412483          	lw	s1,84(sp)
100008ec:	05012903          	lw	s2,80(sp)
100008f0:	04c12983          	lw	s3,76(sp)
100008f4:	04812a03          	lw	s4,72(sp)
100008f8:	04412a83          	lw	s5,68(sp)
100008fc:	04012b03          	lw	s6,64(sp)
10000900:	03c12b83          	lw	s7,60(sp)
10000904:	03812c03          	lw	s8,56(sp)
10000908:	08010113          	addi	sp,sp,128
1000090c:	00008067          	ret
10000910:	17451063          	bne	a0,s4,10000a70 <printf+0x200>
10000914:	00144783          	lbu	a5,1(s0)
10000918:	01479a63          	bne	a5,s4,1000092c <printf+0xbc>
1000091c:	02500513          	li	a0,37
10000920:	208000ef          	jal	ra,10000b28 <putchar>
10000924:	00240413          	addi	s0,s0,2
10000928:	fb1ff06f          	j	100008d8 <printf+0x68>
1000092c:	07578a63          	beq	a5,s5,100009a0 <printf+0x130>
10000930:	00140413          	addi	s0,s0,1
10000934:	02000993          	li	s3,32
10000938:	00000913          	li	s2,0
1000093c:	00044483          	lbu	s1,0(s0)
10000940:	fd048793          	addi	a5,s1,-48
10000944:	0ff7f793          	andi	a5,a5,255
10000948:	06fbf263          	bleu	a5,s7,100009ac <printf+0x13c>
1000094c:	13648663          	beq	s1,s6,10000a78 <printf+0x208>
10000950:	069b6e63          	bltu	s6,s1,100009cc <printf+0x15c>
10000954:	06300793          	li	a5,99
10000958:	10f48463          	beq	s1,a5,10000a60 <printf+0x1f0>
1000095c:	06400793          	li	a5,100
10000960:	0cf48a63          	beq	s1,a5,10000a34 <printf+0x1c4>
10000964:	02500513          	li	a0,37
10000968:	1c0000ef          	jal	ra,10000b28 <putchar>
1000096c:	01599663          	bne	s3,s5,10000978 <printf+0x108>
10000970:	03000513          	li	a0,48
10000974:	1b4000ef          	jal	ra,10000b28 <putchar>
10000978:	00090e63          	beqz	s2,10000994 <printf+0x124>
1000097c:	00090593          	mv	a1,s2
10000980:	01c10513          	addi	a0,sp,28
10000984:	e0dff0ef          	jal	ra,10000790 <format_dec32>
10000988:	00050493          	mv	s1,a0
1000098c:	fff48493          	addi	s1,s1,-1
10000990:	11849c63          	bne	s1,s8,10000aa8 <printf+0x238>
10000994:	00044503          	lbu	a0,0(s0)
10000998:	06050863          	beqz	a0,10000a08 <printf+0x198>
1000099c:	0d40006f          	j	10000a70 <printf+0x200>
100009a0:	00240413          	addi	s0,s0,2
100009a4:	03000993          	li	s3,48
100009a8:	f91ff06f          	j	10000938 <printf+0xc8>
100009ac:	00090513          	mv	a0,s2
100009b0:	00a00593          	li	a1,10
100009b4:	945ff0ef          	jal	ra,100002f8 <__mulsi3>
100009b8:	00a48533          	add	a0,s1,a0
100009bc:	fd050613          	addi	a2,a0,-48
100009c0:	0ff67913          	andi	s2,a2,255
100009c4:	00140413          	addi	s0,s0,1
100009c8:	f75ff06f          	j	1000093c <printf+0xcc>
100009cc:	07500793          	li	a5,117
100009d0:	04f48463          	beq	s1,a5,10000a18 <printf+0x1a8>
100009d4:	07800793          	li	a5,120
100009d8:	f8f496e3          	bne	s1,a5,10000964 <printf+0xf4>
100009dc:	02012783          	lw	a5,32(sp)
100009e0:	02410513          	addi	a0,sp,36
100009e4:	0007a583          	lw	a1,0(a5)
100009e8:	00478713          	addi	a4,a5,4
100009ec:	02e12023          	sw	a4,32(sp)
100009f0:	e31ff0ef          	jal	ra,10000820 <format_hex32>
100009f4:	00050593          	mv	a1,a0
100009f8:	00098693          	mv	a3,s3
100009fc:	00090613          	mv	a2,s2
10000a00:	02410513          	addi	a0,sp,36
10000a04:	d15ff0ef          	jal	ra,10000718 <print_reversed_with_padding>
10000a08:	00044783          	lbu	a5,0(s0)
10000a0c:	ec0786e3          	beqz	a5,100008d8 <printf+0x68>
10000a10:	00140413          	addi	s0,s0,1
10000a14:	ec5ff06f          	j	100008d8 <printf+0x68>
10000a18:	02012783          	lw	a5,32(sp)
10000a1c:	00478713          	addi	a4,a5,4
10000a20:	0007a583          	lw	a1,0(a5)
10000a24:	02e12023          	sw	a4,32(sp)
10000a28:	02410513          	addi	a0,sp,36
10000a2c:	d65ff0ef          	jal	ra,10000790 <format_dec32>
10000a30:	fc5ff06f          	j	100009f4 <printf+0x184>
10000a34:	02012783          	lw	a5,32(sp)
10000a38:	00478713          	addi	a4,a5,4
10000a3c:	0007a583          	lw	a1,0(a5)
10000a40:	02e12023          	sw	a4,32(sp)
10000a44:	fe05d2e3          	bgez	a1,10000a28 <printf+0x1b8>
10000a48:	02d00513          	li	a0,45
10000a4c:	00b12623          	sw	a1,12(sp)
10000a50:	0d8000ef          	jal	ra,10000b28 <putchar>
10000a54:	00c12583          	lw	a1,12(sp)
10000a58:	40b005b3          	neg	a1,a1
10000a5c:	fcdff06f          	j	10000a28 <printf+0x1b8>
10000a60:	02012783          	lw	a5,32(sp)
10000a64:	00478713          	addi	a4,a5,4
10000a68:	0007c503          	lbu	a0,0(a5)
10000a6c:	02e12023          	sw	a4,32(sp)
10000a70:	0b8000ef          	jal	ra,10000b28 <putchar>
10000a74:	f95ff06f          	j	10000a08 <printf+0x198>
10000a78:	02012783          	lw	a5,32(sp)
10000a7c:	00478713          	addi	a4,a5,4
10000a80:	0007a483          	lw	s1,0(a5)
10000a84:	02e12023          	sw	a4,32(sp)
10000a88:	00049663          	bnez	s1,10000a94 <printf+0x224>
10000a8c:	fffff497          	auipc	s1,0xfffff
10000a90:	70448493          	addi	s1,s1,1796 # 10000190 <hex_symbols+0x10>
10000a94:	0004c503          	lbu	a0,0(s1)
10000a98:	f60508e3          	beqz	a0,10000a08 <printf+0x198>
10000a9c:	00148493          	addi	s1,s1,1
10000aa0:	088000ef          	jal	ra,10000b28 <putchar>
10000aa4:	ff1ff06f          	j	10000a94 <printf+0x224>
10000aa8:	01c10713          	addi	a4,sp,28
10000aac:	009707b3          	add	a5,a4,s1
10000ab0:	0007c503          	lbu	a0,0(a5)
10000ab4:	074000ef          	jal	ra,10000b28 <putchar>
10000ab8:	ed5ff06f          	j	1000098c <printf+0x11c>

10000abc <uart_init>:
10000abc:	030027b7          	lui	a5,0x3002
10000ac0:	00078223          	sb	zero,4(a5) # 3002004 <status+0x1ffc>
10000ac4:	f8000713          	li	a4,-128
10000ac8:	00e78623          	sb	a4,12(a5)
10000acc:	03400713          	li	a4,52
10000ad0:	00e78023          	sb	a4,0(a5)
10000ad4:	00078223          	sb	zero,4(a5)
10000ad8:	00300713          	li	a4,3
10000adc:	00e78623          	sb	a4,12(a5)
10000ae0:	fc700713          	li	a4,-57
10000ae4:	00e78423          	sb	a4,8(a5)
10000ae8:	00078823          	sb	zero,16(a5)
10000aec:	00008067          	ret

10000af0 <uart_write>:
10000af0:	03002737          	lui	a4,0x3002
10000af4:	01474783          	lbu	a5,20(a4) # 3002014 <status+0x200c>
10000af8:	0207f793          	andi	a5,a5,32
10000afc:	fe078ce3          	beqz	a5,10000af4 <uart_write+0x4>
10000b00:	00a70023          	sb	a0,0(a4)
10000b04:	00008067          	ret

10000b08 <uart_write_flush>:
10000b08:	03002737          	lui	a4,0x3002
10000b0c:	01474783          	lbu	a5,20(a4) # 3002014 <status+0x200c>
10000b10:	0207f793          	andi	a5,a5,32
10000b14:	fe078ce3          	beqz	a5,10000b0c <uart_write_flush+0x4>
10000b18:	01474783          	lbu	a5,20(a4)
10000b1c:	0407f793          	andi	a5,a5,64
10000b20:	fe0786e3          	beqz	a5,10000b0c <uart_write_flush+0x4>
10000b24:	00008067          	ret

10000b28 <putchar>:
10000b28:	fc9ff06f          	j	10000af0 <uart_write>

Disassembly of section .Pulp_Chip.Info:

00000000 <.Pulp_Chip.Info>:
   0:	000a                	0xa
   2:	0000                	unimp
   4:	0038                	addi	a4,sp,8
   6:	0000                	unimp
   8:	0001                	nop
   a:	0000                	unimp
   c:	7550                	flw	fa2,44(a0)
   e:	706c                	flw	fa1,100(s0)
  10:	495f 666e 006f      	0x6f666e495f
  16:	70696863          	bltu	s2,t1,726 <status-0x2fff8e2>
  1a:	6e3d                	lui	t3,0xf
  1c:	20656e6f          	jal	t3,56222 <status-0x2fa9de6>
  20:	3d757063          	bleu	s7,a0,3e0 <status-0x2fffc28>
  24:	6f6e                	flw	ft10,216(sp)
  26:	656e                	flw	fa0,216(sp)
  28:	7020                	flw	fs0,96(s0)
  2a:	3d65                	jal	fffffee2 <pulp__FC+0xfffffee3>
  2c:	312d                	jal	fffffc56 <pulp__FC+0xfffffc57>
  2e:	6620                	flw	fs0,72(a2)
  30:	312d3d63          	p.bneimm	s10,-14,34a <status-0x2fffcbe>
  34:	6c20                	flw	fs0,88(s0)
  36:	3d32                	fld	fs10,296(sp)
  38:	312d                	jal	fffffc62 <pulp__FC+0xfffffc63>
  3a:	6c20                	flw	fs0,88(s0)
  3c:	6331                	lui	t1,0xc
  3e:	3d6c                	fld	fa1,248(a0)
  40:	312d                	jal	fffffc6a <pulp__FC+0xfffffc6b>
  42:	6c20                	flw	fs0,88(s0)
  44:	6631                	lui	a2,0xc
  46:	312d3d63          	p.bneimm	s10,-14,360 <status-0x2fffca8>
  4a:	0000                	unimp
	...
