
bin/referensi_matlab_fir_prog1.elf:     file format elf32-littleriscv

Contents of section .text._start:
 10000000 97110000 93810180 17110000 130181ff  ................
 10000010 93000000 13020000 93020000 13030000  ................
 10000020 93030000 13040000 93040000 13050000  ................
 10000030 93050000 13060000 93060000 13070000  ................
 10000040 93070000 ef00c024 970200f3 938202fc  .......$........
 10000050 23a0a200 73005010                    #...s.P.        
Contents of section .misc:
 10000058 cef90d04 7d081002 40f6a6fa 87176635  ....}...@.....f5
 10000068 66358717 a6fa40f6 10027d08 0d04cef9  f5....@...}.....
 10000078 52454620 46495220 4155544f 2052554e  REF FIR AUTO RUN
 10000088 00000000 666f726d 61743a20 7820795f  ....format: x y_
 10000098 68772079 5f6d6174 6c616200 25642025  hw y_matlab.%d %
 100000a8 64202564 0d0a0000 1a00c5ff c9ff3f00  d %d..........?.
 100000b8 b300f4ff 20fff4fe 30013603 ea02fffe  .... ...0.6.....
 100000c8 f6fbfbfc 3f00e101 e1000701 9d035a05  ....?.........Z.
 100000d8 640360ff 2efc36fd 47fffd00 7effa2fd  d.`...6.G...~...
 100000e8 38fd31fd 14ffbb00 9d00eeff c3fef1fd  8.1.............
 100000f8 f0fc7bfc 8aff6e04 22072e05 9800d7fe  ..{...n.".......
 10000108 87fec8ff a7fefbfc f4fd94ff 6b015101  ............k.Q.
 10000118 b7ff51ff b5ff7a01 8603e704 74054405  ..Q...z.....t.D.
 10000128 e6fd6303 d0035101 1cfcf5fd effa9503  ..c...Q.........
 10000138 b100f302 b0fd3407 190784ff a9fb57fd  ......4.......W.
 10000148 0e00c4ff 6bfd3201 67fefefa e3febfff  ....k.2.g.......
 10000158 e803dffc 5c001201 aaf79401 41fcbafe  ....\.......A...
 10000168 af090306 3b0360ff a6fc8e01 1fffddfa  ....;.`.........
 10000178 eaff90fc 550430fe 9902eefd 29009b00  ....U.0.....)...
 10000188 bffe6208 2003ac04 32088401 1504a4fa  ..b. ...2.......
 10000198 42fc93f5 ddfc3dfe 30313233 34353637  B.....=.01234567
 100001a8 38394142 43444546 286e756c 6c290000  89ABCDEF(null)..
 100001b8 00000000 00000000 00000000 00000000  ................
 100001c8 00000000 00000000 00000000 00000000  ................
Contents of section .text:
 100001d8 2a860145 93f61500 91c23295 85810606  *..E......2.....
 100001e8 f5f98280 00000000 634e0502 63c30504  ........cN..c...
 100001f8 2e86aa85 7d5515c2 85466378 b6006356  ....}U...Fcx..cV
 10000208 c0000606 8606e36c b6fe0145 63e4c500  .......l...Ec...
 10000218 918d558d 85820582 f5fa8280 8682c93f  ..U............?
 10000228 2e858282 3305a040 63d70500 b305b040  ....3..@c......@
 10000238 c1b7b305 b0408682 653f3305 a0408282  .....@..e?3..@..
 10000248 868263c7 05006349 05005d37 2e858282  ..c...cI..]7....
 10000258 b305b040 e35b05fe 3305a040 513f3305  ...@.[..3..@Q?3.
 10000268 b0408282 00000000 130101ff 1305d000  .@..............
 10000278 23261100 ef00c058 8320c100 1305a000  #&.....X. ......
 10000288 13010101 6f00c057 130101fa 232e1104  ....o..W....#...
 10000298 232c8104 232a9104 23282105 23263105  #,..#*..#(!.#&1.
 100002a8 23244105 23225105 23206105 232e7103  #$A.#"Q.# a.#.q.
 100002b8 232c8103 232a9103 2328a103 2326b103  #,..#*..#(..#&..
 100002c8 17040000 130404db ef004050 eff0dff9  ..........@P....
 100002d8 03450400 63160512 eff01ff9 17040000  .E..c...........
 100002e8 130484da 03450400 63120512 970a0000  .....E..c.......
 100002f8 938a4aec b7490000 371a0300 eff0dff6  ..J..I..7.......
 10000308 170b0000 130b0be2 ef000051 938c0a00  ...........Q....
 10000318 970b0000 938b0bd4 170c0000 130c0cd9  ................
 10000328 938979a9 130afad3 93040000 130d0002  ..y.............
 10000338 b3079b00 03970700 97070000 938767e9  ..............g.
 10000348 83d6e7ff 9387e7ff 2391d700 e39afafe  ........#.......
 10000358 97070000 2390e7e6 13090000 13040000  ....#...........
 10000368 930d0000 b3872b01 b3862c01 83950600  ......+...,.....
 10000378 03950700 2326e100 eff09fe5 9356f541  ....#&.......V.A
 10000388 3305a400 b3378500 b38ddd00 13092900  3....7........).
 10000398 13040500 b38db701 0327c100 e314a9fd  .........'......
 100003a8 b3079c00 83960700 1356f500 13160601  .........V......
 100003b8 9386863e 13560641 93050700 17050000  ...>.V.A........
 100003c8 130505ce ef00c01b 232c0100 83278101  ........#,...'..
 100003d8 63d4f904 93842400 93078007 e39af4f4  c.....$.........
 100003e8 ef008043 232e0100 8327c101 e34efaf2  ...C#....'...N..
 100003f8 8327c101 93871700 232ef100 6ff0dffe  .'......#...o...
 10000408 13041400 ef00c03f 6ff09fec 13041400  .......?o.......
 10000418 ef00003f 6ff01fed 83278101 93871700  ...?o....'......
 10000428 232cf100 6ff09ffa 130101fe 232c8100  #,..o.......#,..
 10000438 23282101 232e1100 232a9100 13090500  #(!.#...#*......
 10000448 13840500 6364c402 9304f0ff 1304f4ff  ....cd..........
 10000458 63109404 8320c101 03248101 83244101  c.... ...$...$A.
 10000468 03290101 13010102 67800000 13850600  .)......g.......
 10000478 2326c100 2324d100 ef00003c 0326c100  #&..#$.....<.&..
 10000488 83268100 1306f6ff 1376f60f 6ff09ffb  .&.......v..o...
 10000498 b3078900 03c50700 ef00003a 6ff01ffb  ...........:o...
 100004a8 130101fe 23263101 232e1100 232c8100  ....#&1.#...#,..
 100004b8 232a9100 23282101 93090500 63820506  #*..#(!.....c...
 100004c8 93840500 93070000 9305a000 13850400  ................
 100004d8 13841700 3389f900 eff05fd4 13050503  ....3....._.....
 100004e8 2300a900 9305a000 13850400 eff05fd0  #............._.
 100004f8 1374f40f 93040500 93070400 e31605fc  .t..............
 10000508 13050400 8320c101 03248101 83244101  ..... ...$...$A.
 10000518 03290101 8329c100 13010102 67800000  .)...)......g...
 10000528 93070003 2300f500 13041000 6ff05ffd  ....#.......o._.
 10000538 63800504 13070000 17060000 130606c6  c...............
 10000548 93f6f500 b306d600 83c60600 93071700  ................
 10000558 3307e500 93f7f70f 2300d700 93d54500  3.......#.....E.
 10000568 13870700 e39e05fc 13850700 67800000  ............g...
 10000578 93070003 2300f500 93071000 6ff0dffe  ....#.......o...
 10000588 130101f8 232af106 93074106 232c8104  ....#*....A.#,..
 10000598 23244105 23225105 23206105 232e7103  #$A.#"Q.# a.#.q.
 100005a8 232c8103 232e1104 232a9104 23282105  #,..#...#*..#(!.
 100005b8 23263105 13040500 2322b106 2324c106  #&1.....#"..#$..
 100005c8 2326d106 2328e106 232c0107 232e1107  #&..#(..#,..#...
 100005d8 2320f102 130a5002 930a0003 930b9000  # ....P.........
 100005e8 130b3007 130cf0ff 03450400 631a0502  ..0......E..c...
 100005f8 8320c105 03248105 83244105 03290105  . ...$...$A..)..
 10000608 8329c104 032a8104 832a4104 032b0104  .)...*...*A..+..
 10000618 832bc103 032c8103 13010108 67800000  .+...,......g...
 10000628 63104517 83471400 639a4701 13055002  c.E..G..c.G...P.
 10000638 ef008020 13042400 6ff01ffb 638a5707  ... ..$.o...c.W.
 10000648 13041400 93090002 13090000 83440400  .............D..
 10000658 938704fd 93f7f70f 63f2fb06 63866413  ........c...c.d.
 10000668 636e9b06 93073006 6384f410 93074006  cn....0.c.....@.
 10000678 638af40c 13055002 ef00001c 63965901  c.....P.....c.Y.
 10000688 13050003 ef00401b 630e0900 93050900  ......@.c.......
 10000698 1305c101 eff0dfe0 93040500 9384f4ff  ................
 100006a8 639c8411 03450400 63080506 6f00400d  c....E..c...o.@.
 100006b8 13042400 93090003 6ff01ff9 13050900  ..$.....o.......
 100006c8 9305a000 eff0dfb0 3385a400 130605fd  ........3.......
 100006d8 1379f60f 13041400 6ff05ff7 93075007  .y......o._...P.
 100006e8 6384f404 93078007 e396f4f8 83270102  c............'..
 100006f8 13054102 83a50700 13874700 2320e102  ..A.......G.# ..
 10000708 eff01fe3 93050500 93860900 13060900  ................
 10000718 13054102 eff05fd1 83470400 e38607ec  ..A..._..G......
 10000728 13041400 6ff05fec 83270102 13874700  ....o._..'....G.
 10000738 83a50700 2320e102 13054102 eff05fd6  ....# ....A..._.
 10000748 6ff05ffc 83270102 13874700 83a50700  o._..'....G.....
 10000758 2320e102 e3d205fe 1305d002 2326b100  # ..........#&..
 10000768 ef00800d 8325c100 b305b040 6ff0dffc  .....%.....@o...
 10000778 83270102 13874700 03c50700 2320e102  .'....G.....# ..
 10000788 ef00800b 6ff05ff9 83270102 13874700  ....o._..'....G.
 10000798 83a40700 2320e102 63960400 97040000  ....# ..c.......
 100007a8 9384c4a0 03c50400 e30805f6 93841400  ................
 100007b8 ef008008 6ff01fff 1307c101 b3079700  ....o...........
 100007c8 03c50700 ef004007 6ff05fed b7270003  ......@.o._..'..
 100007d8 23820700 130700f8 2386e700 13074003  #.......#.....@.
 100007e8 2380e700 23820700 13073000 2386e700  #...#.....0.#...
 100007f8 130770fc 2384e700 23880700 67800000  ..p.#...#...g...
 10000808 37270003 83474701 93f70702 e38c07fe  7'...GG.........
 10000818 2300a700 67800000 37270003 83474701  #...g...7'...GG.
 10000828 93f70702 e38c07fe 83474701 93f70704  .........GG.....
 10000838 e38607fe 67800000 6ff09ffc           ....g...o...    
Contents of section .Pulp_Chip.Info:
 0000 0a000000 38000000 01000000 50756c70  ....8.......Pulp
 0010 5f496e66 6f006368 69703d6e 6f6e6520  _Info.chip=none 
 0020 6370753d 6e6f6e65 2070653d 2d312066  cpu=none pe=-1 f
 0030 633d2d31 206c323d 2d31206c 31636c3d  c=-1 l2=-1 l1cl=
 0040 2d31206c 3166633d 2d310000 0000      -1 l1fc=-1....  
Contents of section .debug_line:
 0000 ac000000 02006600 00000101 fb0e0d00  ......f.........
 0010 01010101 00000001 0000012f 686f6d65  .........../home
 0020 2f646576 616e2f53 6f432f70 756c702d  /devan/SoC/pulp-
 0030 72697363 762d676e 752d746f 6f6c6368  riscv-gnu-toolch
 0040 61696e2f 72697363 762d6763 632f6c69  ain/riscv-gcc/li
 0050 62676363 2f636f6e 6669672f 72697363  bgcc/config/risc
 0060 7600006d 756c6469 332e5300 01000000  v..muldi3.S.....
 0070 000502d8 01001003 23010301 09020001  ........#.......
 0080 03020902 00010301 09040001 03010902  ................
 0090 00010302 09020001 03010902 00010301  ................
 00a0 09020001 03010902 00010902 00000101  ................
 00b0 82010000 02006300 00000101 fb0e0d00  ......c.........
 00c0 01010101 00000001 0000012f 686f6d65  .........../home
 00d0 2f646576 616e2f53 6f432f70 756c702d  /devan/SoC/pulp-
 00e0 72697363 762d676e 752d746f 6f6c6368  riscv-gnu-toolch
 00f0 61696e2f 72697363 762d6763 632f6c69  ain/riscv-gcc/li
 0100 62676363 2f636f6e 6669672f 72697363  bgcc/config/risc
 0110 76000064 69762e53 00010000 00000502  v..div.S........
 0120 f0010010 03c50001 03010904 00010305  ................
 0130 09040001 03010902 00010301 09020001  ................
 0140 03010902 00010301 09020001 03010902  ................
 0150 00010302 09040001 03010904 00010301  ................
 0160 09020001 03010902 00010302 09040001  ................
 0170 03020902 00010301 09040001 03010902  ................
 0180 00010302 09020001 03010902 00010301  ................
 0190 09020001 03020902 00010305 09020001  ................
 01a0 03010902 00010301 09020001 03010902  ................
 01b0 00010304 09020001 03010904 00010301  ................
 01c0 09040001 03010904 00010302 09020001  ................
 01d0 03020904 00010301 09020001 03010902  ................
 01e0 00010301 09040001 03040902 00010301  ................
 01f0 09020001 03010904 00010302 09040001  ................
 0200 03010902 00010301 09020001 03020902  ................
 0210 00010301 09040001 03020904 00010301  ................
 0220 09040001 03010902 00010301 09040001  ................
 0230 09020000 0101                        ......          
Contents of section .debug_info:
 0000 d0000000 02000000 00000401 00000000  ................
 0010 d8010010 ec010010 2f686f6d 652f6465  ......../home/de
 0020 76616e2f 536f432f 70756c70 2d726973  van/SoC/pulp-ris
 0030 63762d67 6e752d74 6f6f6c63 6861696e  cv-gnu-toolchain
 0040 2f726973 63762d67 63632f6c 69626763  /riscv-gcc/libgc
 0050 632f636f 6e666967 2f726973 63762f6d  c/config/riscv/m
 0060 756c6469 332e5300 2f686f6d 652f6465  uldi3.S./home/de
 0070 76616e2f 536f432f 70756c70 2d726973  van/SoC/pulp-ris
 0080 63762d67 6e752d74 6f6f6c63 6861696e  cv-gnu-toolchain
 0090 2f627569 6c642d67 63632d6e 65776c69  /build-gcc-newli
 00a0 622d7374 61676532 2f726973 63763332  b-stage2/riscv32
 00b0 2d756e6b 6e6f776e 2d656c66 2f6c6962  -unknown-elf/lib
 00c0 67636300 474e5520 41532032 2e32382e  gcc.GNU AS 2.28.
 00d0 30000180 cd000000 02001400 00000401  0...............
 00e0 b0000000 f0010010 6c020010 2f686f6d  ........l.../hom
 00f0 652f6465 76616e2f 536f432f 70756c70  e/devan/SoC/pulp
 0100 2d726973 63762d67 6e752d74 6f6f6c63  -riscv-gnu-toolc
 0110 6861696e 2f726973 63762d67 63632f6c  hain/riscv-gcc/l
 0120 69626763 632f636f 6e666967 2f726973  ibgcc/config/ris
 0130 63762f64 69762e53 002f686f 6d652f64  cv/div.S./home/d
 0140 6576616e 2f536f43 2f70756c 702d7269  evan/SoC/pulp-ri
 0150 7363762d 676e752d 746f6f6c 63686169  scv-gnu-toolchai
 0160 6e2f6275 696c642d 6763632d 6e65776c  n/build-gcc-newl
 0170 69622d73 74616765 322f7269 73637633  ib-stage2/riscv3
 0180 322d756e 6b6e6f77 6e2d656c 662f6c69  2-unknown-elf/li
 0190 62676363 00474e55 20415320 322e3238  bgcc.GNU AS 2.28
 01a0 2e300001 80                          .0...           
Contents of section .debug_abbrev:
 0000 01110010 06110112 0103081b 08250813  .............%..
 0010 05000000 01110010 06110112 0103081b  ................
 0020 08250813 05000000                    .%......        
Contents of section .debug_aranges:
 0000 1c000000 02000000 00000400 00000000  ................
 0010 d8010010 14000000 00000000 00000000  ................
 0020 1c000000 0200d400 00000400 00000000  ................
 0030 f0010010 7c000000 00000000 00000000  ....|...........

Disassembly of section .text._start:

10000000 <_start>:
10000000:	00001197          	auipc	gp,0x1
10000004:	80018193          	addi	gp,gp,-2048 # 10000800 <__global_pointer>
10000008:	00001117          	auipc	sp,0x1
1000000c:	ff810113          	addi	sp,sp,-8 # 10001000 <__stack_pointer>
10000010:	00000093          	li	ra,0
10000014:	00000213          	li	tp,0
10000018:	00000293          	li	t0,0
1000001c:	00000313          	li	t1,0
10000020:	00000393          	li	t2,0
10000024:	00000413          	li	s0,0
10000028:	00000493          	li	s1,0
1000002c:	00000513          	li	a0,0
10000030:	00000593          	li	a1,0
10000034:	00000613          	li	a2,0
10000038:	00000693          	li	a3,0
1000003c:	00000713          	li	a4,0
10000040:	00000793          	li	a5,0
10000044:	24c000ef          	jal	ra,10000290 <main>

10000048 <_eoc>:
10000048:	f3000297          	auipc	t0,0xf3000
1000004c:	fc028293          	addi	t0,t0,-64 # 3000008 <status>
10000050:	00a2a023          	sw	a0,0(t0)
10000054:	10500073          	wfi

Disassembly of section .misc:

10000058 <fir_coeff>:
10000058:	f9ce                	fsw	fs3,240(sp)
1000005a:	040d                	addi	s0,s0,3
1000005c:	087d                	addi	a6,a6,31
1000005e:	0210                	addi	a2,sp,256
10000060:	f640                	fsw	fs0,44(a2)
10000062:	faa6                	fsw	fs1,116(sp)
10000064:	35661787          	0x35661787
10000068:	3566                	fld	fa0,120(sp)
1000006a:	faa61787          	0xfaa61787
1000006e:	f640                	fsw	fs0,44(a2)
10000070:	0210                	addi	a2,sp,256
10000072:	087d                	addi	a6,a6,31
10000074:	040d                	addi	s0,s0,3
10000076:	f9ce                	fsw	fs3,240(sp)
10000078:	4552                	lw	a0,20(sp)
1000007a:	2046                	fld	ft0,80(sp)
1000007c:	4946                	lw	s2,80(sp)
1000007e:	2052                	fld	ft0,272(sp)
10000080:	5541                	li	a0,-16
10000082:	4f54                	lw	a3,28(a4)
10000084:	5220                	lw	s0,96(a2)
10000086:	4e55                	li	t3,21
10000088:	0000                	unimp
1000008a:	0000                	unimp
1000008c:	6f66                	flw	ft10,88(sp)
1000008e:	6d72                	flw	fs10,28(sp)
10000090:	7461                	lui	s0,0xffff8
10000092:	203a                	fld	ft0,392(sp)
10000094:	2078                	fld	fa4,192(s0)
10000096:	5f79                	li	t5,-2
10000098:	7768                	flw	fa0,108(a4)
1000009a:	7920                	flw	fs0,112(a0)
1000009c:	6d5f 7461 616c      	0x616c74616d5f
100000a2:	0062                	0x62
100000a4:	6425                	lui	s0,0x9
100000a6:	2520                	fld	fs0,72(a0)
100000a8:	2064                	fld	fs1,192(s0)
100000aa:	6425                	lui	s0,0x9
100000ac:	0a0d                	addi	s4,s4,3
	...

100000b0 <matlab_ref>:
100000b0:	001a                	0x1a
100000b2:	ffc5                	bnez	a5,1000006a <fir_coeff+0x12>
100000b4:	ffc9                	bnez	a5,1000004e <_eoc+0x6>
100000b6:	00b3003f ff20fff4 	0xff20fff400b3003f
100000be:	fef4                	fsw	fa3,124(a3)
100000c0:	0130                	addi	a2,sp,136
100000c2:	0336                	slli	t1,t1,0xd
100000c4:	02ea                	slli	t0,t0,0x1a
100000c6:	feff                	0xfeff
100000c8:	fbf6                	fsw	ft9,244(sp)
100000ca:	003ffcfb          	0x3ffcfb
100000ce:	01e1                	addi	gp,gp,24
100000d0:	00e1                	addi	ra,ra,24
100000d2:	039d0107          	0x39d0107
100000d6:	055a                	slli	a0,a0,0x16
100000d8:	0364                	addi	s1,sp,396
100000da:	ff60                	fsw	fs0,124(a4)
100000dc:	fc2e                	fsw	fa1,56(sp)
100000de:	fd36                	fsw	fa3,184(sp)
100000e0:	00fdff47          	fmsub.s	ft10,fs11,fa5,ft0
100000e4:	ff7e                	fsw	ft11,188(sp)
100000e6:	fda2                	fsw	fs0,248(sp)
100000e8:	fd38                	fsw	fa4,120(a0)
100000ea:	fd31                	bnez	a0,10000046 <_start+0x46>
100000ec:	ff14                	fsw	fa3,56(a4)
100000ee:	009d00bb          	0x9d00bb
100000f2:	ffee                	fsw	fs11,252(sp)
100000f4:	fdf1fec3          	fmadd.h	t4,gp,t6,t6
100000f8:	fcf0                	fsw	fa2,124(s1)
100000fa:	ff8afc7b          	0xff8afc7b
100000fe:	046e                	slli	s0,s0,0x1b
10000100:	0722                	slli	a4,a4,0x8
10000102:	052e                	slli	a0,a0,0xb
10000104:	0098                	addi	a4,sp,64
10000106:	fe87fed7          	0xfe87fed7
1000010a:	ffc8                	fsw	fa0,60(a5)
1000010c:	fcfbfea7          	0xfcfbfea7
10000110:	fdf4                	fsw	fa3,124(a1)
10000112:	ff94                	fsw	fa3,56(a5)
10000114:	0151016b          	0x151016b
10000118:	ff51ffb7          	lui	t6,0xff51f
1000011c:	ffb5                	bnez	a5,10000098 <fir_coeff+0x40>
1000011e:	017a                	slli	sp,sp,0x1e
10000120:	0386                	slli	t2,t2,0x1
10000122:	057404e7          	jalr	s1,87(s0) # 9057 <status-0x2ff6fb1>
10000126:	0544                	addi	s1,sp,644

10000128 <test_input>:
10000128:	fde6                	fsw	fs9,248(sp)
1000012a:	03d00363          	beq	zero,t4,10000150 <test_input+0x28>
1000012e:	0151                	addi	sp,sp,20
10000130:	fc1c                	fsw	fa5,56(s0)
10000132:	fdf5                	bnez	a1,1000012e <test_input+0x6>
10000134:	0395faef          	jal	s5,1005f96c <__stack_pointer+0x5e96c>
10000138:	00b1                	addi	ra,ra,12
1000013a:	fdb002f3          	0xfdb002f3
1000013e:	0734                	addi	a3,sp,904
10000140:	0719                	addi	a4,a4,6
10000142:	ff84                	fsw	fs1,56(a5)
10000144:	fba9                	bnez	a5,10000096 <fir_coeff+0x3e>
10000146:	000efd57          	pv.add.sci.b	s10,t4,0
1000014a:	ffc4                	fsw	fs1,60(a5)
1000014c:	0132fd6b          	0x132fd6b
10000150:	fafefe67          	0xfafefe67
10000154:	ffbffee3          	bleu	s11,t6,10000150 <test_input+0x28>
10000158:	03e8                	addi	a0,sp,460
1000015a:	fcdf 005c 0112      	0x112005cfcdf
10000160:	f7aa                	fsw	fa0,236(sp)
10000162:	0194                	addi	a3,sp,192
10000164:	fc41                	bnez	s0,100000fc <matlab_ref+0x4c>
10000166:	feba                	fsw	fa4,124(sp)
10000168:	060309af          	0x60309af
1000016c:	ff60033b          	0xff60033b
10000170:	fca6                	fsw	fs1,120(sp)
10000172:	018e                	slli	gp,gp,0x3
10000174:	ff1f fadd ffea      	0xffeafaddff1f
1000017a:	fc90                	fsw	fa2,56(s1)
1000017c:	0455                	addi	s0,s0,21
1000017e:	fe30                	fsw	fa2,120(a2)
10000180:	0299                	addi	t0,t0,6
10000182:	fdee                	fsw	fs11,248(sp)
10000184:	0029                	c.addi	zero,10
10000186:	febf009b          	0xfebf009b
1000018a:	0862                	slli	a6,a6,0x18
1000018c:	0320                	addi	s0,sp,392
1000018e:	04ac                	addi	a1,sp,584
10000190:	0832                	slli	a6,a6,0xc
10000192:	0184                	addi	s1,sp,192
10000194:	0415                	addi	s0,s0,5
10000196:	faa4                	fsw	fs1,112(a3)
10000198:	fc42                	fsw	fa6,56(sp)
1000019a:	fcddf593          	andi	a1,s11,-51
1000019e:	fe3d                	bnez	a2,1000011c <matlab_ref+0x6c>

100001a0 <hex_symbols>:
100001a0:	3130                	fld	fa2,96(a0)
100001a2:	3332                	fld	ft6,296(sp)
100001a4:	3534                	fld	fa3,104(a0)
100001a6:	3736                	fld	fa4,360(sp)
100001a8:	3938                	fld	fa4,112(a0)
100001aa:	4241                	li	tp,16
100001ac:	46454443          	0x46454443
100001b0:	6e28                	flw	fa0,88(a2)
100001b2:	6c75                	lui	s8,0x1d
100001b4:	296c                	fld	fa1,208(a0)
	...

100001b8 <fir_state>:
	...

Disassembly of section .text:

100001d8 <__mulsi3>:
100001d8:	862a                	mv	a2,a0
100001da:	4501                	li	a0,0
100001dc:	0015f693          	andi	a3,a1,1
100001e0:	c291                	beqz	a3,100001e4 <__mulsi3+0xc>
100001e2:	9532                	add	a0,a0,a2
100001e4:	8185                	srli	a1,a1,0x1
100001e6:	0606                	slli	a2,a2,0x1
100001e8:	f9f5                	bnez	a1,100001dc <__mulsi3+0x4>
100001ea:	8082                	ret
100001ec:	0000                	unimp
	...

100001f0 <__divsi3>:
100001f0:	02054e63          	bltz	a0,1000022c <__umodsi3+0x8>
100001f4:	0405c363          	bltz	a1,1000023a <__umodsi3+0x16>

100001f8 <__udivsi3>:
100001f8:	862e                	mv	a2,a1
100001fa:	85aa                	mv	a1,a0
100001fc:	557d                	li	a0,-1
100001fe:	c215                	beqz	a2,10000222 <__udivsi3+0x2a>
10000200:	4685                	li	a3,1
10000202:	00b67863          	bleu	a1,a2,10000212 <__udivsi3+0x1a>
10000206:	00c05663          	blez	a2,10000212 <__udivsi3+0x1a>
1000020a:	0606                	slli	a2,a2,0x1
1000020c:	0686                	slli	a3,a3,0x1
1000020e:	feb66ce3          	bltu	a2,a1,10000206 <__udivsi3+0xe>
10000212:	4501                	li	a0,0
10000214:	00c5e463          	bltu	a1,a2,1000021c <__udivsi3+0x24>
10000218:	8d91                	sub	a1,a1,a2
1000021a:	8d55                	or	a0,a0,a3
1000021c:	8285                	srli	a3,a3,0x1
1000021e:	8205                	srli	a2,a2,0x1
10000220:	faf5                	bnez	a3,10000214 <__udivsi3+0x1c>
10000222:	8082                	ret

10000224 <__umodsi3>:
10000224:	8286                	mv	t0,ra
10000226:	3fc9                	jal	100001f8 <__udivsi3>
10000228:	852e                	mv	a0,a1
1000022a:	8282                	jr	t0
1000022c:	40a00533          	neg	a0,a0
10000230:	0005d763          	bgez	a1,1000023e <__umodsi3+0x1a>
10000234:	40b005b3          	neg	a1,a1
10000238:	b7c1                	j	100001f8 <__udivsi3>
1000023a:	40b005b3          	neg	a1,a1
1000023e:	8286                	mv	t0,ra
10000240:	3f65                	jal	100001f8 <__udivsi3>
10000242:	40a00533          	neg	a0,a0
10000246:	8282                	jr	t0

10000248 <__modsi3>:
10000248:	8286                	mv	t0,ra
1000024a:	0005c763          	bltz	a1,10000258 <__modsi3+0x10>
1000024e:	00054963          	bltz	a0,10000260 <__modsi3+0x18>
10000252:	375d                	jal	100001f8 <__udivsi3>
10000254:	852e                	mv	a0,a1
10000256:	8282                	jr	t0
10000258:	40b005b3          	neg	a1,a1
1000025c:	fe055be3          	bgez	a0,10000252 <__modsi3+0xa>
10000260:	40a00533          	neg	a0,a0
10000264:	3f51                	jal	100001f8 <__udivsi3>
10000266:	40b00533          	neg	a0,a1
1000026a:	8282                	jr	t0
1000026c:	0000                	unimp
	...

10000270 <put_crlf>:
10000270:	ff010113          	addi	sp,sp,-16
10000274:	00d00513          	li	a0,13
10000278:	00112623          	sw	ra,12(sp)
1000027c:	58c000ef          	jal	ra,10000808 <uart_write>
10000280:	00c12083          	lw	ra,12(sp)
10000284:	00a00513          	li	a0,10
10000288:	01010113          	addi	sp,sp,16
1000028c:	57c0006f          	j	10000808 <uart_write>

10000290 <main>:
10000290:	fa010113          	addi	sp,sp,-96
10000294:	04112e23          	sw	ra,92(sp)
10000298:	04812c23          	sw	s0,88(sp)
1000029c:	04912a23          	sw	s1,84(sp)
100002a0:	05212823          	sw	s2,80(sp)
100002a4:	05312623          	sw	s3,76(sp)
100002a8:	05412423          	sw	s4,72(sp)
100002ac:	05512223          	sw	s5,68(sp)
100002b0:	05612023          	sw	s6,64(sp)
100002b4:	03712e23          	sw	s7,60(sp)
100002b8:	03812c23          	sw	s8,56(sp)
100002bc:	03912a23          	sw	s9,52(sp)
100002c0:	03a12823          	sw	s10,48(sp)
100002c4:	03b12623          	sw	s11,44(sp)
100002c8:	00000417          	auipc	s0,0x0
100002cc:	db040413          	addi	s0,s0,-592 # 10000078 <fir_coeff+0x20>
100002d0:	504000ef          	jal	ra,100007d4 <uart_init>
100002d4:	f9dff0ef          	jal	ra,10000270 <put_crlf>
100002d8:	00044503          	lbu	a0,0(s0)
100002dc:	12051663          	bnez	a0,10000408 <main+0x178>
100002e0:	f91ff0ef          	jal	ra,10000270 <put_crlf>
100002e4:	00000417          	auipc	s0,0x0
100002e8:	da840413          	addi	s0,s0,-600 # 1000008c <fir_coeff+0x34>
100002ec:	00044503          	lbu	a0,0(s0)
100002f0:	12051263          	bnez	a0,10000414 <main+0x184>
100002f4:	00000a97          	auipc	s5,0x0
100002f8:	ec4a8a93          	addi	s5,s5,-316 # 100001b8 <fir_state>
100002fc:	000049b7          	lui	s3,0x4
10000300:	00031a37          	lui	s4,0x31
10000304:	f6dff0ef          	jal	ra,10000270 <put_crlf>
10000308:	00000b17          	auipc	s6,0x0
1000030c:	e20b0b13          	addi	s6,s6,-480 # 10000128 <test_input>
10000310:	510000ef          	jal	ra,10000820 <uart_write_flush>
10000314:	000a8c93          	mv	s9,s5
10000318:	00000b97          	auipc	s7,0x0
1000031c:	d40b8b93          	addi	s7,s7,-704 # 10000058 <fir_coeff>
10000320:	00000c17          	auipc	s8,0x0
10000324:	d90c0c13          	addi	s8,s8,-624 # 100000b0 <matlab_ref>
10000328:	a9798993          	addi	s3,s3,-1385 # 3a97 <status-0x2ffc571>
1000032c:	d3fa0a13          	addi	s4,s4,-705 # 30d3f <status-0x2fcf2c9>
10000330:	00000493          	li	s1,0
10000334:	02000d13          	li	s10,32
10000338:	009b07b3          	add	a5,s6,s1
1000033c:	00079703          	lh	a4,0(a5)
10000340:	00000797          	auipc	a5,0x0
10000344:	e9678793          	addi	a5,a5,-362 # 100001d6 <fir_state+0x1e>
10000348:	ffe7d683          	lhu	a3,-2(a5)
1000034c:	ffe78793          	addi	a5,a5,-2
10000350:	00d79123          	sh	a3,2(a5)
10000354:	fefa9ae3          	bne	s5,a5,10000348 <main+0xb8>
10000358:	00000797          	auipc	a5,0x0
1000035c:	e6e79023          	sh	a4,-416(a5) # 100001b8 <fir_state>
10000360:	00000913          	li	s2,0
10000364:	00000413          	li	s0,0
10000368:	00000d93          	li	s11,0
1000036c:	012b87b3          	add	a5,s7,s2
10000370:	012c86b3          	add	a3,s9,s2
10000374:	00069583          	lh	a1,0(a3)
10000378:	00079503          	lh	a0,0(a5)
1000037c:	00e12623          	sw	a4,12(sp)
10000380:	e59ff0ef          	jal	ra,100001d8 <__mulsi3>
10000384:	41f55693          	srai	a3,a0,0x1f
10000388:	00a40533          	add	a0,s0,a0
1000038c:	008537b3          	sltu	a5,a0,s0
10000390:	00dd8db3          	add	s11,s11,a3
10000394:	00290913          	addi	s2,s2,2
10000398:	00050413          	mv	s0,a0
1000039c:	01b78db3          	add	s11,a5,s11
100003a0:	00c12703          	lw	a4,12(sp)
100003a4:	fda914e3          	bne	s2,s10,1000036c <main+0xdc>
100003a8:	009c07b3          	add	a5,s8,s1
100003ac:	00079683          	lh	a3,0(a5)
100003b0:	00f55613          	srli	a2,a0,0xf
100003b4:	01061613          	slli	a2,a2,0x10
100003b8:	3e868693          	addi	a3,a3,1000
100003bc:	41065613          	srai	a2,a2,0x10
100003c0:	00070593          	mv	a1,a4
100003c4:	00000517          	auipc	a0,0x0
100003c8:	ce050513          	addi	a0,a0,-800 # 100000a4 <fir_coeff+0x4c>
100003cc:	1bc000ef          	jal	ra,10000588 <printf>
100003d0:	00012c23          	sw	zero,24(sp)
100003d4:	01812783          	lw	a5,24(sp)
100003d8:	04f9d463          	ble	a5,s3,10000420 <main+0x190>
100003dc:	00248493          	addi	s1,s1,2
100003e0:	07800793          	li	a5,120
100003e4:	f4f49ae3          	bne	s1,a5,10000338 <main+0xa8>
100003e8:	438000ef          	jal	ra,10000820 <uart_write_flush>
100003ec:	00012e23          	sw	zero,28(sp)
100003f0:	01c12783          	lw	a5,28(sp)
100003f4:	f2fa4ee3          	blt	s4,a5,10000330 <main+0xa0>
100003f8:	01c12783          	lw	a5,28(sp)
100003fc:	00178793          	addi	a5,a5,1
10000400:	00f12e23          	sw	a5,28(sp)
10000404:	fedff06f          	j	100003f0 <main+0x160>
10000408:	00140413          	addi	s0,s0,1
1000040c:	3fc000ef          	jal	ra,10000808 <uart_write>
10000410:	ec9ff06f          	j	100002d8 <main+0x48>
10000414:	00140413          	addi	s0,s0,1
10000418:	3f0000ef          	jal	ra,10000808 <uart_write>
1000041c:	ed1ff06f          	j	100002ec <main+0x5c>
10000420:	01812783          	lw	a5,24(sp)
10000424:	00178793          	addi	a5,a5,1
10000428:	00f12c23          	sw	a5,24(sp)
1000042c:	fa9ff06f          	j	100003d4 <main+0x144>

10000430 <print_reversed_with_padding>:
10000430:	fe010113          	addi	sp,sp,-32
10000434:	00812c23          	sw	s0,24(sp)
10000438:	01212823          	sw	s2,16(sp)
1000043c:	00112e23          	sw	ra,28(sp)
10000440:	00912a23          	sw	s1,20(sp)
10000444:	00050913          	mv	s2,a0
10000448:	00058413          	mv	s0,a1
1000044c:	02c46463          	bltu	s0,a2,10000474 <print_reversed_with_padding+0x44>
10000450:	fff00493          	li	s1,-1
10000454:	fff40413          	addi	s0,s0,-1
10000458:	04941063          	bne	s0,s1,10000498 <print_reversed_with_padding+0x68>
1000045c:	01c12083          	lw	ra,28(sp)
10000460:	01812403          	lw	s0,24(sp)
10000464:	01412483          	lw	s1,20(sp)
10000468:	01012903          	lw	s2,16(sp)
1000046c:	02010113          	addi	sp,sp,32
10000470:	00008067          	ret
10000474:	00068513          	mv	a0,a3
10000478:	00c12623          	sw	a2,12(sp)
1000047c:	00d12423          	sw	a3,8(sp)
10000480:	3c0000ef          	jal	ra,10000840 <putchar>
10000484:	00c12603          	lw	a2,12(sp)
10000488:	00812683          	lw	a3,8(sp)
1000048c:	fff60613          	addi	a2,a2,-1
10000490:	0ff67613          	andi	a2,a2,255
10000494:	fb9ff06f          	j	1000044c <print_reversed_with_padding+0x1c>
10000498:	008907b3          	add	a5,s2,s0
1000049c:	0007c503          	lbu	a0,0(a5)
100004a0:	3a0000ef          	jal	ra,10000840 <putchar>
100004a4:	fb1ff06f          	j	10000454 <print_reversed_with_padding+0x24>

100004a8 <format_dec32>:
100004a8:	fe010113          	addi	sp,sp,-32
100004ac:	01312623          	sw	s3,12(sp)
100004b0:	00112e23          	sw	ra,28(sp)
100004b4:	00812c23          	sw	s0,24(sp)
100004b8:	00912a23          	sw	s1,20(sp)
100004bc:	01212823          	sw	s2,16(sp)
100004c0:	00050993          	mv	s3,a0
100004c4:	06058263          	beqz	a1,10000528 <format_dec32+0x80>
100004c8:	00058493          	mv	s1,a1
100004cc:	00000793          	li	a5,0
100004d0:	00a00593          	li	a1,10
100004d4:	00048513          	mv	a0,s1
100004d8:	00178413          	addi	s0,a5,1
100004dc:	00f98933          	add	s2,s3,a5
100004e0:	d45ff0ef          	jal	ra,10000224 <__umodsi3>
100004e4:	03050513          	addi	a0,a0,48
100004e8:	00a90023          	sb	a0,0(s2)
100004ec:	00a00593          	li	a1,10
100004f0:	00048513          	mv	a0,s1
100004f4:	d05ff0ef          	jal	ra,100001f8 <__udivsi3>
100004f8:	0ff47413          	andi	s0,s0,255
100004fc:	00050493          	mv	s1,a0
10000500:	00040793          	mv	a5,s0
10000504:	fc0516e3          	bnez	a0,100004d0 <format_dec32+0x28>
10000508:	00040513          	mv	a0,s0
1000050c:	01c12083          	lw	ra,28(sp)
10000510:	01812403          	lw	s0,24(sp)
10000514:	01412483          	lw	s1,20(sp)
10000518:	01012903          	lw	s2,16(sp)
1000051c:	00c12983          	lw	s3,12(sp)
10000520:	02010113          	addi	sp,sp,32
10000524:	00008067          	ret
10000528:	03000793          	li	a5,48
1000052c:	00f50023          	sb	a5,0(a0)
10000530:	00100413          	li	s0,1
10000534:	fd5ff06f          	j	10000508 <format_dec32+0x60>

10000538 <format_hex32>:
10000538:	04058063          	beqz	a1,10000578 <format_hex32+0x40>
1000053c:	00000713          	li	a4,0
10000540:	00000617          	auipc	a2,0x0
10000544:	c6060613          	addi	a2,a2,-928 # 100001a0 <hex_symbols>
10000548:	00f5f693          	andi	a3,a1,15
1000054c:	00d606b3          	add	a3,a2,a3
10000550:	0006c683          	lbu	a3,0(a3)
10000554:	00170793          	addi	a5,a4,1
10000558:	00e50733          	add	a4,a0,a4
1000055c:	0ff7f793          	andi	a5,a5,255
10000560:	00d70023          	sb	a3,0(a4)
10000564:	0045d593          	srli	a1,a1,0x4
10000568:	00078713          	mv	a4,a5
1000056c:	fc059ee3          	bnez	a1,10000548 <format_hex32+0x10>
10000570:	00078513          	mv	a0,a5
10000574:	00008067          	ret
10000578:	03000793          	li	a5,48
1000057c:	00f50023          	sb	a5,0(a0)
10000580:	00100793          	li	a5,1
10000584:	fedff06f          	j	10000570 <format_hex32+0x38>

10000588 <printf>:
10000588:	f8010113          	addi	sp,sp,-128
1000058c:	06f12a23          	sw	a5,116(sp)
10000590:	06410793          	addi	a5,sp,100
10000594:	04812c23          	sw	s0,88(sp)
10000598:	05412423          	sw	s4,72(sp)
1000059c:	05512223          	sw	s5,68(sp)
100005a0:	05612023          	sw	s6,64(sp)
100005a4:	03712e23          	sw	s7,60(sp)
100005a8:	03812c23          	sw	s8,56(sp)
100005ac:	04112e23          	sw	ra,92(sp)
100005b0:	04912a23          	sw	s1,84(sp)
100005b4:	05212823          	sw	s2,80(sp)
100005b8:	05312623          	sw	s3,76(sp)
100005bc:	00050413          	mv	s0,a0
100005c0:	06b12223          	sw	a1,100(sp)
100005c4:	06c12423          	sw	a2,104(sp)
100005c8:	06d12623          	sw	a3,108(sp)
100005cc:	06e12823          	sw	a4,112(sp)
100005d0:	07012c23          	sw	a6,120(sp)
100005d4:	07112e23          	sw	a7,124(sp)
100005d8:	02f12023          	sw	a5,32(sp)
100005dc:	02500a13          	li	s4,37
100005e0:	03000a93          	li	s5,48
100005e4:	00900b93          	li	s7,9
100005e8:	07300b13          	li	s6,115
100005ec:	fff00c13          	li	s8,-1
100005f0:	00044503          	lbu	a0,0(s0)
100005f4:	02051a63          	bnez	a0,10000628 <printf+0xa0>
100005f8:	05c12083          	lw	ra,92(sp)
100005fc:	05812403          	lw	s0,88(sp)
10000600:	05412483          	lw	s1,84(sp)
10000604:	05012903          	lw	s2,80(sp)
10000608:	04c12983          	lw	s3,76(sp)
1000060c:	04812a03          	lw	s4,72(sp)
10000610:	04412a83          	lw	s5,68(sp)
10000614:	04012b03          	lw	s6,64(sp)
10000618:	03c12b83          	lw	s7,60(sp)
1000061c:	03812c03          	lw	s8,56(sp)
10000620:	08010113          	addi	sp,sp,128
10000624:	00008067          	ret
10000628:	17451063          	bne	a0,s4,10000788 <printf+0x200>
1000062c:	00144783          	lbu	a5,1(s0)
10000630:	01479a63          	bne	a5,s4,10000644 <printf+0xbc>
10000634:	02500513          	li	a0,37
10000638:	208000ef          	jal	ra,10000840 <putchar>
1000063c:	00240413          	addi	s0,s0,2
10000640:	fb1ff06f          	j	100005f0 <printf+0x68>
10000644:	07578a63          	beq	a5,s5,100006b8 <printf+0x130>
10000648:	00140413          	addi	s0,s0,1
1000064c:	02000993          	li	s3,32
10000650:	00000913          	li	s2,0
10000654:	00044483          	lbu	s1,0(s0)
10000658:	fd048793          	addi	a5,s1,-48
1000065c:	0ff7f793          	andi	a5,a5,255
10000660:	06fbf263          	bleu	a5,s7,100006c4 <printf+0x13c>
10000664:	13648663          	beq	s1,s6,10000790 <printf+0x208>
10000668:	069b6e63          	bltu	s6,s1,100006e4 <printf+0x15c>
1000066c:	06300793          	li	a5,99
10000670:	10f48463          	beq	s1,a5,10000778 <printf+0x1f0>
10000674:	06400793          	li	a5,100
10000678:	0cf48a63          	beq	s1,a5,1000074c <printf+0x1c4>
1000067c:	02500513          	li	a0,37
10000680:	1c0000ef          	jal	ra,10000840 <putchar>
10000684:	01599663          	bne	s3,s5,10000690 <printf+0x108>
10000688:	03000513          	li	a0,48
1000068c:	1b4000ef          	jal	ra,10000840 <putchar>
10000690:	00090e63          	beqz	s2,100006ac <printf+0x124>
10000694:	00090593          	mv	a1,s2
10000698:	01c10513          	addi	a0,sp,28
1000069c:	e0dff0ef          	jal	ra,100004a8 <format_dec32>
100006a0:	00050493          	mv	s1,a0
100006a4:	fff48493          	addi	s1,s1,-1
100006a8:	11849c63          	bne	s1,s8,100007c0 <printf+0x238>
100006ac:	00044503          	lbu	a0,0(s0)
100006b0:	06050863          	beqz	a0,10000720 <printf+0x198>
100006b4:	0d40006f          	j	10000788 <printf+0x200>
100006b8:	00240413          	addi	s0,s0,2
100006bc:	03000993          	li	s3,48
100006c0:	f91ff06f          	j	10000650 <printf+0xc8>
100006c4:	00090513          	mv	a0,s2
100006c8:	00a00593          	li	a1,10
100006cc:	b0dff0ef          	jal	ra,100001d8 <__mulsi3>
100006d0:	00a48533          	add	a0,s1,a0
100006d4:	fd050613          	addi	a2,a0,-48
100006d8:	0ff67913          	andi	s2,a2,255
100006dc:	00140413          	addi	s0,s0,1
100006e0:	f75ff06f          	j	10000654 <printf+0xcc>
100006e4:	07500793          	li	a5,117
100006e8:	04f48463          	beq	s1,a5,10000730 <printf+0x1a8>
100006ec:	07800793          	li	a5,120
100006f0:	f8f496e3          	bne	s1,a5,1000067c <printf+0xf4>
100006f4:	02012783          	lw	a5,32(sp)
100006f8:	02410513          	addi	a0,sp,36
100006fc:	0007a583          	lw	a1,0(a5)
10000700:	00478713          	addi	a4,a5,4
10000704:	02e12023          	sw	a4,32(sp)
10000708:	e31ff0ef          	jal	ra,10000538 <format_hex32>
1000070c:	00050593          	mv	a1,a0
10000710:	00098693          	mv	a3,s3
10000714:	00090613          	mv	a2,s2
10000718:	02410513          	addi	a0,sp,36
1000071c:	d15ff0ef          	jal	ra,10000430 <print_reversed_with_padding>
10000720:	00044783          	lbu	a5,0(s0)
10000724:	ec0786e3          	beqz	a5,100005f0 <printf+0x68>
10000728:	00140413          	addi	s0,s0,1
1000072c:	ec5ff06f          	j	100005f0 <printf+0x68>
10000730:	02012783          	lw	a5,32(sp)
10000734:	00478713          	addi	a4,a5,4
10000738:	0007a583          	lw	a1,0(a5)
1000073c:	02e12023          	sw	a4,32(sp)
10000740:	02410513          	addi	a0,sp,36
10000744:	d65ff0ef          	jal	ra,100004a8 <format_dec32>
10000748:	fc5ff06f          	j	1000070c <printf+0x184>
1000074c:	02012783          	lw	a5,32(sp)
10000750:	00478713          	addi	a4,a5,4
10000754:	0007a583          	lw	a1,0(a5)
10000758:	02e12023          	sw	a4,32(sp)
1000075c:	fe05d2e3          	bgez	a1,10000740 <printf+0x1b8>
10000760:	02d00513          	li	a0,45
10000764:	00b12623          	sw	a1,12(sp)
10000768:	0d8000ef          	jal	ra,10000840 <putchar>
1000076c:	00c12583          	lw	a1,12(sp)
10000770:	40b005b3          	neg	a1,a1
10000774:	fcdff06f          	j	10000740 <printf+0x1b8>
10000778:	02012783          	lw	a5,32(sp)
1000077c:	00478713          	addi	a4,a5,4
10000780:	0007c503          	lbu	a0,0(a5)
10000784:	02e12023          	sw	a4,32(sp)
10000788:	0b8000ef          	jal	ra,10000840 <putchar>
1000078c:	f95ff06f          	j	10000720 <printf+0x198>
10000790:	02012783          	lw	a5,32(sp)
10000794:	00478713          	addi	a4,a5,4
10000798:	0007a483          	lw	s1,0(a5)
1000079c:	02e12023          	sw	a4,32(sp)
100007a0:	00049663          	bnez	s1,100007ac <printf+0x224>
100007a4:	00000497          	auipc	s1,0x0
100007a8:	a0c48493          	addi	s1,s1,-1524 # 100001b0 <hex_symbols+0x10>
100007ac:	0004c503          	lbu	a0,0(s1)
100007b0:	f60508e3          	beqz	a0,10000720 <printf+0x198>
100007b4:	00148493          	addi	s1,s1,1
100007b8:	088000ef          	jal	ra,10000840 <putchar>
100007bc:	ff1ff06f          	j	100007ac <printf+0x224>
100007c0:	01c10713          	addi	a4,sp,28
100007c4:	009707b3          	add	a5,a4,s1
100007c8:	0007c503          	lbu	a0,0(a5)
100007cc:	074000ef          	jal	ra,10000840 <putchar>
100007d0:	ed5ff06f          	j	100006a4 <printf+0x11c>

100007d4 <uart_init>:
100007d4:	030027b7          	lui	a5,0x3002
100007d8:	00078223          	sb	zero,4(a5) # 3002004 <status+0x1ffc>
100007dc:	f8000713          	li	a4,-128
100007e0:	00e78623          	sb	a4,12(a5)
100007e4:	03400713          	li	a4,52
100007e8:	00e78023          	sb	a4,0(a5)
100007ec:	00078223          	sb	zero,4(a5)
100007f0:	00300713          	li	a4,3
100007f4:	00e78623          	sb	a4,12(a5)
100007f8:	fc700713          	li	a4,-57
100007fc:	00e78423          	sb	a4,8(a5)
10000800:	00078823          	sb	zero,16(a5)
10000804:	00008067          	ret

10000808 <uart_write>:
10000808:	03002737          	lui	a4,0x3002
1000080c:	01474783          	lbu	a5,20(a4) # 3002014 <status+0x200c>
10000810:	0207f793          	andi	a5,a5,32
10000814:	fe078ce3          	beqz	a5,1000080c <uart_write+0x4>
10000818:	00a70023          	sb	a0,0(a4)
1000081c:	00008067          	ret

10000820 <uart_write_flush>:
10000820:	03002737          	lui	a4,0x3002
10000824:	01474783          	lbu	a5,20(a4) # 3002014 <status+0x200c>
10000828:	0207f793          	andi	a5,a5,32
1000082c:	fe078ce3          	beqz	a5,10000824 <uart_write_flush+0x4>
10000830:	01474783          	lbu	a5,20(a4)
10000834:	0407f793          	andi	a5,a5,64
10000838:	fe0786e3          	beqz	a5,10000824 <uart_write_flush+0x4>
1000083c:	00008067          	ret

10000840 <putchar>:
10000840:	fc9ff06f          	j	10000808 <uart_write>

Disassembly of section .Pulp_Chip.Info:

00000000 <.Pulp_Chip.Info>:
   0:	000a                	0xa
   2:	0000                	unimp
   4:	0038                	addi	a4,sp,8
   6:	0000                	unimp
   8:	0001                	nop
   a:	0000                	unimp
   c:	7550                	flw	fa2,44(a0)
   e:	706c                	flw	fa1,100(s0)
  10:	495f 666e 006f      	0x6f666e495f
  16:	70696863          	bltu	s2,t1,726 <status-0x2fff8e2>
  1a:	6e3d                	lui	t3,0xf
  1c:	20656e6f          	jal	t3,56222 <status-0x2fa9de6>
  20:	3d757063          	bleu	s7,a0,3e0 <status-0x2fffc28>
  24:	6f6e                	flw	ft10,216(sp)
  26:	656e                	flw	fa0,216(sp)
  28:	7020                	flw	fs0,96(s0)
  2a:	3d65                	jal	fffffee2 <pulp__FC+0xfffffee3>
  2c:	312d                	jal	fffffc56 <pulp__FC+0xfffffc57>
  2e:	6620                	flw	fs0,72(a2)
  30:	312d3d63          	p.bneimm	s10,-14,34a <status-0x2fffcbe>
  34:	6c20                	flw	fs0,88(s0)
  36:	3d32                	fld	fs10,296(sp)
  38:	312d                	jal	fffffc62 <pulp__FC+0xfffffc63>
  3a:	6c20                	flw	fs0,88(s0)
  3c:	6331                	lui	t1,0xc
  3e:	3d6c                	fld	fa1,248(a0)
  40:	312d                	jal	fffffc6a <pulp__FC+0xfffffc6b>
  42:	6c20                	flw	fs0,88(s0)
  44:	6631                	lui	a2,0xc
  46:	312d3d63          	p.bneimm	s10,-14,360 <status-0x2fffca8>
  4a:	0000                	unimp
	...
