
bin/referensi_fir.elf:     file format elf32-littleriscv

Contents of section .text._start:
 10000000 97110000 93810180 17110000 130181ff  ................
 10000010 93000000 13020000 93020000 13030000  ................
 10000020 93030000 13040000 93040000 13050000  ................
 10000030 93050000 13060000 93060000 13070000  ................
 10000040 93070000 ef000020 970200f3 938202fc  ....... ........
 10000050 23a0a200 73005010                    #...s.P.        
Contents of section .misc:
 10000058 cef90d04 7d081002 40f6a6fa 87176635  ....}...@.....f5
 10000068 66358717 a6fa40f6 10027d08 0d04cef9  f5....@...}.....
 10000078 25642025 64202564 0d0a0000 1a00c5ff  %d %d %d........
 10000088 c9ff3f00 b300f4ff 20fff4fe 30013603  ..?..... ...0.6.
 10000098 ea02fffe f6fbfbfc 3f00e101 e1000701  ........?.......
 100000a8 9d035a05 640360ff 2efc36fd 47fffd00  ..Z.d.`...6.G...
 100000b8 7effa2fd 38fd31fd 14ffbb00 9d00eeff  ~...8.1.........
 100000c8 c3fef1fd f0fc7bfc 8aff6e04 22072e05  ......{...n."...
 100000d8 9800d7fe 87fec8ff a7fefbfc f4fd94ff  ................
 100000e8 6b015101 b7ff51ff b5ff7a01 8603e704  k.Q...Q...z.....
 100000f8 74054405 e6fd6303 d0035101 1cfcf5fd  t.D...c...Q.....
 10000108 effa9503 b100f302 b0fd3407 190784ff  ..........4.....
 10000118 a9fb57fd 0e00c4ff 6bfd3201 67fefefa  ..W.....k.2.g...
 10000128 e3febfff e803dffc 5c001201 aaf79401  ........\.......
 10000138 41fcbafe af090306 3b0360ff a6fc8e01  A.......;.`.....
 10000148 1fffddfa eaff90fc 550430fe 9902eefd  ........U.0.....
 10000158 29009b00 bffe6208 2003ac04 32088401  ).....b. ...2...
 10000168 1504a4fa 42fc93f5 ddfc3dfe 30313233  ....B.....=.0123
 10000178 34353637 38394142 43444546 286e756c  456789ABCDEF(nul
 10000188 6c290000 00000000 00000000 00000000  l)..............
 10000198 00000000 00000000 00000000 00000000  ................
 100001a8 00000000                             ....            
Contents of section .text:
 100001ac 2a860145 93f61500 91c23295 85810606  *..E......2.....
 100001bc f5f98280 00000000 634e0502 63c30504  ........cN..c...
 100001cc 2e86aa85 7d5515c2 85466378 b6006356  ....}U...Fcx..cV
 100001dc c0000606 8606e36c b6fe0145 63e4c500  .......l...Ec...
 100001ec 918d558d 85820582 f5fa8280 8682c93f  ..U............?
 100001fc 2e858282 3305a040 63d70500 b305b040  ....3..@c......@
 1000020c c1b7b305 b0408682 653f3305 a0408282  .....@..e?3..@..
 1000021c 868263c7 05006349 05005d37 2e858282  ..c...cI..]7....
 1000022c b305b040 e35b05fe 3305a040 513f3305  ...@.[..3..@Q?3.
 1000023c b0408282 00000000 130101fa 232a9104  .@..........#*..
 1000024c 23282105 23263105 b7440000 97090000  #(!.#&1..D......
 1000025c 938949f3 37190300 23244105 23225105  ..I.7...#$A.#"Q.
 1000026c 23206105 232e7103 232e1104 232c8104  # a.#.q.#...#,..
 1000027c 232c8103 232a9103 2328a103 2326b103  #,..#*..#(..#&..
 1000028c 938b0900 ef00004e 170a0000 130a8ae6  .......N........
 1000029c 970a0000 938acadb 170b0000 130b0bde  ................
 100002ac 938474a9 1309f9d3 17070000 130787ed  ..t.............
 100002bc 93070000 93060001 23100700 93871700  ........#.......
 100002cc 13072700 e39ad7fe 930d0000 930c0002  ..'.............
 100002dc 170d0000 130dcdd9 130c8007 b307ba01  ................
 100002ec 03980700 97070000 9387a7eb 03d7e7ff  ................
 100002fc 9387e7ff 2391e700 e39a37ff 97070000  ....#.....7.....
 1000030c 239207e9 93070000 13040000 13070000  #...............
 1000031c b386fa00 3386fb00 83150600 03950600  ....3...........
 1000032c 2322e100 2324f100 23260101 eff05fe7  #"..#$..#&...._.
 1000033c 03274100 83278100 1356f541 3305a400  .'A..'...V.A3...
 1000034c b3368500 3307c700 93872700 13040500  .6..3.....'.....
 1000035c 3387e600 0328c100 e39c97fb b307bb01  3....(..........
 1000036c 83960700 1356f500 13160601 9386067d  .....V.........}
 1000037c 13560641 93050800 13050d00 ef00c019  .V.A............
 1000038c 232c0100 83278101 63d4f402 938d2d00  #,...'..c.....-.
 1000039c e3968df5 232e0100 8327c101 e346f9f0  ....#....'...F..
 100003ac 8327c101 93871700 232ef100 6ff0dffe  .'......#...o...
 100003bc 83278101 93871700 232cf100 6ff09ffc  .'......#,..o...
 100003cc 130101fe 232c8100 23282101 232e1100  ....#,..#(!.#...
 100003dc 232a9100 13090500 13840500 6364c402  #*..........cd..
 100003ec 9304f0ff 1304f4ff 63109404 8320c101  ........c.... ..
 100003fc 03248101 83244101 03290101 13010102  .$...$A..)......
 1000040c 67800000 13850600 2326c100 2324d100  g.......#&..#$..
 1000041c ef00003a 0326c100 83268100 1306f6ff  ...:.&...&......
 1000042c 1376f60f 6ff09ffb b3078900 03c50700  .v..o...........
 1000043c ef000038 6ff01ffb 130101fe 23263101  ...8o.......#&1.
 1000044c 232e1100 232c8100 232a9100 23282101  #...#,..#*..#(!.
 1000045c 93090500 63820506 93840500 93070000  ....c...........
 1000046c 9305a000 13850400 13841700 3389f900  ............3...
 1000047c eff0dfd7 13050503 2300a900 9305a000  ........#.......
 1000048c 13850400 eff0dfd3 1374f40f 93040500  .........t......
 1000049c 93070400 e31605fc 13050400 8320c101  ............. ..
 100004ac 03248101 83244101 03290101 8329c100  .$...$A..)...)..
 100004bc 13010102 67800000 93070003 2300f500  ....g.......#...
 100004cc 13041000 6ff05ffd 63800504 13070000  ....o._.c.......
 100004dc 17060000 130686c9 93f6f500 b306d600  ................
 100004ec 83c60600 93071700 3307e500 93f7f70f  ........3.......
 100004fc 2300d700 93d54500 13870700 e39e05fc  #.....E.........
 1000050c 13850700 67800000 93070003 2300f500  ....g.......#...
 1000051c 93071000 6ff0dffe 130101f8 232af106  ....o.......#*..
 1000052c 93074106 232c8104 23244105 23225105  ..A.#,..#$A.#"Q.
 1000053c 23206105 232e7103 232c8103 232e1104  # a.#.q.#,..#...
 1000054c 232a9104 23282105 23263105 13040500  #*..#(!.#&1.....
 1000055c 2322b106 2324c106 2326d106 2328e106  #"..#$..#&..#(..
 1000056c 232c0107 232e1107 2320f102 130a5002  #,..#...# ....P.
 1000057c 930a0003 930b9000 130b3007 130cf0ff  ..........0.....
 1000058c 03450400 631a0502 8320c105 03248105  .E..c.... ...$..
 1000059c 83244105 03290105 8329c104 032a8104  .$A..)...)...*..
 100005ac 832a4104 032b0104 832bc103 032c8103  .*A..+...+...,..
 100005bc 13010108 67800000 63104517 83471400  ....g...c.E..G..
 100005cc 639a4701 13055002 ef00801e 13042400  c.G...P.......$.
 100005dc 6ff01ffb 638a5707 13041400 93090002  o...c.W.........
 100005ec 13090000 83440400 938704fd 93f7f70f  .....D..........
 100005fc 63f2fb06 63866413 636e9b06 93073006  c...c.d.cn....0.
 1000060c 6384f410 93074006 638af40c 13055002  c.....@.c.....P.
 1000061c ef00001a 63965901 13050003 ef004019  ....c.Y.......@.
 1000062c 630e0900 93050900 1305c101 eff0dfe0  c...............
 1000063c 93040500 9384f4ff 639c8411 03450400  ........c....E..
 1000064c 63080506 6f00400d 13042400 93090003  c...o.@...$.....
 1000065c 6ff01ff9 13050900 9305a000 eff05fb4  o............._.
 1000066c 3385a400 130605fd 1379f60f 13041400  3........y......
 1000067c 6ff05ff7 93075007 6384f404 93078007  o._...P.c.......
 1000068c e396f4f8 83270102 13054102 83a50700  .....'....A.....
 1000069c 13874700 2320e102 eff01fe3 93050500  ..G.# ..........
 100006ac 93860900 13060900 13054102 eff05fd1  ..........A..._.
 100006bc 83470400 e38607ec 13041400 6ff05fec  .G..........o._.
 100006cc 83270102 13874700 83a50700 2320e102  .'....G.....# ..
 100006dc 13054102 eff05fd6 6ff05ffc 83270102  ..A..._.o._..'..
 100006ec 13874700 83a50700 2320e102 e3d205fe  ..G.....# ......
 100006fc 1305d002 2326b100 ef00800b 8325c100  ....#&.......%..
 1000070c b305b040 6ff0dffc 83270102 13874700  ...@o....'....G.
 1000071c 03c50700 2320e102 ef008009 6ff05ff9  ....# ......o._.
 1000072c 83270102 13874700 83a40700 2320e102  .'....G.....# ..
 1000073c 63960400 97040000 938444a4 03c50400  c.........D.....
 1000074c e30805f6 93841400 ef008006 6ff01fff  ............o...
 1000075c 1307c101 b3079700 03c50700 ef004005  ..............@.
 1000076c 6ff05fed b7270003 23820700 130700f8  o._..'..#.......
 1000077c 2386e700 13074003 2380e700 23820700  #.....@.#...#...
 1000078c 13073000 2386e700 130770fc 2384e700  ..0.#.....p.#...
 1000079c 23880700 67800000 37270003 83474701  #...g...7'...GG.
 100007ac 93f70702 e38c07fe 2300a700 67800000  ........#...g...
 100007bc 6ff09ffe                             o...            
Contents of section .Pulp_Chip.Info:
 0000 0a000000 38000000 01000000 50756c70  ....8.......Pulp
 0010 5f496e66 6f006368 69703d6e 6f6e6520  _Info.chip=none 
 0020 6370753d 6e6f6e65 2070653d 2d312066  cpu=none pe=-1 f
 0030 633d2d31 206c323d 2d31206c 31636c3d  c=-1 l2=-1 l1cl=
 0040 2d31206c 3166633d 2d310000 0000      -1 l1fc=-1....  
Contents of section .debug_line:
 0000 ac000000 02006600 00000101 fb0e0d00  ......f.........
 0010 01010101 00000001 0000012f 686f6d65  .........../home
 0020 2f646576 616e2f53 6f432f70 756c702d  /devan/SoC/pulp-
 0030 72697363 762d676e 752d746f 6f6c6368  riscv-gnu-toolch
 0040 61696e2f 72697363 762d6763 632f6c69  ain/riscv-gcc/li
 0050 62676363 2f636f6e 6669672f 72697363  bgcc/config/risc
 0060 7600006d 756c6469 332e5300 01000000  v..muldi3.S.....
 0070 000502ac 01001003 23010301 09020001  ........#.......
 0080 03020902 00010301 09040001 03010902  ................
 0090 00010302 09020001 03010902 00010301  ................
 00a0 09020001 03010902 00010902 00000101  ................
 00b0 82010000 02006300 00000101 fb0e0d00  ......c.........
 00c0 01010101 00000001 0000012f 686f6d65  .........../home
 00d0 2f646576 616e2f53 6f432f70 756c702d  /devan/SoC/pulp-
 00e0 72697363 762d676e 752d746f 6f6c6368  riscv-gnu-toolch
 00f0 61696e2f 72697363 762d6763 632f6c69  ain/riscv-gcc/li
 0100 62676363 2f636f6e 6669672f 72697363  bgcc/config/risc
 0110 76000064 69762e53 00010000 00000502  v..div.S........
 0120 c4010010 03c50001 03010904 00010305  ................
 0130 09040001 03010902 00010301 09020001  ................
 0140 03010902 00010301 09020001 03010902  ................
 0150 00010302 09040001 03010904 00010301  ................
 0160 09020001 03010902 00010302 09040001  ................
 0170 03020902 00010301 09040001 03010902  ................
 0180 00010302 09020001 03010902 00010301  ................
 0190 09020001 03020902 00010305 09020001  ................
 01a0 03010902 00010301 09020001 03010902  ................
 01b0 00010304 09020001 03010904 00010301  ................
 01c0 09040001 03010904 00010302 09020001  ................
 01d0 03020904 00010301 09020001 03010902  ................
 01e0 00010301 09040001 03040902 00010301  ................
 01f0 09020001 03010904 00010302 09040001  ................
 0200 03010902 00010301 09020001 03020902  ................
 0210 00010301 09040001 03020904 00010301  ................
 0220 09040001 03010902 00010301 09040001  ................
 0230 09020000 0101                        ......          
Contents of section .debug_info:
 0000 d0000000 02000000 00000401 00000000  ................
 0010 ac010010 c0010010 2f686f6d 652f6465  ......../home/de
 0020 76616e2f 536f432f 70756c70 2d726973  van/SoC/pulp-ris
 0030 63762d67 6e752d74 6f6f6c63 6861696e  cv-gnu-toolchain
 0040 2f726973 63762d67 63632f6c 69626763  /riscv-gcc/libgc
 0050 632f636f 6e666967 2f726973 63762f6d  c/config/riscv/m
 0060 756c6469 332e5300 2f686f6d 652f6465  uldi3.S./home/de
 0070 76616e2f 536f432f 70756c70 2d726973  van/SoC/pulp-ris
 0080 63762d67 6e752d74 6f6f6c63 6861696e  cv-gnu-toolchain
 0090 2f627569 6c642d67 63632d6e 65776c69  /build-gcc-newli
 00a0 622d7374 61676532 2f726973 63763332  b-stage2/riscv32
 00b0 2d756e6b 6e6f776e 2d656c66 2f6c6962  -unknown-elf/lib
 00c0 67636300 474e5520 41532032 2e32382e  gcc.GNU AS 2.28.
 00d0 30000180 cd000000 02001400 00000401  0...............
 00e0 b0000000 c4010010 40020010 2f686f6d  ........@.../hom
 00f0 652f6465 76616e2f 536f432f 70756c70  e/devan/SoC/pulp
 0100 2d726973 63762d67 6e752d74 6f6f6c63  -riscv-gnu-toolc
 0110 6861696e 2f726973 63762d67 63632f6c  hain/riscv-gcc/l
 0120 69626763 632f636f 6e666967 2f726973  ibgcc/config/ris
 0130 63762f64 69762e53 002f686f 6d652f64  cv/div.S./home/d
 0140 6576616e 2f536f43 2f70756c 702d7269  evan/SoC/pulp-ri
 0150 7363762d 676e752d 746f6f6c 63686169  scv-gnu-toolchai
 0160 6e2f6275 696c642d 6763632d 6e65776c  n/build-gcc-newl
 0170 69622d73 74616765 322f7269 73637633  ib-stage2/riscv3
 0180 322d756e 6b6e6f77 6e2d656c 662f6c69  2-unknown-elf/li
 0190 62676363 00474e55 20415320 322e3238  bgcc.GNU AS 2.28
 01a0 2e300001 80                          .0...           
Contents of section .debug_abbrev:
 0000 01110010 06110112 0103081b 08250813  .............%..
 0010 05000000 01110010 06110112 0103081b  ................
 0020 08250813 05000000                    .%......        
Contents of section .debug_aranges:
 0000 1c000000 02000000 00000400 00000000  ................
 0010 ac010010 14000000 00000000 00000000  ................
 0020 1c000000 0200d400 00000400 00000000  ................
 0030 c4010010 7c000000 00000000 00000000  ....|...........

Disassembly of section .text._start:

10000000 <_start>:
10000000:	00001197          	auipc	gp,0x1
10000004:	80018193          	addi	gp,gp,-2048 # 10000800 <__global_pointer>
10000008:	00001117          	auipc	sp,0x1
1000000c:	ff810113          	addi	sp,sp,-8 # 10001000 <__stack_pointer>
10000010:	00000093          	li	ra,0
10000014:	00000213          	li	tp,0
10000018:	00000293          	li	t0,0
1000001c:	00000313          	li	t1,0
10000020:	00000393          	li	t2,0
10000024:	00000413          	li	s0,0
10000028:	00000493          	li	s1,0
1000002c:	00000513          	li	a0,0
10000030:	00000593          	li	a1,0
10000034:	00000613          	li	a2,0
10000038:	00000693          	li	a3,0
1000003c:	00000713          	li	a4,0
10000040:	00000793          	li	a5,0
10000044:	200000ef          	jal	ra,10000244 <main>

10000048 <_eoc>:
10000048:	f3000297          	auipc	t0,0xf3000
1000004c:	fc028293          	addi	t0,t0,-64 # 3000008 <status>
10000050:	00a2a023          	sw	a0,0(t0)
10000054:	10500073          	wfi

Disassembly of section .misc:

10000058 <fir_coeff>:
10000058:	f9ce                	fsw	fs3,240(sp)
1000005a:	040d                	addi	s0,s0,3
1000005c:	087d                	addi	a6,a6,31
1000005e:	0210                	addi	a2,sp,256
10000060:	f640                	fsw	fs0,44(a2)
10000062:	faa6                	fsw	fs1,116(sp)
10000064:	35661787          	0x35661787
10000068:	3566                	fld	fa0,120(sp)
1000006a:	faa61787          	0xfaa61787
1000006e:	f640                	fsw	fs0,44(a2)
10000070:	0210                	addi	a2,sp,256
10000072:	087d                	addi	a6,a6,31
10000074:	040d                	addi	s0,s0,3
10000076:	f9ce                	fsw	fs3,240(sp)
10000078:	6425                	lui	s0,0x9
1000007a:	2520                	fld	fs0,72(a0)
1000007c:	2064                	fld	fs1,192(s0)
1000007e:	6425                	lui	s0,0x9
10000080:	0a0d                	addi	s4,s4,3
	...

10000084 <matlab_ref>:
10000084:	001a                	0x1a
10000086:	ffc5                	bnez	a5,1000003e <_start+0x3e>
10000088:	ffc9                	bnez	a5,10000022 <_start+0x22>
1000008a:	00b3003f ff20fff4 	0xff20fff400b3003f
10000092:	fef4                	fsw	fa3,124(a3)
10000094:	0130                	addi	a2,sp,136
10000096:	0336                	slli	t1,t1,0xd
10000098:	02ea                	slli	t0,t0,0x1a
1000009a:	feff                	0xfeff
1000009c:	fbf6                	fsw	ft9,244(sp)
1000009e:	003ffcfb          	0x3ffcfb
100000a2:	01e1                	addi	gp,gp,24
100000a4:	00e1                	addi	ra,ra,24
100000a6:	039d0107          	0x39d0107
100000aa:	055a                	slli	a0,a0,0x16
100000ac:	0364                	addi	s1,sp,396
100000ae:	ff60                	fsw	fs0,124(a4)
100000b0:	fc2e                	fsw	fa1,56(sp)
100000b2:	fd36                	fsw	fa3,184(sp)
100000b4:	00fdff47          	fmsub.s	ft10,fs11,fa5,ft0
100000b8:	ff7e                	fsw	ft11,188(sp)
100000ba:	fda2                	fsw	fs0,248(sp)
100000bc:	fd38                	fsw	fa4,120(a0)
100000be:	fd31                	bnez	a0,1000001a <_start+0x1a>
100000c0:	ff14                	fsw	fa3,56(a4)
100000c2:	009d00bb          	0x9d00bb
100000c6:	ffee                	fsw	fs11,252(sp)
100000c8:	fdf1fec3          	fmadd.h	t4,gp,t6,t6
100000cc:	fcf0                	fsw	fa2,124(s1)
100000ce:	ff8afc7b          	0xff8afc7b
100000d2:	046e                	slli	s0,s0,0x1b
100000d4:	0722                	slli	a4,a4,0x8
100000d6:	052e                	slli	a0,a0,0xb
100000d8:	0098                	addi	a4,sp,64
100000da:	fe87fed7          	0xfe87fed7
100000de:	ffc8                	fsw	fa0,60(a5)
100000e0:	fcfbfea7          	0xfcfbfea7
100000e4:	fdf4                	fsw	fa3,124(a1)
100000e6:	ff94                	fsw	fa3,56(a5)
100000e8:	0151016b          	0x151016b
100000ec:	ff51ffb7          	lui	t6,0xff51f
100000f0:	ffb5                	bnez	a5,1000006c <fir_coeff+0x14>
100000f2:	017a                	slli	sp,sp,0x1e
100000f4:	0386                	slli	t2,t2,0x1
100000f6:	057404e7          	jalr	s1,87(s0) # 9057 <status-0x2ff6fb1>
100000fa:	0544                	addi	s1,sp,644

100000fc <test_input>:
100000fc:	fde6                	fsw	fs9,248(sp)
100000fe:	03d00363          	beq	zero,t4,10000124 <test_input+0x28>
10000102:	0151                	addi	sp,sp,20
10000104:	fc1c                	fsw	fa5,56(s0)
10000106:	fdf5                	bnez	a1,10000102 <test_input+0x6>
10000108:	0395faef          	jal	s5,1005f940 <__stack_pointer+0x5e940>
1000010c:	00b1                	addi	ra,ra,12
1000010e:	fdb002f3          	0xfdb002f3
10000112:	0734                	addi	a3,sp,904
10000114:	0719                	addi	a4,a4,6
10000116:	ff84                	fsw	fs1,56(a5)
10000118:	fba9                	bnez	a5,1000006a <fir_coeff+0x12>
1000011a:	000efd57          	pv.add.sci.b	s10,t4,0
1000011e:	ffc4                	fsw	fs1,60(a5)
10000120:	0132fd6b          	0x132fd6b
10000124:	fafefe67          	0xfafefe67
10000128:	ffbffee3          	bleu	s11,t6,10000124 <test_input+0x28>
1000012c:	03e8                	addi	a0,sp,460
1000012e:	fcdf 005c 0112      	0x112005cfcdf
10000134:	f7aa                	fsw	fa0,236(sp)
10000136:	0194                	addi	a3,sp,192
10000138:	fc41                	bnez	s0,100000d0 <matlab_ref+0x4c>
1000013a:	feba                	fsw	fa4,124(sp)
1000013c:	060309af          	0x60309af
10000140:	ff60033b          	0xff60033b
10000144:	fca6                	fsw	fs1,120(sp)
10000146:	018e                	slli	gp,gp,0x3
10000148:	ff1f fadd ffea      	0xffeafaddff1f
1000014e:	fc90                	fsw	fa2,56(s1)
10000150:	0455                	addi	s0,s0,21
10000152:	fe30                	fsw	fa2,120(a2)
10000154:	0299                	addi	t0,t0,6
10000156:	fdee                	fsw	fs11,248(sp)
10000158:	0029                	c.addi	zero,10
1000015a:	febf009b          	0xfebf009b
1000015e:	0862                	slli	a6,a6,0x18
10000160:	0320                	addi	s0,sp,392
10000162:	04ac                	addi	a1,sp,584
10000164:	0832                	slli	a6,a6,0xc
10000166:	0184                	addi	s1,sp,192
10000168:	0415                	addi	s0,s0,5
1000016a:	faa4                	fsw	fs1,112(a3)
1000016c:	fc42                	fsw	fa6,56(sp)
1000016e:	fcddf593          	andi	a1,s11,-51
10000172:	fe3d                	bnez	a2,100000f0 <matlab_ref+0x6c>

10000174 <hex_symbols>:
10000174:	3130                	fld	fa2,96(a0)
10000176:	3332                	fld	ft6,296(sp)
10000178:	3534                	fld	fa3,104(a0)
1000017a:	3736                	fld	fa4,360(sp)
1000017c:	3938                	fld	fa4,112(a0)
1000017e:	4241                	li	tp,16
10000180:	46454443          	0x46454443
10000184:	6e28                	flw	fa0,88(a2)
10000186:	6c75                	lui	s8,0x1d
10000188:	296c                	fld	fa1,208(a0)
	...

1000018c <fir_state>:
	...

Disassembly of section .text:

100001ac <__mulsi3>:
100001ac:	862a                	mv	a2,a0
100001ae:	4501                	li	a0,0
100001b0:	0015f693          	andi	a3,a1,1
100001b4:	c291                	beqz	a3,100001b8 <__mulsi3+0xc>
100001b6:	9532                	add	a0,a0,a2
100001b8:	8185                	srli	a1,a1,0x1
100001ba:	0606                	slli	a2,a2,0x1
100001bc:	f9f5                	bnez	a1,100001b0 <__mulsi3+0x4>
100001be:	8082                	ret
100001c0:	0000                	unimp
	...

100001c4 <__divsi3>:
100001c4:	02054e63          	bltz	a0,10000200 <__umodsi3+0x8>
100001c8:	0405c363          	bltz	a1,1000020e <__umodsi3+0x16>

100001cc <__udivsi3>:
100001cc:	862e                	mv	a2,a1
100001ce:	85aa                	mv	a1,a0
100001d0:	557d                	li	a0,-1
100001d2:	c215                	beqz	a2,100001f6 <__udivsi3+0x2a>
100001d4:	4685                	li	a3,1
100001d6:	00b67863          	bleu	a1,a2,100001e6 <__udivsi3+0x1a>
100001da:	00c05663          	blez	a2,100001e6 <__udivsi3+0x1a>
100001de:	0606                	slli	a2,a2,0x1
100001e0:	0686                	slli	a3,a3,0x1
100001e2:	feb66ce3          	bltu	a2,a1,100001da <__udivsi3+0xe>
100001e6:	4501                	li	a0,0
100001e8:	00c5e463          	bltu	a1,a2,100001f0 <__udivsi3+0x24>
100001ec:	8d91                	sub	a1,a1,a2
100001ee:	8d55                	or	a0,a0,a3
100001f0:	8285                	srli	a3,a3,0x1
100001f2:	8205                	srli	a2,a2,0x1
100001f4:	faf5                	bnez	a3,100001e8 <__udivsi3+0x1c>
100001f6:	8082                	ret

100001f8 <__umodsi3>:
100001f8:	8286                	mv	t0,ra
100001fa:	3fc9                	jal	100001cc <__udivsi3>
100001fc:	852e                	mv	a0,a1
100001fe:	8282                	jr	t0
10000200:	40a00533          	neg	a0,a0
10000204:	0005d763          	bgez	a1,10000212 <__umodsi3+0x1a>
10000208:	40b005b3          	neg	a1,a1
1000020c:	b7c1                	j	100001cc <__udivsi3>
1000020e:	40b005b3          	neg	a1,a1
10000212:	8286                	mv	t0,ra
10000214:	3f65                	jal	100001cc <__udivsi3>
10000216:	40a00533          	neg	a0,a0
1000021a:	8282                	jr	t0

1000021c <__modsi3>:
1000021c:	8286                	mv	t0,ra
1000021e:	0005c763          	bltz	a1,1000022c <__modsi3+0x10>
10000222:	00054963          	bltz	a0,10000234 <__modsi3+0x18>
10000226:	375d                	jal	100001cc <__udivsi3>
10000228:	852e                	mv	a0,a1
1000022a:	8282                	jr	t0
1000022c:	40b005b3          	neg	a1,a1
10000230:	fe055be3          	bgez	a0,10000226 <__modsi3+0xa>
10000234:	40a00533          	neg	a0,a0
10000238:	3f51                	jal	100001cc <__udivsi3>
1000023a:	40b00533          	neg	a0,a1
1000023e:	8282                	jr	t0
10000240:	0000                	unimp
	...

10000244 <main>:
10000244:	fa010113          	addi	sp,sp,-96
10000248:	04912a23          	sw	s1,84(sp)
1000024c:	05212823          	sw	s2,80(sp)
10000250:	05312623          	sw	s3,76(sp)
10000254:	000044b7          	lui	s1,0x4
10000258:	00000997          	auipc	s3,0x0
1000025c:	f3498993          	addi	s3,s3,-204 # 1000018c <fir_state>
10000260:	00031937          	lui	s2,0x31
10000264:	05412423          	sw	s4,72(sp)
10000268:	05512223          	sw	s5,68(sp)
1000026c:	05612023          	sw	s6,64(sp)
10000270:	03712e23          	sw	s7,60(sp)
10000274:	04112e23          	sw	ra,92(sp)
10000278:	04812c23          	sw	s0,88(sp)
1000027c:	03812c23          	sw	s8,56(sp)
10000280:	03912a23          	sw	s9,52(sp)
10000284:	03a12823          	sw	s10,48(sp)
10000288:	03b12623          	sw	s11,44(sp)
1000028c:	00098b93          	mv	s7,s3
10000290:	4e0000ef          	jal	ra,10000770 <uart_init>
10000294:	00000a17          	auipc	s4,0x0
10000298:	e68a0a13          	addi	s4,s4,-408 # 100000fc <test_input>
1000029c:	00000a97          	auipc	s5,0x0
100002a0:	dbca8a93          	addi	s5,s5,-580 # 10000058 <fir_coeff>
100002a4:	00000b17          	auipc	s6,0x0
100002a8:	de0b0b13          	addi	s6,s6,-544 # 10000084 <matlab_ref>
100002ac:	a9748493          	addi	s1,s1,-1385 # 3a97 <status-0x2ffc571>
100002b0:	d3f90913          	addi	s2,s2,-705 # 30d3f <status-0x2fcf2c9>
100002b4:	00000717          	auipc	a4,0x0
100002b8:	ed870713          	addi	a4,a4,-296 # 1000018c <fir_state>
100002bc:	00000793          	li	a5,0
100002c0:	01000693          	li	a3,16
100002c4:	00071023          	sh	zero,0(a4)
100002c8:	00178793          	addi	a5,a5,1
100002cc:	00270713          	addi	a4,a4,2
100002d0:	fed79ae3          	bne	a5,a3,100002c4 <main+0x80>
100002d4:	00000d93          	li	s11,0
100002d8:	02000c93          	li	s9,32
100002dc:	00000d17          	auipc	s10,0x0
100002e0:	d9cd0d13          	addi	s10,s10,-612 # 10000078 <fir_coeff+0x20>
100002e4:	07800c13          	li	s8,120
100002e8:	01ba07b3          	add	a5,s4,s11
100002ec:	00079803          	lh	a6,0(a5)
100002f0:	00000797          	auipc	a5,0x0
100002f4:	eba78793          	addi	a5,a5,-326 # 100001aa <fir_state+0x1e>
100002f8:	ffe7d703          	lhu	a4,-2(a5)
100002fc:	ffe78793          	addi	a5,a5,-2
10000300:	00e79123          	sh	a4,2(a5)
10000304:	ff379ae3          	bne	a5,s3,100002f8 <main+0xb4>
10000308:	00000797          	auipc	a5,0x0
1000030c:	e9079223          	sh	a6,-380(a5) # 1000018c <fir_state>
10000310:	00000793          	li	a5,0
10000314:	00000413          	li	s0,0
10000318:	00000713          	li	a4,0
1000031c:	00fa86b3          	add	a3,s5,a5
10000320:	00fb8633          	add	a2,s7,a5
10000324:	00061583          	lh	a1,0(a2)
10000328:	00069503          	lh	a0,0(a3)
1000032c:	00e12223          	sw	a4,4(sp)
10000330:	00f12423          	sw	a5,8(sp)
10000334:	01012623          	sw	a6,12(sp)
10000338:	e75ff0ef          	jal	ra,100001ac <__mulsi3>
1000033c:	00412703          	lw	a4,4(sp)
10000340:	00812783          	lw	a5,8(sp)
10000344:	41f55613          	srai	a2,a0,0x1f
10000348:	00a40533          	add	a0,s0,a0
1000034c:	008536b3          	sltu	a3,a0,s0
10000350:	00c70733          	add	a4,a4,a2
10000354:	00278793          	addi	a5,a5,2
10000358:	00050413          	mv	s0,a0
1000035c:	00e68733          	add	a4,a3,a4
10000360:	00c12803          	lw	a6,12(sp)
10000364:	fb979ce3          	bne	a5,s9,1000031c <main+0xd8>
10000368:	01bb07b3          	add	a5,s6,s11
1000036c:	00079683          	lh	a3,0(a5)
10000370:	00f55613          	srli	a2,a0,0xf
10000374:	01061613          	slli	a2,a2,0x10
10000378:	7d068693          	addi	a3,a3,2000
1000037c:	41065613          	srai	a2,a2,0x10
10000380:	00080593          	mv	a1,a6
10000384:	000d0513          	mv	a0,s10
10000388:	19c000ef          	jal	ra,10000524 <printf>
1000038c:	00012c23          	sw	zero,24(sp)
10000390:	01812783          	lw	a5,24(sp)
10000394:	02f4d463          	ble	a5,s1,100003bc <main+0x178>
10000398:	002d8d93          	addi	s11,s11,2
1000039c:	f58d96e3          	bne	s11,s8,100002e8 <main+0xa4>
100003a0:	00012e23          	sw	zero,28(sp)
100003a4:	01c12783          	lw	a5,28(sp)
100003a8:	f0f946e3          	blt	s2,a5,100002b4 <main+0x70>
100003ac:	01c12783          	lw	a5,28(sp)
100003b0:	00178793          	addi	a5,a5,1
100003b4:	00f12e23          	sw	a5,28(sp)
100003b8:	fedff06f          	j	100003a4 <main+0x160>
100003bc:	01812783          	lw	a5,24(sp)
100003c0:	00178793          	addi	a5,a5,1
100003c4:	00f12c23          	sw	a5,24(sp)
100003c8:	fc9ff06f          	j	10000390 <main+0x14c>

100003cc <print_reversed_with_padding>:
100003cc:	fe010113          	addi	sp,sp,-32
100003d0:	00812c23          	sw	s0,24(sp)
100003d4:	01212823          	sw	s2,16(sp)
100003d8:	00112e23          	sw	ra,28(sp)
100003dc:	00912a23          	sw	s1,20(sp)
100003e0:	00050913          	mv	s2,a0
100003e4:	00058413          	mv	s0,a1
100003e8:	02c46463          	bltu	s0,a2,10000410 <print_reversed_with_padding+0x44>
100003ec:	fff00493          	li	s1,-1
100003f0:	fff40413          	addi	s0,s0,-1
100003f4:	04941063          	bne	s0,s1,10000434 <print_reversed_with_padding+0x68>
100003f8:	01c12083          	lw	ra,28(sp)
100003fc:	01812403          	lw	s0,24(sp)
10000400:	01412483          	lw	s1,20(sp)
10000404:	01012903          	lw	s2,16(sp)
10000408:	02010113          	addi	sp,sp,32
1000040c:	00008067          	ret
10000410:	00068513          	mv	a0,a3
10000414:	00c12623          	sw	a2,12(sp)
10000418:	00d12423          	sw	a3,8(sp)
1000041c:	3a0000ef          	jal	ra,100007bc <putchar>
10000420:	00c12603          	lw	a2,12(sp)
10000424:	00812683          	lw	a3,8(sp)
10000428:	fff60613          	addi	a2,a2,-1
1000042c:	0ff67613          	andi	a2,a2,255
10000430:	fb9ff06f          	j	100003e8 <print_reversed_with_padding+0x1c>
10000434:	008907b3          	add	a5,s2,s0
10000438:	0007c503          	lbu	a0,0(a5)
1000043c:	380000ef          	jal	ra,100007bc <putchar>
10000440:	fb1ff06f          	j	100003f0 <print_reversed_with_padding+0x24>

10000444 <format_dec32>:
10000444:	fe010113          	addi	sp,sp,-32
10000448:	01312623          	sw	s3,12(sp)
1000044c:	00112e23          	sw	ra,28(sp)
10000450:	00812c23          	sw	s0,24(sp)
10000454:	00912a23          	sw	s1,20(sp)
10000458:	01212823          	sw	s2,16(sp)
1000045c:	00050993          	mv	s3,a0
10000460:	06058263          	beqz	a1,100004c4 <format_dec32+0x80>
10000464:	00058493          	mv	s1,a1
10000468:	00000793          	li	a5,0
1000046c:	00a00593          	li	a1,10
10000470:	00048513          	mv	a0,s1
10000474:	00178413          	addi	s0,a5,1
10000478:	00f98933          	add	s2,s3,a5
1000047c:	d7dff0ef          	jal	ra,100001f8 <__umodsi3>
10000480:	03050513          	addi	a0,a0,48
10000484:	00a90023          	sb	a0,0(s2)
10000488:	00a00593          	li	a1,10
1000048c:	00048513          	mv	a0,s1
10000490:	d3dff0ef          	jal	ra,100001cc <__udivsi3>
10000494:	0ff47413          	andi	s0,s0,255
10000498:	00050493          	mv	s1,a0
1000049c:	00040793          	mv	a5,s0
100004a0:	fc0516e3          	bnez	a0,1000046c <format_dec32+0x28>
100004a4:	00040513          	mv	a0,s0
100004a8:	01c12083          	lw	ra,28(sp)
100004ac:	01812403          	lw	s0,24(sp)
100004b0:	01412483          	lw	s1,20(sp)
100004b4:	01012903          	lw	s2,16(sp)
100004b8:	00c12983          	lw	s3,12(sp)
100004bc:	02010113          	addi	sp,sp,32
100004c0:	00008067          	ret
100004c4:	03000793          	li	a5,48
100004c8:	00f50023          	sb	a5,0(a0)
100004cc:	00100413          	li	s0,1
100004d0:	fd5ff06f          	j	100004a4 <format_dec32+0x60>

100004d4 <format_hex32>:
100004d4:	04058063          	beqz	a1,10000514 <format_hex32+0x40>
100004d8:	00000713          	li	a4,0
100004dc:	00000617          	auipc	a2,0x0
100004e0:	c9860613          	addi	a2,a2,-872 # 10000174 <hex_symbols>
100004e4:	00f5f693          	andi	a3,a1,15
100004e8:	00d606b3          	add	a3,a2,a3
100004ec:	0006c683          	lbu	a3,0(a3)
100004f0:	00170793          	addi	a5,a4,1
100004f4:	00e50733          	add	a4,a0,a4
100004f8:	0ff7f793          	andi	a5,a5,255
100004fc:	00d70023          	sb	a3,0(a4)
10000500:	0045d593          	srli	a1,a1,0x4
10000504:	00078713          	mv	a4,a5
10000508:	fc059ee3          	bnez	a1,100004e4 <format_hex32+0x10>
1000050c:	00078513          	mv	a0,a5
10000510:	00008067          	ret
10000514:	03000793          	li	a5,48
10000518:	00f50023          	sb	a5,0(a0)
1000051c:	00100793          	li	a5,1
10000520:	fedff06f          	j	1000050c <format_hex32+0x38>

10000524 <printf>:
10000524:	f8010113          	addi	sp,sp,-128
10000528:	06f12a23          	sw	a5,116(sp)
1000052c:	06410793          	addi	a5,sp,100
10000530:	04812c23          	sw	s0,88(sp)
10000534:	05412423          	sw	s4,72(sp)
10000538:	05512223          	sw	s5,68(sp)
1000053c:	05612023          	sw	s6,64(sp)
10000540:	03712e23          	sw	s7,60(sp)
10000544:	03812c23          	sw	s8,56(sp)
10000548:	04112e23          	sw	ra,92(sp)
1000054c:	04912a23          	sw	s1,84(sp)
10000550:	05212823          	sw	s2,80(sp)
10000554:	05312623          	sw	s3,76(sp)
10000558:	00050413          	mv	s0,a0
1000055c:	06b12223          	sw	a1,100(sp)
10000560:	06c12423          	sw	a2,104(sp)
10000564:	06d12623          	sw	a3,108(sp)
10000568:	06e12823          	sw	a4,112(sp)
1000056c:	07012c23          	sw	a6,120(sp)
10000570:	07112e23          	sw	a7,124(sp)
10000574:	02f12023          	sw	a5,32(sp)
10000578:	02500a13          	li	s4,37
1000057c:	03000a93          	li	s5,48
10000580:	00900b93          	li	s7,9
10000584:	07300b13          	li	s6,115
10000588:	fff00c13          	li	s8,-1
1000058c:	00044503          	lbu	a0,0(s0)
10000590:	02051a63          	bnez	a0,100005c4 <printf+0xa0>
10000594:	05c12083          	lw	ra,92(sp)
10000598:	05812403          	lw	s0,88(sp)
1000059c:	05412483          	lw	s1,84(sp)
100005a0:	05012903          	lw	s2,80(sp)
100005a4:	04c12983          	lw	s3,76(sp)
100005a8:	04812a03          	lw	s4,72(sp)
100005ac:	04412a83          	lw	s5,68(sp)
100005b0:	04012b03          	lw	s6,64(sp)
100005b4:	03c12b83          	lw	s7,60(sp)
100005b8:	03812c03          	lw	s8,56(sp)
100005bc:	08010113          	addi	sp,sp,128
100005c0:	00008067          	ret
100005c4:	17451063          	bne	a0,s4,10000724 <printf+0x200>
100005c8:	00144783          	lbu	a5,1(s0)
100005cc:	01479a63          	bne	a5,s4,100005e0 <printf+0xbc>
100005d0:	02500513          	li	a0,37
100005d4:	1e8000ef          	jal	ra,100007bc <putchar>
100005d8:	00240413          	addi	s0,s0,2
100005dc:	fb1ff06f          	j	1000058c <printf+0x68>
100005e0:	07578a63          	beq	a5,s5,10000654 <printf+0x130>
100005e4:	00140413          	addi	s0,s0,1
100005e8:	02000993          	li	s3,32
100005ec:	00000913          	li	s2,0
100005f0:	00044483          	lbu	s1,0(s0)
100005f4:	fd048793          	addi	a5,s1,-48
100005f8:	0ff7f793          	andi	a5,a5,255
100005fc:	06fbf263          	bleu	a5,s7,10000660 <printf+0x13c>
10000600:	13648663          	beq	s1,s6,1000072c <printf+0x208>
10000604:	069b6e63          	bltu	s6,s1,10000680 <printf+0x15c>
10000608:	06300793          	li	a5,99
1000060c:	10f48463          	beq	s1,a5,10000714 <printf+0x1f0>
10000610:	06400793          	li	a5,100
10000614:	0cf48a63          	beq	s1,a5,100006e8 <printf+0x1c4>
10000618:	02500513          	li	a0,37
1000061c:	1a0000ef          	jal	ra,100007bc <putchar>
10000620:	01599663          	bne	s3,s5,1000062c <printf+0x108>
10000624:	03000513          	li	a0,48
10000628:	194000ef          	jal	ra,100007bc <putchar>
1000062c:	00090e63          	beqz	s2,10000648 <printf+0x124>
10000630:	00090593          	mv	a1,s2
10000634:	01c10513          	addi	a0,sp,28
10000638:	e0dff0ef          	jal	ra,10000444 <format_dec32>
1000063c:	00050493          	mv	s1,a0
10000640:	fff48493          	addi	s1,s1,-1
10000644:	11849c63          	bne	s1,s8,1000075c <printf+0x238>
10000648:	00044503          	lbu	a0,0(s0)
1000064c:	06050863          	beqz	a0,100006bc <printf+0x198>
10000650:	0d40006f          	j	10000724 <printf+0x200>
10000654:	00240413          	addi	s0,s0,2
10000658:	03000993          	li	s3,48
1000065c:	f91ff06f          	j	100005ec <printf+0xc8>
10000660:	00090513          	mv	a0,s2
10000664:	00a00593          	li	a1,10
10000668:	b45ff0ef          	jal	ra,100001ac <__mulsi3>
1000066c:	00a48533          	add	a0,s1,a0
10000670:	fd050613          	addi	a2,a0,-48
10000674:	0ff67913          	andi	s2,a2,255
10000678:	00140413          	addi	s0,s0,1
1000067c:	f75ff06f          	j	100005f0 <printf+0xcc>
10000680:	07500793          	li	a5,117
10000684:	04f48463          	beq	s1,a5,100006cc <printf+0x1a8>
10000688:	07800793          	li	a5,120
1000068c:	f8f496e3          	bne	s1,a5,10000618 <printf+0xf4>
10000690:	02012783          	lw	a5,32(sp)
10000694:	02410513          	addi	a0,sp,36
10000698:	0007a583          	lw	a1,0(a5)
1000069c:	00478713          	addi	a4,a5,4
100006a0:	02e12023          	sw	a4,32(sp)
100006a4:	e31ff0ef          	jal	ra,100004d4 <format_hex32>
100006a8:	00050593          	mv	a1,a0
100006ac:	00098693          	mv	a3,s3
100006b0:	00090613          	mv	a2,s2
100006b4:	02410513          	addi	a0,sp,36
100006b8:	d15ff0ef          	jal	ra,100003cc <print_reversed_with_padding>
100006bc:	00044783          	lbu	a5,0(s0)
100006c0:	ec0786e3          	beqz	a5,1000058c <printf+0x68>
100006c4:	00140413          	addi	s0,s0,1
100006c8:	ec5ff06f          	j	1000058c <printf+0x68>
100006cc:	02012783          	lw	a5,32(sp)
100006d0:	00478713          	addi	a4,a5,4
100006d4:	0007a583          	lw	a1,0(a5)
100006d8:	02e12023          	sw	a4,32(sp)
100006dc:	02410513          	addi	a0,sp,36
100006e0:	d65ff0ef          	jal	ra,10000444 <format_dec32>
100006e4:	fc5ff06f          	j	100006a8 <printf+0x184>
100006e8:	02012783          	lw	a5,32(sp)
100006ec:	00478713          	addi	a4,a5,4
100006f0:	0007a583          	lw	a1,0(a5)
100006f4:	02e12023          	sw	a4,32(sp)
100006f8:	fe05d2e3          	bgez	a1,100006dc <printf+0x1b8>
100006fc:	02d00513          	li	a0,45
10000700:	00b12623          	sw	a1,12(sp)
10000704:	0b8000ef          	jal	ra,100007bc <putchar>
10000708:	00c12583          	lw	a1,12(sp)
1000070c:	40b005b3          	neg	a1,a1
10000710:	fcdff06f          	j	100006dc <printf+0x1b8>
10000714:	02012783          	lw	a5,32(sp)
10000718:	00478713          	addi	a4,a5,4
1000071c:	0007c503          	lbu	a0,0(a5)
10000720:	02e12023          	sw	a4,32(sp)
10000724:	098000ef          	jal	ra,100007bc <putchar>
10000728:	f95ff06f          	j	100006bc <printf+0x198>
1000072c:	02012783          	lw	a5,32(sp)
10000730:	00478713          	addi	a4,a5,4
10000734:	0007a483          	lw	s1,0(a5)
10000738:	02e12023          	sw	a4,32(sp)
1000073c:	00049663          	bnez	s1,10000748 <printf+0x224>
10000740:	00000497          	auipc	s1,0x0
10000744:	a4448493          	addi	s1,s1,-1468 # 10000184 <hex_symbols+0x10>
10000748:	0004c503          	lbu	a0,0(s1)
1000074c:	f60508e3          	beqz	a0,100006bc <printf+0x198>
10000750:	00148493          	addi	s1,s1,1
10000754:	068000ef          	jal	ra,100007bc <putchar>
10000758:	ff1ff06f          	j	10000748 <printf+0x224>
1000075c:	01c10713          	addi	a4,sp,28
10000760:	009707b3          	add	a5,a4,s1
10000764:	0007c503          	lbu	a0,0(a5)
10000768:	054000ef          	jal	ra,100007bc <putchar>
1000076c:	ed5ff06f          	j	10000640 <printf+0x11c>

10000770 <uart_init>:
10000770:	030027b7          	lui	a5,0x3002
10000774:	00078223          	sb	zero,4(a5) # 3002004 <status+0x1ffc>
10000778:	f8000713          	li	a4,-128
1000077c:	00e78623          	sb	a4,12(a5)
10000780:	03400713          	li	a4,52
10000784:	00e78023          	sb	a4,0(a5)
10000788:	00078223          	sb	zero,4(a5)
1000078c:	00300713          	li	a4,3
10000790:	00e78623          	sb	a4,12(a5)
10000794:	fc700713          	li	a4,-57
10000798:	00e78423          	sb	a4,8(a5)
1000079c:	00078823          	sb	zero,16(a5)
100007a0:	00008067          	ret

100007a4 <uart_write>:
100007a4:	03002737          	lui	a4,0x3002
100007a8:	01474783          	lbu	a5,20(a4) # 3002014 <status+0x200c>
100007ac:	0207f793          	andi	a5,a5,32
100007b0:	fe078ce3          	beqz	a5,100007a8 <uart_write+0x4>
100007b4:	00a70023          	sb	a0,0(a4)
100007b8:	00008067          	ret

100007bc <putchar>:
100007bc:	fe9ff06f          	j	100007a4 <uart_write>

Disassembly of section .Pulp_Chip.Info:

00000000 <.Pulp_Chip.Info>:
   0:	000a                	0xa
   2:	0000                	unimp
   4:	0038                	addi	a4,sp,8
   6:	0000                	unimp
   8:	0001                	nop
   a:	0000                	unimp
   c:	7550                	flw	fa2,44(a0)
   e:	706c                	flw	fa1,100(s0)
  10:	495f 666e 006f      	0x6f666e495f
  16:	70696863          	bltu	s2,t1,726 <status-0x2fff8e2>
  1a:	6e3d                	lui	t3,0xf
  1c:	20656e6f          	jal	t3,56222 <status-0x2fa9de6>
  20:	3d757063          	bleu	s7,a0,3e0 <status-0x2fffc28>
  24:	6f6e                	flw	ft10,216(sp)
  26:	656e                	flw	fa0,216(sp)
  28:	7020                	flw	fs0,96(s0)
  2a:	3d65                	jal	fffffee2 <pulp__FC+0xfffffee3>
  2c:	312d                	jal	fffffc56 <pulp__FC+0xfffffc57>
  2e:	6620                	flw	fs0,72(a2)
  30:	312d3d63          	p.bneimm	s10,-14,34a <status-0x2fffcbe>
  34:	6c20                	flw	fs0,88(s0)
  36:	3d32                	fld	fs10,296(sp)
  38:	312d                	jal	fffffc62 <pulp__FC+0xfffffc63>
  3a:	6c20                	flw	fs0,88(s0)
  3c:	6331                	lui	t1,0xc
  3e:	3d6c                	fld	fa1,248(a0)
  40:	312d                	jal	fffffc6a <pulp__FC+0xfffffc6b>
  42:	6c20                	flw	fs0,88(s0)
  44:	6631                	lui	a2,0xc
  46:	312d3d63          	p.bneimm	s10,-14,360 <status-0x2fffca8>
  4a:	0000                	unimp
	...
