
bin/referensi_matlab_fir_prog1_1800.elf:     file format elf32-littleriscv

Contents of section .text._start:
 10000000 97110000 93810180 17110000 130181ff  ................
 10000010 93000000 13020000 93020000 13030000  ................
 10000020 93030000 13040000 93040000 13050000  ................
 10000030 93050000 13060000 93060000 13070000  ................
 10000040 93070000 ef008040 970200f3 938202fc  .......@........
 10000050 23a0a200 73005010                    #...s.P.        
Contents of section .misc:
 10000058 cef90d04 7d081002 40f6a6fa 87176635  ....}...@.....f5
 10000068 66358717 a6fa40f6 10027d08 0d04cef9  f5....@...}.....
 10000078 52454620 46495220 53545245 414d204d  REF FIR STREAM M
 10000088 4f444520 2d203330 78363000 73656e64  ODE - 30x60.send
 10000098 20656163 68206261 74636820 61732036   each batch as 6
 100000a8 30206c69 6e65733a 20782079 5f726566  0 lines: x y_ref
 100000b8 00000000 6f757470 75742066 6f726d61  ....output forma
 100000c8 743a2078 20795f6f 75742079 5f726566  t: x y_out y_ref
 100000d8 5f706c75 735f3130 30300000 5b524541  _plus_1000..[REA
 100000e8 44595d20 62617463 68202564 2f25645c  DY] batch %d/%d\
 100000f8 725c6e00 25642025 64202564 5c725c6e  r\n.%d %d %d\r\n
 10000108 00000000 5b444f4e 455d2062 61746368  ....[DONE] batch
 10000118 2025642f 25645c72 5c6e0000 5b435943   %d/%d\r\n..[CYC
 10000128 4c455f44 4f4e455d 20333020 62617463  LE_DONE] 30 batc
 10000138 68657320 636f6d70 6c657465 5c725c6e  hes complete\r\n
 10000148 00000000 4552523a 20706172 73652062  ....ERR: parse b
 10000158 61746368 2025645c 725c6e00 30313233  atch %d\r\n.0123
 10000168 34353637 38394142 43444546 286e756c  456789ABCDEF(nul
 10000178 6c290000 00000000 00000000 00000000  l)..............
 10000188 00000000 00000000 00000000 00000000  ................
 10000198 00000000 00000000 00000000 00000000  ................
 100001a8 00000000 00000000 00000000 00000000  ................
 100001b8 00000000 00000000 00000000 00000000  ................
 100001c8 00000000 00000000 00000000 00000000  ................
 100001d8 00000000 00000000 00000000 00000000  ................
 100001e8 00000000 00000000 00000000 00000000  ................
 100001f8 00000000 00000000 00000000 00000000  ................
 10000208 00000000 00000000 00000000 00000000  ................
 10000218 00000000 00000000 00000000 00000000  ................
 10000228 00000000 00000000 00000000 00000000  ................
 10000238 00000000 00000000 00000000 00000000  ................
 10000248 00000000 00000000 00000000 00000000  ................
 10000258 00000000 00000000 00000000 00000000  ................
 10000268 00000000 00000000 00000000 00000000  ................
 10000278 00000000 00000000 00000000 00000000  ................
 10000288 00000000                             ....            
Contents of section .text:
 1000028c 2a860145 93f61500 91c23295 85810606  *..E......2.....
 1000029c f5f98280 00000000 634e0502 63c30504  ........cN..c...
 100002ac 2e86aa85 7d5515c2 85466378 b6006356  ....}U...Fcx..cV
 100002bc c0000606 8606e36c b6fe0145 63e4c500  .......l...Ec...
 100002cc 918d558d 85820582 f5fa8280 8682c93f  ..U............?
 100002dc 2e858282 3305a040 63d70500 b305b040  ....3..@c......@
 100002ec c1b7b305 b0408682 653f3305 a0408282  .....@..e?3..@..
 100002fc 868263c7 05006349 05005d37 2e858282  ..c...cI..]7....
 1000030c b305b040 e35b05fe 3305a040 513f3305  ...@.[..3..@Q?3.
 1000031c b0408282 00000000 130101ff 23248100  .@..........#$..
 1000032c 23261100 13040500 03450400 631a0500  #&.......E..c...
 1000033c 8320c100 03248100 13010101 67800000  . ...$......g...
 1000034c 13041400 ef000073 6ff01ffe 130101ff  .......so.......
 1000035c 1305d000 23261100 ef00c071 8320c100  ....#&.....q. ..
 1000036c 1305a000 13010101 6f00c070 130101fe  ........o..p....
 1000037c 232c8100 232a9100 23282101 23263101  #,..#*..#(!.#&1.
 1000038c 232e1100 23244101 93090500 93040002  #...#$A.........
 1000039c 13091000 1304d000 ef004071 e30e95fe  ..........@q....
 100003ac 930775ff 93f7f70f e378f9fe e30685fe  ..u......x......
 100003bc 9307d002 631ef504 ef00406f 1309f0ff  ....c.....@o....
 100003cc 93040000 93070000 130a9000 130405fd  ................
 100003dc 1377f40f 6378ea04 638a0700 1307f0ff  .w..cx..c.......
 100003ec 6314e900 b3049040 23a09900 8320c101  c......@#.... ..
 100003fc 03248101 83244101 03290101 8329c100  .$...$A..)...)..
 1000040c 032a8100 13850700 13010102 67800000  .*..........g...
 1000041c 9307b002 13091000 e314f5fa ef000069  ...............i
 1000042c 6ff01ffa 9305a000 13850400 eff05fe5  o............._.
 1000043c b304a400 ef008067 93071000 6ff01ff9  .......g....o...
 1000044c 130101fa 232e1104 23225105 23206105  ....#...#"Q.# a.
 1000045c 232c8104 232a9104 23282105 23263105  #,..#*..#(!.#&1.
 1000046c 23244105 232e7103 232c8103 232a9103  #$A.#.q.#,..#*..
 1000047c 2328a103 2326b103 ef00805c eff01fed  #(..#&.....\....
 1000048c 17050000 1305c5be eff01fe9 eff01fec  ................
 1000049c 17050000 130585bf eff01fe8 eff01feb  ................
 100004ac 17050000 130505c1 eff01fe7 970a0000  ................
 100004bc 938a4ace eff09fe9 170b0000 130b0bd5  ..J.............
 100004cc ef00c05c 17090000 1309c9ca 13070900  ...\............
 100004dc 93070000 930d0900 93060001 23100700  ............#...
 100004ec 93871700 13072700 e39ad7fe b7890000  ......'.........
 100004fc 930b0000 138af9ff 93841b00 1306e001  ................
 1000050c 93850400 17050000 130545bd ef00802e  ..........E.....
 1000051c 13040000 ef008057 13058101 eff01fe5  .......W........
 1000052c 63040516 1305c101 eff05fe4 630e0514  c........._.c...
 1000053c 03278101 93070a00 635c3701 b786ffff  .'......c\7.....
 1000054c b787ffff 6346d700 93170701 93d70741  ....cF.........A
 1000055c 33878a00 2310f700 0327c101 93070a00  3...#....'......
 1000056c 635c3701 b786ffff b787ffff 6346d700  c\7.........cF..
 1000057c 93170701 93d70741 33078b00 2310f700  .......A3...#...
 1000058c 13042400 93078007 e318f4f8 930b0000  ..$.............
 1000059c 170d0000 130dcdab 930c0002 170c0000  ................
 100005ac 130c4cb5 33877a01 03180700 17070000  ..L.3.z.........
 100005bc 130727be 8356e7ff 1307e7ff 2311d700  ..'..V......#...
 100005cc e31ae9fe 97070000 239607bb 13070000  ........#.......
 100005dc 13040000 93060000 3306ed00 b385ed00  ........3.......
 100005ec 83950500 03150600 2322d100 2324e100  ........#"..#$..
 100005fc 23260101 eff0dfc8 83264100 03278100  #&.......&A..'..
 1000060c 9355f541 3305a400 33368500 b386b600  .U.A3...36......
 1000061c 13072700 13040500 b306d600 0328c100  ..'..........(..
 1000062c e31c97fb 33077b01 1356f500 83160700  ....3.{..V......
 1000063c 13160601 13560641 93050800 13050c00  .....V.A........
 1000064c ef00401b 938b2b00 93078007 e39cfbf4  ..@...+.........
 1000065c 1306e001 93850400 17050000 130585aa  ................
 1000066c ef004019 ef008042 9307e001 938b0400  ..@....B........
 1000067c e394f4e8 17050000 130545aa ef008017  ..........E.....
 1000068c ef00c040 6ff01fe4 93850b00 17050000  ...@o...........
 1000069c 130545ab ef000016 6ff0dffc 130101fe  ..E.....o.......
 100006ac 232c8100 23282101 232e1100 232a9100  #,..#(!.#...#*..
 100006bc 13090500 13840500 6364c402 9304f0ff  ........cd......
 100006cc 1304f4ff 63109404 8320c101 03248101  ....c.... ...$..
 100006dc 83244101 03290101 13010102 67800000  .$A..)......g...
 100006ec 13850600 2326c100 2324d100 ef00803d  ....#&..#$.....=
 100006fc 0326c100 83268100 1306f6ff 1376f60f  .&...&.......v..
 1000070c 6ff09ffb b3078900 03c50700 ef00803b  o..............;
 1000071c 6ff01ffb 130101fe 23263101 232e1100  o.......#&1.#...
 1000072c 232c8100 232a9100 23282101 93090500  #,..#*..#(!.....
 1000073c 63820506 93840500 93070000 9305a000  c...............
 1000074c 13850400 13841700 3389f900 eff01fb8  ........3.......
 1000075c 13050503 2300a900 9305a000 13850400  ....#...........
 1000076c eff01fb4 1374f40f 93040500 93070400  .....t..........
 1000077c e31605fc 13050400 8320c101 03248101  ......... ...$..
 1000078c 83244101 03290101 8329c100 13010102  .$A..)...)......
 1000079c 67800000 93070003 2300f500 13041000  g.......#.......
 100007ac 6ff05ffd 63800504 13070000 17060000  o._.c...........
 100007bc 1306c69a 93f6f500 b306d600 83c60600  ................
 100007cc 93071700 3307e500 93f7f70f 2300d700  ....3.......#...
 100007dc 93d54500 13870700 e39e05fc 13850700  ..E.............
 100007ec 67800000 93070003 2300f500 93071000  g.......#.......
 100007fc 6ff0dffe 130101f8 232af106 93074106  o.......#*....A.
 1000080c 232c8104 23244105 23225105 23206105  #,..#$A.#"Q.# a.
 1000081c 232e7103 232c8103 232e1104 232a9104  #.q.#,..#...#*..
 1000082c 23282105 23263105 13040500 2322b106  #(!.#&1.....#"..
 1000083c 2324c106 2326d106 2328e106 232c0107  #$..#&..#(..#,..
 1000084c 232e1107 2320f102 130a5002 930a0003  #...# ....P.....
 1000085c 930b9000 130b3007 130cf0ff 03450400  ......0......E..
 1000086c 631a0502 8320c105 03248105 83244105  c.... ...$...$A.
 1000087c 03290105 8329c104 032a8104 832a4104  .)...)...*...*A.
 1000088c 032b0104 832bc103 032c8103 13010108  .+...+...,......
 1000089c 67800000 63104517 83471400 639a4701  g...c.E..G..c.G.
 100008ac 13055002 ef000022 13042400 6ff01ffb  ..P...."..$.o...
 100008bc 638a5707 13041400 93090002 13090000  c.W.............
 100008cc 83440400 938704fd 93f7f70f 63f2fb06  .D..........c...
 100008dc 63866413 636e9b06 93073006 6384f410  c.d.cn....0.c...
 100008ec 93074006 638af40c 13055002 ef00801d  ..@.c.....P.....
 100008fc 63965901 13050003 ef00c01c 630e0900  c.Y.........c...
 1000090c 93050900 1305c101 eff0dfe0 93040500  ................
 1000091c 9384f4ff 639c8411 03450400 63080506  ....c....E..c...
 1000092c 6f00400d 13042400 93090003 6ff01ff9  o.@...$.....o...
 1000093c 13050900 9305a000 eff09f94 3385a400  ............3...
 1000094c 130605fd 1379f60f 13041400 6ff05ff7  .....y......o._.
 1000095c 93075007 6384f404 93078007 e396f4f8  ..P.c...........
 1000096c 83270102 13054102 83a50700 13874700  .'....A.......G.
 1000097c 2320e102 eff01fe3 93050500 93860900  # ..............
 1000098c 13060900 13054102 eff05fd1 83470400  ......A..._..G..
 1000099c e38607ec 13041400 6ff05fec 83270102  ........o._..'..
 100009ac 13874700 83a50700 2320e102 13054102  ..G.....# ....A.
 100009bc eff05fd6 6ff05ffc 83270102 13874700  .._.o._..'....G.
 100009cc 83a50700 2320e102 e3d205fe 1305d002  ....# ..........
 100009dc 2326b100 ef00000f 8325c100 b305b040  #&.......%.....@
 100009ec 6ff0dffc 83270102 13874700 03c50700  o....'....G.....
 100009fc 2320e102 ef00000d 6ff05ff9 83270102  # ......o._..'..
 10000a0c 13874700 83a40700 2320e102 63960400  ..G.....# ..c...
 10000a1c 97f4ffff 93848475 03c50400 e30805f6  .......u........
 10000a2c 93841400 ef00000a 6ff01fff 1307c101  ........o.......
 10000a3c b3079700 03c50700 ef00c008 6ff05fed  ............o._.
 10000a4c b7270003 23820700 130700f8 2386e700  .'..#.......#...
 10000a5c 13074003 2380e700 23820700 13073000  ..@.#...#.....0.
 10000a6c 2386e700 130770fc 2384e700 23880700  #.....p.#...#...
 10000a7c 67800000 37270003 83474701 93f70702  g...7'...GG.....
 10000a8c e38c07fe 2300a700 67800000 37270003  ....#...g...7'..
 10000a9c 83474701 93f70702 e38c07fe 83474701  .GG..........GG.
 10000aac 93f70704 e38607fe 67800000 37270003  ........g...7'..
 10000abc 83474701 93f71700 e38c07fe 03450700  .GG..........E..
 10000acc 67800000 6ff01ffb                    g...o...        
Contents of section .Pulp_Chip.Info:
 0000 0a000000 38000000 01000000 50756c70  ....8.......Pulp
 0010 5f496e66 6f006368 69703d6e 6f6e6520  _Info.chip=none 
 0020 6370753d 6e6f6e65 2070653d 2d312066  cpu=none pe=-1 f
 0030 633d2d31 206c323d 2d31206c 31636c3d  c=-1 l2=-1 l1cl=
 0040 2d31206c 3166633d 2d310000 0000      -1 l1fc=-1....  
Contents of section .debug_line:
 0000 ac000000 02006600 00000101 fb0e0d00  ......f.........
 0010 01010101 00000001 0000012f 686f6d65  .........../home
 0020 2f646576 616e2f53 6f432f70 756c702d  /devan/SoC/pulp-
 0030 72697363 762d676e 752d746f 6f6c6368  riscv-gnu-toolch
 0040 61696e2f 72697363 762d6763 632f6c69  ain/riscv-gcc/li
 0050 62676363 2f636f6e 6669672f 72697363  bgcc/config/risc
 0060 7600006d 756c6469 332e5300 01000000  v..muldi3.S.....
 0070 0005028c 02001003 23010301 09020001  ........#.......
 0080 03020902 00010301 09040001 03010902  ................
 0090 00010302 09020001 03010902 00010301  ................
 00a0 09020001 03010902 00010902 00000101  ................
 00b0 82010000 02006300 00000101 fb0e0d00  ......c.........
 00c0 01010101 00000001 0000012f 686f6d65  .........../home
 00d0 2f646576 616e2f53 6f432f70 756c702d  /devan/SoC/pulp-
 00e0 72697363 762d676e 752d746f 6f6c6368  riscv-gnu-toolch
 00f0 61696e2f 72697363 762d6763 632f6c69  ain/riscv-gcc/li
 0100 62676363 2f636f6e 6669672f 72697363  bgcc/config/risc
 0110 76000064 69762e53 00010000 00000502  v..div.S........
 0120 a4020010 03c50001 03010904 00010305  ................
 0130 09040001 03010902 00010301 09020001  ................
 0140 03010902 00010301 09020001 03010902  ................
 0150 00010302 09040001 03010904 00010301  ................
 0160 09020001 03010902 00010302 09040001  ................
 0170 03020902 00010301 09040001 03010902  ................
 0180 00010302 09020001 03010902 00010301  ................
 0190 09020001 03020902 00010305 09020001  ................
 01a0 03010902 00010301 09020001 03010902  ................
 01b0 00010304 09020001 03010904 00010301  ................
 01c0 09040001 03010904 00010302 09020001  ................
 01d0 03020904 00010301 09020001 03010902  ................
 01e0 00010301 09040001 03040902 00010301  ................
 01f0 09020001 03010904 00010302 09040001  ................
 0200 03010902 00010301 09020001 03020902  ................
 0210 00010301 09040001 03020904 00010301  ................
 0220 09040001 03010902 00010301 09040001  ................
 0230 09020000 0101                        ......          
Contents of section .debug_info:
 0000 d0000000 02000000 00000401 00000000  ................
 0010 8c020010 a0020010 2f686f6d 652f6465  ......../home/de
 0020 76616e2f 536f432f 70756c70 2d726973  van/SoC/pulp-ris
 0030 63762d67 6e752d74 6f6f6c63 6861696e  cv-gnu-toolchain
 0040 2f726973 63762d67 63632f6c 69626763  /riscv-gcc/libgc
 0050 632f636f 6e666967 2f726973 63762f6d  c/config/riscv/m
 0060 756c6469 332e5300 2f686f6d 652f6465  uldi3.S./home/de
 0070 76616e2f 536f432f 70756c70 2d726973  van/SoC/pulp-ris
 0080 63762d67 6e752d74 6f6f6c63 6861696e  cv-gnu-toolchain
 0090 2f627569 6c642d67 63632d6e 65776c69  /build-gcc-newli
 00a0 622d7374 61676532 2f726973 63763332  b-stage2/riscv32
 00b0 2d756e6b 6e6f776e 2d656c66 2f6c6962  -unknown-elf/lib
 00c0 67636300 474e5520 41532032 2e32382e  gcc.GNU AS 2.28.
 00d0 30000180 cd000000 02001400 00000401  0...............
 00e0 b0000000 a4020010 20030010 2f686f6d  ........ .../hom
 00f0 652f6465 76616e2f 536f432f 70756c70  e/devan/SoC/pulp
 0100 2d726973 63762d67 6e752d74 6f6f6c63  -riscv-gnu-toolc
 0110 6861696e 2f726973 63762d67 63632f6c  hain/riscv-gcc/l
 0120 69626763 632f636f 6e666967 2f726973  ibgcc/config/ris
 0130 63762f64 69762e53 002f686f 6d652f64  cv/div.S./home/d
 0140 6576616e 2f536f43 2f70756c 702d7269  evan/SoC/pulp-ri
 0150 7363762d 676e752d 746f6f6c 63686169  scv-gnu-toolchai
 0160 6e2f6275 696c642d 6763632d 6e65776c  n/build-gcc-newl
 0170 69622d73 74616765 322f7269 73637633  ib-stage2/riscv3
 0180 322d756e 6b6e6f77 6e2d656c 662f6c69  2-unknown-elf/li
 0190 62676363 00474e55 20415320 322e3238  bgcc.GNU AS 2.28
 01a0 2e300001 80                          .0...           
Contents of section .debug_abbrev:
 0000 01110010 06110112 0103081b 08250813  .............%..
 0010 05000000 01110010 06110112 0103081b  ................
 0020 08250813 05000000                    .%......        
Contents of section .debug_aranges:
 0000 1c000000 02000000 00000400 00000000  ................
 0010 8c020010 14000000 00000000 00000000  ................
 0020 1c000000 0200d400 00000400 00000000  ................
 0030 a4020010 7c000000 00000000 00000000  ....|...........

Disassembly of section .text._start:

10000000 <_start>:
10000000:	00001197          	auipc	gp,0x1
10000004:	80018193          	addi	gp,gp,-2048 # 10000800 <__global_pointer>
10000008:	00001117          	auipc	sp,0x1
1000000c:	ff810113          	addi	sp,sp,-8 # 10001000 <__stack_pointer>
10000010:	00000093          	li	ra,0
10000014:	00000213          	li	tp,0
10000018:	00000293          	li	t0,0
1000001c:	00000313          	li	t1,0
10000020:	00000393          	li	t2,0
10000024:	00000413          	li	s0,0
10000028:	00000493          	li	s1,0
1000002c:	00000513          	li	a0,0
10000030:	00000593          	li	a1,0
10000034:	00000613          	li	a2,0
10000038:	00000693          	li	a3,0
1000003c:	00000713          	li	a4,0
10000040:	00000793          	li	a5,0
10000044:	408000ef          	jal	ra,1000044c <main>

10000048 <_eoc>:
10000048:	f3000297          	auipc	t0,0xf3000
1000004c:	fc028293          	addi	t0,t0,-64 # 3000008 <status>
10000050:	00a2a023          	sw	a0,0(t0)
10000054:	10500073          	wfi

Disassembly of section .misc:

10000058 <fir_coeff>:
10000058:	f9ce                	fsw	fs3,240(sp)
1000005a:	040d                	addi	s0,s0,3
1000005c:	087d                	addi	a6,a6,31
1000005e:	0210                	addi	a2,sp,256
10000060:	f640                	fsw	fs0,44(a2)
10000062:	faa6                	fsw	fs1,116(sp)
10000064:	35661787          	0x35661787
10000068:	3566                	fld	fa0,120(sp)
1000006a:	faa61787          	0xfaa61787
1000006e:	f640                	fsw	fs0,44(a2)
10000070:	0210                	addi	a2,sp,256
10000072:	087d                	addi	a6,a6,31
10000074:	040d                	addi	s0,s0,3
10000076:	f9ce                	fsw	fs3,240(sp)
10000078:	4552                	lw	a0,20(sp)
1000007a:	2046                	fld	ft0,80(sp)
1000007c:	4946                	lw	s2,80(sp)
1000007e:	2052                	fld	ft0,272(sp)
10000080:	45525453          	0x45525453
10000084:	4d41                	li	s10,16
10000086:	4d20                	lw	s0,88(a0)
10000088:	2045444f          	fnmadd.s	fs0,fa0,ft4,ft4,rmm
1000008c:	202d                	jal	100000b6 <fir_coeff+0x5e>
1000008e:	36783033          	0x36783033
10000092:	0030                	addi	a2,sp,8
10000094:	646e6573          	csrrsi	a0,0x646,28
10000098:	6520                	flw	fs0,72(a0)
1000009a:	6361                	lui	t1,0x18
1000009c:	2068                	fld	fa0,192(s0)
1000009e:	6162                	flw	ft2,24(sp)
100000a0:	6374                	flw	fa3,68(a4)
100000a2:	2068                	fld	fa0,192(s0)
100000a4:	7361                	lui	t1,0xffff8
100000a6:	3620                	fld	fs0,104(a2)
100000a8:	2030                	fld	fa2,64(s0)
100000aa:	696c                	flw	fa1,84(a0)
100000ac:	656e                	flw	fa0,216(sp)
100000ae:	78203a73          	csrrc	s4,pccr2,zero
100000b2:	7920                	flw	fs0,112(a0)
100000b4:	725f 6665 0000      	0x6665725f
100000ba:	0000                	unimp
100000bc:	7074756f          	jal	a0,10047fc2 <__stack_pointer+0x46fc2>
100000c0:	7475                	lui	s0,0xffffd
100000c2:	6620                	flw	fs0,72(a2)
100000c4:	616d726f          	jal	tp,100d76da <__stack_pointer+0xd66da>
100000c8:	3a74                	fld	fa3,240(a2)
100000ca:	7820                	flw	fs0,112(s0)
100000cc:	7920                	flw	fs0,112(a0)
100000ce:	6f5f 7475 7920      	0x792074756f5f
100000d4:	725f 6665 705f      	0x705f6665725f
100000da:	756c                	flw	fa1,108(a0)
100000dc:	30315f73          	csrrwi	t5,0x303,2
100000e0:	3030                	fld	fa2,96(s0)
100000e2:	0000                	unimp
100000e4:	4145525b          	p.mac.zl.sh	tp,a0,s4,zero
100000e8:	5944                	lw	s1,52(a0)
100000ea:	205d                	jal	10000190 <fir_state+0x14>
100000ec:	6162                	flw	ft2,24(sp)
100000ee:	6374                	flw	fa3,68(a4)
100000f0:	2068                	fld	fa0,192(s0)
100000f2:	6425                	lui	s0,0x9
100000f4:	5c64252f          	0x5c64252f
100000f8:	5c72                	lw	s8,60(sp)
100000fa:	006e                	0x6e
100000fc:	6425                	lui	s0,0x9
100000fe:	2520                	fld	fs0,72(a0)
10000100:	2064                	fld	fs1,192(s0)
10000102:	6425                	lui	s0,0x9
10000104:	725c                	flw	fa5,36(a2)
10000106:	6e5c                	flw	fa5,28(a2)
10000108:	0000                	unimp
1000010a:	0000                	unimp
1000010c:	4e4f445b          	p.mac.zl.sl	s0,t5,tp,t2
10000110:	5d45                	li	s10,-15
10000112:	6220                	flw	fs0,64(a2)
10000114:	7461                	lui	s0,0xffff8
10000116:	25206863          	bltu	zero,s2,10000366 <put_crlf+0xe>
1000011a:	2f64                	fld	fs1,216(a4)
1000011c:	6425                	lui	s0,0x9
1000011e:	725c                	flw	fa5,36(a2)
10000120:	6e5c                	flw	fa5,28(a2)
10000122:	0000                	unimp
10000124:	4359435b          	p.mac.zl.sl	t1,s2,s5,ra
10000128:	454c                	lw	a1,12(a0)
1000012a:	445f 4e4f 5d45      	0x5d454e4f445f
10000130:	3320                	fld	fs0,96(a4)
10000132:	2030                	fld	fa2,64(s0)
10000134:	6162                	flw	ft2,24(sp)
10000136:	6374                	flw	fa3,68(a4)
10000138:	6568                	flw	fa0,76(a0)
1000013a:	6f632073          	csrs	0x6f6,t1
1000013e:	706d                	0x706d
10000140:	656c                	flw	fa1,76(a0)
10000142:	6574                	flw	fa3,76(a0)
10000144:	725c                	flw	fa5,36(a2)
10000146:	6e5c                	flw	fa5,28(a2)
10000148:	0000                	unimp
1000014a:	0000                	unimp
1000014c:	5245                	li	tp,-15
1000014e:	3a52                	fld	fs4,304(sp)
10000150:	7020                	flw	fs0,96(s0)
10000152:	7261                	lui	tp,0xffff8
10000154:	62206573          	csrrsi	a0,0x622,0
10000158:	7461                	lui	s0,0xffff8
1000015a:	25206863          	bltu	zero,s2,100003aa <read_int32_uart+0x32>
1000015e:	5c64                	lw	s1,124(s0)
10000160:	5c72                	lw	s8,60(sp)
10000162:	006e                	0x6e

10000164 <hex_symbols>:
10000164:	3130                	fld	fa2,96(a0)
10000166:	3332                	fld	ft6,296(sp)
10000168:	3534                	fld	fa3,104(a0)
1000016a:	3736                	fld	fa4,360(sp)
1000016c:	3938                	fld	fa4,112(a0)
1000016e:	4241                	li	tp,16
10000170:	46454443          	0x46454443
10000174:	6e28                	flw	fa0,88(a2)
10000176:	6c75                	lui	s8,0x1d
10000178:	296c                	fld	fa1,208(a0)
	...

1000017c <fir_state>:
	...

1000019c <input_batch>:
	...

10000214 <ref_batch>:
	...

Disassembly of section .text:

1000028c <__mulsi3>:
1000028c:	862a                	mv	a2,a0
1000028e:	4501                	li	a0,0
10000290:	0015f693          	andi	a3,a1,1
10000294:	c291                	beqz	a3,10000298 <__mulsi3+0xc>
10000296:	9532                	add	a0,a0,a2
10000298:	8185                	srli	a1,a1,0x1
1000029a:	0606                	slli	a2,a2,0x1
1000029c:	f9f5                	bnez	a1,10000290 <__mulsi3+0x4>
1000029e:	8082                	ret
100002a0:	0000                	unimp
	...

100002a4 <__divsi3>:
100002a4:	02054e63          	bltz	a0,100002e0 <__umodsi3+0x8>
100002a8:	0405c363          	bltz	a1,100002ee <__umodsi3+0x16>

100002ac <__udivsi3>:
100002ac:	862e                	mv	a2,a1
100002ae:	85aa                	mv	a1,a0
100002b0:	557d                	li	a0,-1
100002b2:	c215                	beqz	a2,100002d6 <__udivsi3+0x2a>
100002b4:	4685                	li	a3,1
100002b6:	00b67863          	bleu	a1,a2,100002c6 <__udivsi3+0x1a>
100002ba:	00c05663          	blez	a2,100002c6 <__udivsi3+0x1a>
100002be:	0606                	slli	a2,a2,0x1
100002c0:	0686                	slli	a3,a3,0x1
100002c2:	feb66ce3          	bltu	a2,a1,100002ba <__udivsi3+0xe>
100002c6:	4501                	li	a0,0
100002c8:	00c5e463          	bltu	a1,a2,100002d0 <__udivsi3+0x24>
100002cc:	8d91                	sub	a1,a1,a2
100002ce:	8d55                	or	a0,a0,a3
100002d0:	8285                	srli	a3,a3,0x1
100002d2:	8205                	srli	a2,a2,0x1
100002d4:	faf5                	bnez	a3,100002c8 <__udivsi3+0x1c>
100002d6:	8082                	ret

100002d8 <__umodsi3>:
100002d8:	8286                	mv	t0,ra
100002da:	3fc9                	jal	100002ac <__udivsi3>
100002dc:	852e                	mv	a0,a1
100002de:	8282                	jr	t0
100002e0:	40a00533          	neg	a0,a0
100002e4:	0005d763          	bgez	a1,100002f2 <__umodsi3+0x1a>
100002e8:	40b005b3          	neg	a1,a1
100002ec:	b7c1                	j	100002ac <__udivsi3>
100002ee:	40b005b3          	neg	a1,a1
100002f2:	8286                	mv	t0,ra
100002f4:	3f65                	jal	100002ac <__udivsi3>
100002f6:	40a00533          	neg	a0,a0
100002fa:	8282                	jr	t0

100002fc <__modsi3>:
100002fc:	8286                	mv	t0,ra
100002fe:	0005c763          	bltz	a1,1000030c <__modsi3+0x10>
10000302:	00054963          	bltz	a0,10000314 <__modsi3+0x18>
10000306:	375d                	jal	100002ac <__udivsi3>
10000308:	852e                	mv	a0,a1
1000030a:	8282                	jr	t0
1000030c:	40b005b3          	neg	a1,a1
10000310:	fe055be3          	bgez	a0,10000306 <__modsi3+0xa>
10000314:	40a00533          	neg	a0,a0
10000318:	3f51                	jal	100002ac <__udivsi3>
1000031a:	40b00533          	neg	a0,a1
1000031e:	8282                	jr	t0
10000320:	0000                	unimp
	...

10000324 <put_str>:
10000324:	ff010113          	addi	sp,sp,-16
10000328:	00812423          	sw	s0,8(sp)
1000032c:	00112623          	sw	ra,12(sp)
10000330:	00050413          	mv	s0,a0
10000334:	00044503          	lbu	a0,0(s0) # ffff8000 <pulp__FC+0xffff8001>
10000338:	00051a63          	bnez	a0,1000034c <put_str+0x28>
1000033c:	00c12083          	lw	ra,12(sp)
10000340:	00812403          	lw	s0,8(sp)
10000344:	01010113          	addi	sp,sp,16
10000348:	00008067          	ret
1000034c:	00140413          	addi	s0,s0,1
10000350:	730000ef          	jal	ra,10000a80 <uart_write>
10000354:	fe1ff06f          	j	10000334 <put_str+0x10>

10000358 <put_crlf>:
10000358:	ff010113          	addi	sp,sp,-16
1000035c:	00d00513          	li	a0,13
10000360:	00112623          	sw	ra,12(sp)
10000364:	71c000ef          	jal	ra,10000a80 <uart_write>
10000368:	00c12083          	lw	ra,12(sp)
1000036c:	00a00513          	li	a0,10
10000370:	01010113          	addi	sp,sp,16
10000374:	70c0006f          	j	10000a80 <uart_write>

10000378 <read_int32_uart>:
10000378:	fe010113          	addi	sp,sp,-32
1000037c:	00812c23          	sw	s0,24(sp)
10000380:	00912a23          	sw	s1,20(sp)
10000384:	01212823          	sw	s2,16(sp)
10000388:	01312623          	sw	s3,12(sp)
1000038c:	00112e23          	sw	ra,28(sp)
10000390:	01412423          	sw	s4,8(sp)
10000394:	00050993          	mv	s3,a0
10000398:	02000493          	li	s1,32
1000039c:	00100913          	li	s2,1
100003a0:	00d00413          	li	s0,13
100003a4:	714000ef          	jal	ra,10000ab8 <uart_read>
100003a8:	fe950ee3          	beq	a0,s1,100003a4 <read_int32_uart+0x2c>
100003ac:	ff750793          	addi	a5,a0,-9
100003b0:	0ff7f793          	andi	a5,a5,255
100003b4:	fef978e3          	bleu	a5,s2,100003a4 <read_int32_uart+0x2c>
100003b8:	fe8506e3          	beq	a0,s0,100003a4 <read_int32_uart+0x2c>
100003bc:	02d00793          	li	a5,45
100003c0:	04f51e63          	bne	a0,a5,1000041c <read_int32_uart+0xa4>
100003c4:	6f4000ef          	jal	ra,10000ab8 <uart_read>
100003c8:	fff00913          	li	s2,-1
100003cc:	00000493          	li	s1,0
100003d0:	00000793          	li	a5,0
100003d4:	00900a13          	li	s4,9
100003d8:	fd050413          	addi	s0,a0,-48
100003dc:	0ff47713          	andi	a4,s0,255
100003e0:	04ea7863          	bleu	a4,s4,10000430 <read_int32_uart+0xb8>
100003e4:	00078a63          	beqz	a5,100003f8 <read_int32_uart+0x80>
100003e8:	fff00713          	li	a4,-1
100003ec:	00e91463          	bne	s2,a4,100003f4 <read_int32_uart+0x7c>
100003f0:	409004b3          	neg	s1,s1
100003f4:	0099a023          	sw	s1,0(s3)
100003f8:	01c12083          	lw	ra,28(sp)
100003fc:	01812403          	lw	s0,24(sp)
10000400:	01412483          	lw	s1,20(sp)
10000404:	01012903          	lw	s2,16(sp)
10000408:	00c12983          	lw	s3,12(sp)
1000040c:	00812a03          	lw	s4,8(sp)
10000410:	00078513          	mv	a0,a5
10000414:	02010113          	addi	sp,sp,32
10000418:	00008067          	ret
1000041c:	02b00793          	li	a5,43
10000420:	00100913          	li	s2,1
10000424:	faf514e3          	bne	a0,a5,100003cc <read_int32_uart+0x54>
10000428:	690000ef          	jal	ra,10000ab8 <uart_read>
1000042c:	fa1ff06f          	j	100003cc <read_int32_uart+0x54>
10000430:	00a00593          	li	a1,10
10000434:	00048513          	mv	a0,s1
10000438:	e55ff0ef          	jal	ra,1000028c <__mulsi3>
1000043c:	00a404b3          	add	s1,s0,a0
10000440:	678000ef          	jal	ra,10000ab8 <uart_read>
10000444:	00100793          	li	a5,1
10000448:	f91ff06f          	j	100003d8 <read_int32_uart+0x60>

1000044c <main>:
1000044c:	fa010113          	addi	sp,sp,-96
10000450:	04112e23          	sw	ra,92(sp)
10000454:	05512223          	sw	s5,68(sp)
10000458:	05612023          	sw	s6,64(sp)
1000045c:	04812c23          	sw	s0,88(sp)
10000460:	04912a23          	sw	s1,84(sp)
10000464:	05212823          	sw	s2,80(sp)
10000468:	05312623          	sw	s3,76(sp)
1000046c:	05412423          	sw	s4,72(sp)
10000470:	03712e23          	sw	s7,60(sp)
10000474:	03812c23          	sw	s8,56(sp)
10000478:	03912a23          	sw	s9,52(sp)
1000047c:	03a12823          	sw	s10,48(sp)
10000480:	03b12623          	sw	s11,44(sp)
10000484:	5c8000ef          	jal	ra,10000a4c <uart_init>
10000488:	ed1ff0ef          	jal	ra,10000358 <put_crlf>
1000048c:	00000517          	auipc	a0,0x0
10000490:	bec50513          	addi	a0,a0,-1044 # 10000078 <fir_coeff+0x20>
10000494:	e91ff0ef          	jal	ra,10000324 <put_str>
10000498:	ec1ff0ef          	jal	ra,10000358 <put_crlf>
1000049c:	00000517          	auipc	a0,0x0
100004a0:	bf850513          	addi	a0,a0,-1032 # 10000094 <fir_coeff+0x3c>
100004a4:	e81ff0ef          	jal	ra,10000324 <put_str>
100004a8:	eb1ff0ef          	jal	ra,10000358 <put_crlf>
100004ac:	00000517          	auipc	a0,0x0
100004b0:	c1050513          	addi	a0,a0,-1008 # 100000bc <fir_coeff+0x64>
100004b4:	e71ff0ef          	jal	ra,10000324 <put_str>
100004b8:	00000a97          	auipc	s5,0x0
100004bc:	ce4a8a93          	addi	s5,s5,-796 # 1000019c <input_batch>
100004c0:	e99ff0ef          	jal	ra,10000358 <put_crlf>
100004c4:	00000b17          	auipc	s6,0x0
100004c8:	d50b0b13          	addi	s6,s6,-688 # 10000214 <ref_batch>
100004cc:	5cc000ef          	jal	ra,10000a98 <uart_write_flush>
100004d0:	00000917          	auipc	s2,0x0
100004d4:	cac90913          	addi	s2,s2,-852 # 1000017c <fir_state>
100004d8:	00090713          	mv	a4,s2
100004dc:	00000793          	li	a5,0
100004e0:	00090d93          	mv	s11,s2
100004e4:	01000693          	li	a3,16
100004e8:	00071023          	sh	zero,0(a4)
100004ec:	00178793          	addi	a5,a5,1
100004f0:	00270713          	addi	a4,a4,2
100004f4:	fed79ae3          	bne	a5,a3,100004e8 <main+0x9c>
100004f8:	000089b7          	lui	s3,0x8
100004fc:	00000b93          	li	s7,0
10000500:	fff98a13          	addi	s4,s3,-1 # 7fff <status-0x2ff8009>
10000504:	001b8493          	addi	s1,s7,1
10000508:	01e00613          	li	a2,30
1000050c:	00048593          	mv	a1,s1
10000510:	00000517          	auipc	a0,0x0
10000514:	bd450513          	addi	a0,a0,-1068 # 100000e4 <fir_coeff+0x8c>
10000518:	2e8000ef          	jal	ra,10000800 <printf>
1000051c:	00000413          	li	s0,0
10000520:	578000ef          	jal	ra,10000a98 <uart_write_flush>
10000524:	01810513          	addi	a0,sp,24
10000528:	e51ff0ef          	jal	ra,10000378 <read_int32_uart>
1000052c:	16050463          	beqz	a0,10000694 <main+0x248>
10000530:	01c10513          	addi	a0,sp,28
10000534:	e45ff0ef          	jal	ra,10000378 <read_int32_uart>
10000538:	14050e63          	beqz	a0,10000694 <main+0x248>
1000053c:	01812703          	lw	a4,24(sp)
10000540:	000a0793          	mv	a5,s4
10000544:	01375c63          	ble	s3,a4,1000055c <main+0x110>
10000548:	ffff86b7          	lui	a3,0xffff8
1000054c:	ffff87b7          	lui	a5,0xffff8
10000550:	00d74663          	blt	a4,a3,1000055c <main+0x110>
10000554:	01071793          	slli	a5,a4,0x10
10000558:	4107d793          	srai	a5,a5,0x10
1000055c:	008a8733          	add	a4,s5,s0
10000560:	00f71023          	sh	a5,0(a4)
10000564:	01c12703          	lw	a4,28(sp)
10000568:	000a0793          	mv	a5,s4
1000056c:	01375c63          	ble	s3,a4,10000584 <main+0x138>
10000570:	ffff86b7          	lui	a3,0xffff8
10000574:	ffff87b7          	lui	a5,0xffff8
10000578:	00d74663          	blt	a4,a3,10000584 <main+0x138>
1000057c:	01071793          	slli	a5,a4,0x10
10000580:	4107d793          	srai	a5,a5,0x10
10000584:	008b0733          	add	a4,s6,s0
10000588:	00f71023          	sh	a5,0(a4)
1000058c:	00240413          	addi	s0,s0,2
10000590:	07800793          	li	a5,120
10000594:	f8f418e3          	bne	s0,a5,10000524 <main+0xd8>
10000598:	00000b93          	li	s7,0
1000059c:	00000d17          	auipc	s10,0x0
100005a0:	abcd0d13          	addi	s10,s10,-1348 # 10000058 <fir_coeff>
100005a4:	02000c93          	li	s9,32
100005a8:	00000c17          	auipc	s8,0x0
100005ac:	b54c0c13          	addi	s8,s8,-1196 # 100000fc <fir_coeff+0xa4>
100005b0:	017a8733          	add	a4,s5,s7
100005b4:	00071803          	lh	a6,0(a4)
100005b8:	00000717          	auipc	a4,0x0
100005bc:	be270713          	addi	a4,a4,-1054 # 1000019a <fir_state+0x1e>
100005c0:	ffe75683          	lhu	a3,-2(a4)
100005c4:	ffe70713          	addi	a4,a4,-2
100005c8:	00d71123          	sh	a3,2(a4)
100005cc:	fee91ae3          	bne	s2,a4,100005c0 <main+0x174>
100005d0:	00000797          	auipc	a5,0x0
100005d4:	bb079623          	sh	a6,-1108(a5) # 1000017c <fir_state>
100005d8:	00000713          	li	a4,0
100005dc:	00000413          	li	s0,0
100005e0:	00000693          	li	a3,0
100005e4:	00ed0633          	add	a2,s10,a4
100005e8:	00ed85b3          	add	a1,s11,a4
100005ec:	00059583          	lh	a1,0(a1)
100005f0:	00061503          	lh	a0,0(a2)
100005f4:	00d12223          	sw	a3,4(sp)
100005f8:	00e12423          	sw	a4,8(sp)
100005fc:	01012623          	sw	a6,12(sp)
10000600:	c8dff0ef          	jal	ra,1000028c <__mulsi3>
10000604:	00412683          	lw	a3,4(sp)
10000608:	00812703          	lw	a4,8(sp)
1000060c:	41f55593          	srai	a1,a0,0x1f
10000610:	00a40533          	add	a0,s0,a0
10000614:	00853633          	sltu	a2,a0,s0
10000618:	00b686b3          	add	a3,a3,a1
1000061c:	00270713          	addi	a4,a4,2
10000620:	00050413          	mv	s0,a0
10000624:	00d606b3          	add	a3,a2,a3
10000628:	00c12803          	lw	a6,12(sp)
1000062c:	fb971ce3          	bne	a4,s9,100005e4 <main+0x198>
10000630:	017b0733          	add	a4,s6,s7
10000634:	00f55613          	srli	a2,a0,0xf
10000638:	00071683          	lh	a3,0(a4)
1000063c:	01061613          	slli	a2,a2,0x10
10000640:	41065613          	srai	a2,a2,0x10
10000644:	00080593          	mv	a1,a6
10000648:	000c0513          	mv	a0,s8
1000064c:	1b4000ef          	jal	ra,10000800 <printf>
10000650:	002b8b93          	addi	s7,s7,2
10000654:	07800793          	li	a5,120
10000658:	f4fb9ce3          	bne	s7,a5,100005b0 <main+0x164>
1000065c:	01e00613          	li	a2,30
10000660:	00048593          	mv	a1,s1
10000664:	00000517          	auipc	a0,0x0
10000668:	aa850513          	addi	a0,a0,-1368 # 1000010c <fir_coeff+0xb4>
1000066c:	194000ef          	jal	ra,10000800 <printf>
10000670:	428000ef          	jal	ra,10000a98 <uart_write_flush>
10000674:	01e00793          	li	a5,30
10000678:	00048b93          	mv	s7,s1
1000067c:	e8f494e3          	bne	s1,a5,10000504 <main+0xb8>
10000680:	00000517          	auipc	a0,0x0
10000684:	aa450513          	addi	a0,a0,-1372 # 10000124 <fir_coeff+0xcc>
10000688:	178000ef          	jal	ra,10000800 <printf>
1000068c:	40c000ef          	jal	ra,10000a98 <uart_write_flush>
10000690:	e41ff06f          	j	100004d0 <main+0x84>
10000694:	000b8593          	mv	a1,s7
10000698:	00000517          	auipc	a0,0x0
1000069c:	ab450513          	addi	a0,a0,-1356 # 1000014c <fir_coeff+0xf4>
100006a0:	160000ef          	jal	ra,10000800 <printf>
100006a4:	fcdff06f          	j	10000670 <main+0x224>

100006a8 <print_reversed_with_padding>:
100006a8:	fe010113          	addi	sp,sp,-32
100006ac:	00812c23          	sw	s0,24(sp)
100006b0:	01212823          	sw	s2,16(sp)
100006b4:	00112e23          	sw	ra,28(sp)
100006b8:	00912a23          	sw	s1,20(sp)
100006bc:	00050913          	mv	s2,a0
100006c0:	00058413          	mv	s0,a1
100006c4:	02c46463          	bltu	s0,a2,100006ec <print_reversed_with_padding+0x44>
100006c8:	fff00493          	li	s1,-1
100006cc:	fff40413          	addi	s0,s0,-1
100006d0:	04941063          	bne	s0,s1,10000710 <print_reversed_with_padding+0x68>
100006d4:	01c12083          	lw	ra,28(sp)
100006d8:	01812403          	lw	s0,24(sp)
100006dc:	01412483          	lw	s1,20(sp)
100006e0:	01012903          	lw	s2,16(sp)
100006e4:	02010113          	addi	sp,sp,32
100006e8:	00008067          	ret
100006ec:	00068513          	mv	a0,a3
100006f0:	00c12623          	sw	a2,12(sp)
100006f4:	00d12423          	sw	a3,8(sp)
100006f8:	3d8000ef          	jal	ra,10000ad0 <putchar>
100006fc:	00c12603          	lw	a2,12(sp)
10000700:	00812683          	lw	a3,8(sp)
10000704:	fff60613          	addi	a2,a2,-1
10000708:	0ff67613          	andi	a2,a2,255
1000070c:	fb9ff06f          	j	100006c4 <print_reversed_with_padding+0x1c>
10000710:	008907b3          	add	a5,s2,s0
10000714:	0007c503          	lbu	a0,0(a5)
10000718:	3b8000ef          	jal	ra,10000ad0 <putchar>
1000071c:	fb1ff06f          	j	100006cc <print_reversed_with_padding+0x24>

10000720 <format_dec32>:
10000720:	fe010113          	addi	sp,sp,-32
10000724:	01312623          	sw	s3,12(sp)
10000728:	00112e23          	sw	ra,28(sp)
1000072c:	00812c23          	sw	s0,24(sp)
10000730:	00912a23          	sw	s1,20(sp)
10000734:	01212823          	sw	s2,16(sp)
10000738:	00050993          	mv	s3,a0
1000073c:	06058263          	beqz	a1,100007a0 <format_dec32+0x80>
10000740:	00058493          	mv	s1,a1
10000744:	00000793          	li	a5,0
10000748:	00a00593          	li	a1,10
1000074c:	00048513          	mv	a0,s1
10000750:	00178413          	addi	s0,a5,1
10000754:	00f98933          	add	s2,s3,a5
10000758:	b81ff0ef          	jal	ra,100002d8 <__umodsi3>
1000075c:	03050513          	addi	a0,a0,48
10000760:	00a90023          	sb	a0,0(s2)
10000764:	00a00593          	li	a1,10
10000768:	00048513          	mv	a0,s1
1000076c:	b41ff0ef          	jal	ra,100002ac <__udivsi3>
10000770:	0ff47413          	andi	s0,s0,255
10000774:	00050493          	mv	s1,a0
10000778:	00040793          	mv	a5,s0
1000077c:	fc0516e3          	bnez	a0,10000748 <format_dec32+0x28>
10000780:	00040513          	mv	a0,s0
10000784:	01c12083          	lw	ra,28(sp)
10000788:	01812403          	lw	s0,24(sp)
1000078c:	01412483          	lw	s1,20(sp)
10000790:	01012903          	lw	s2,16(sp)
10000794:	00c12983          	lw	s3,12(sp)
10000798:	02010113          	addi	sp,sp,32
1000079c:	00008067          	ret
100007a0:	03000793          	li	a5,48
100007a4:	00f50023          	sb	a5,0(a0)
100007a8:	00100413          	li	s0,1
100007ac:	fd5ff06f          	j	10000780 <format_dec32+0x60>

100007b0 <format_hex32>:
100007b0:	04058063          	beqz	a1,100007f0 <format_hex32+0x40>
100007b4:	00000713          	li	a4,0
100007b8:	00000617          	auipc	a2,0x0
100007bc:	9ac60613          	addi	a2,a2,-1620 # 10000164 <hex_symbols>
100007c0:	00f5f693          	andi	a3,a1,15
100007c4:	00d606b3          	add	a3,a2,a3
100007c8:	0006c683          	lbu	a3,0(a3) # ffff8000 <pulp__FC+0xffff8001>
100007cc:	00170793          	addi	a5,a4,1
100007d0:	00e50733          	add	a4,a0,a4
100007d4:	0ff7f793          	andi	a5,a5,255
100007d8:	00d70023          	sb	a3,0(a4)
100007dc:	0045d593          	srli	a1,a1,0x4
100007e0:	00078713          	mv	a4,a5
100007e4:	fc059ee3          	bnez	a1,100007c0 <format_hex32+0x10>
100007e8:	00078513          	mv	a0,a5
100007ec:	00008067          	ret
100007f0:	03000793          	li	a5,48
100007f4:	00f50023          	sb	a5,0(a0)
100007f8:	00100793          	li	a5,1
100007fc:	fedff06f          	j	100007e8 <format_hex32+0x38>

10000800 <printf>:
10000800:	f8010113          	addi	sp,sp,-128
10000804:	06f12a23          	sw	a5,116(sp)
10000808:	06410793          	addi	a5,sp,100
1000080c:	04812c23          	sw	s0,88(sp)
10000810:	05412423          	sw	s4,72(sp)
10000814:	05512223          	sw	s5,68(sp)
10000818:	05612023          	sw	s6,64(sp)
1000081c:	03712e23          	sw	s7,60(sp)
10000820:	03812c23          	sw	s8,56(sp)
10000824:	04112e23          	sw	ra,92(sp)
10000828:	04912a23          	sw	s1,84(sp)
1000082c:	05212823          	sw	s2,80(sp)
10000830:	05312623          	sw	s3,76(sp)
10000834:	00050413          	mv	s0,a0
10000838:	06b12223          	sw	a1,100(sp)
1000083c:	06c12423          	sw	a2,104(sp)
10000840:	06d12623          	sw	a3,108(sp)
10000844:	06e12823          	sw	a4,112(sp)
10000848:	07012c23          	sw	a6,120(sp)
1000084c:	07112e23          	sw	a7,124(sp)
10000850:	02f12023          	sw	a5,32(sp)
10000854:	02500a13          	li	s4,37
10000858:	03000a93          	li	s5,48
1000085c:	00900b93          	li	s7,9
10000860:	07300b13          	li	s6,115
10000864:	fff00c13          	li	s8,-1
10000868:	00044503          	lbu	a0,0(s0)
1000086c:	02051a63          	bnez	a0,100008a0 <printf+0xa0>
10000870:	05c12083          	lw	ra,92(sp)
10000874:	05812403          	lw	s0,88(sp)
10000878:	05412483          	lw	s1,84(sp)
1000087c:	05012903          	lw	s2,80(sp)
10000880:	04c12983          	lw	s3,76(sp)
10000884:	04812a03          	lw	s4,72(sp)
10000888:	04412a83          	lw	s5,68(sp)
1000088c:	04012b03          	lw	s6,64(sp)
10000890:	03c12b83          	lw	s7,60(sp)
10000894:	03812c03          	lw	s8,56(sp)
10000898:	08010113          	addi	sp,sp,128
1000089c:	00008067          	ret
100008a0:	17451063          	bne	a0,s4,10000a00 <printf+0x200>
100008a4:	00144783          	lbu	a5,1(s0)
100008a8:	01479a63          	bne	a5,s4,100008bc <printf+0xbc>
100008ac:	02500513          	li	a0,37
100008b0:	220000ef          	jal	ra,10000ad0 <putchar>
100008b4:	00240413          	addi	s0,s0,2
100008b8:	fb1ff06f          	j	10000868 <printf+0x68>
100008bc:	07578a63          	beq	a5,s5,10000930 <printf+0x130>
100008c0:	00140413          	addi	s0,s0,1
100008c4:	02000993          	li	s3,32
100008c8:	00000913          	li	s2,0
100008cc:	00044483          	lbu	s1,0(s0)
100008d0:	fd048793          	addi	a5,s1,-48
100008d4:	0ff7f793          	andi	a5,a5,255
100008d8:	06fbf263          	bleu	a5,s7,1000093c <printf+0x13c>
100008dc:	13648663          	beq	s1,s6,10000a08 <printf+0x208>
100008e0:	069b6e63          	bltu	s6,s1,1000095c <printf+0x15c>
100008e4:	06300793          	li	a5,99
100008e8:	10f48463          	beq	s1,a5,100009f0 <printf+0x1f0>
100008ec:	06400793          	li	a5,100
100008f0:	0cf48a63          	beq	s1,a5,100009c4 <printf+0x1c4>
100008f4:	02500513          	li	a0,37
100008f8:	1d8000ef          	jal	ra,10000ad0 <putchar>
100008fc:	01599663          	bne	s3,s5,10000908 <printf+0x108>
10000900:	03000513          	li	a0,48
10000904:	1cc000ef          	jal	ra,10000ad0 <putchar>
10000908:	00090e63          	beqz	s2,10000924 <printf+0x124>
1000090c:	00090593          	mv	a1,s2
10000910:	01c10513          	addi	a0,sp,28
10000914:	e0dff0ef          	jal	ra,10000720 <format_dec32>
10000918:	00050493          	mv	s1,a0
1000091c:	fff48493          	addi	s1,s1,-1
10000920:	11849c63          	bne	s1,s8,10000a38 <printf+0x238>
10000924:	00044503          	lbu	a0,0(s0)
10000928:	06050863          	beqz	a0,10000998 <printf+0x198>
1000092c:	0d40006f          	j	10000a00 <printf+0x200>
10000930:	00240413          	addi	s0,s0,2
10000934:	03000993          	li	s3,48
10000938:	f91ff06f          	j	100008c8 <printf+0xc8>
1000093c:	00090513          	mv	a0,s2
10000940:	00a00593          	li	a1,10
10000944:	949ff0ef          	jal	ra,1000028c <__mulsi3>
10000948:	00a48533          	add	a0,s1,a0
1000094c:	fd050613          	addi	a2,a0,-48
10000950:	0ff67913          	andi	s2,a2,255
10000954:	00140413          	addi	s0,s0,1
10000958:	f75ff06f          	j	100008cc <printf+0xcc>
1000095c:	07500793          	li	a5,117
10000960:	04f48463          	beq	s1,a5,100009a8 <printf+0x1a8>
10000964:	07800793          	li	a5,120
10000968:	f8f496e3          	bne	s1,a5,100008f4 <printf+0xf4>
1000096c:	02012783          	lw	a5,32(sp)
10000970:	02410513          	addi	a0,sp,36
10000974:	0007a583          	lw	a1,0(a5)
10000978:	00478713          	addi	a4,a5,4
1000097c:	02e12023          	sw	a4,32(sp)
10000980:	e31ff0ef          	jal	ra,100007b0 <format_hex32>
10000984:	00050593          	mv	a1,a0
10000988:	00098693          	mv	a3,s3
1000098c:	00090613          	mv	a2,s2
10000990:	02410513          	addi	a0,sp,36
10000994:	d15ff0ef          	jal	ra,100006a8 <print_reversed_with_padding>
10000998:	00044783          	lbu	a5,0(s0)
1000099c:	ec0786e3          	beqz	a5,10000868 <printf+0x68>
100009a0:	00140413          	addi	s0,s0,1
100009a4:	ec5ff06f          	j	10000868 <printf+0x68>
100009a8:	02012783          	lw	a5,32(sp)
100009ac:	00478713          	addi	a4,a5,4
100009b0:	0007a583          	lw	a1,0(a5)
100009b4:	02e12023          	sw	a4,32(sp)
100009b8:	02410513          	addi	a0,sp,36
100009bc:	d65ff0ef          	jal	ra,10000720 <format_dec32>
100009c0:	fc5ff06f          	j	10000984 <printf+0x184>
100009c4:	02012783          	lw	a5,32(sp)
100009c8:	00478713          	addi	a4,a5,4
100009cc:	0007a583          	lw	a1,0(a5)
100009d0:	02e12023          	sw	a4,32(sp)
100009d4:	fe05d2e3          	bgez	a1,100009b8 <printf+0x1b8>
100009d8:	02d00513          	li	a0,45
100009dc:	00b12623          	sw	a1,12(sp)
100009e0:	0f0000ef          	jal	ra,10000ad0 <putchar>
100009e4:	00c12583          	lw	a1,12(sp)
100009e8:	40b005b3          	neg	a1,a1
100009ec:	fcdff06f          	j	100009b8 <printf+0x1b8>
100009f0:	02012783          	lw	a5,32(sp)
100009f4:	00478713          	addi	a4,a5,4
100009f8:	0007c503          	lbu	a0,0(a5)
100009fc:	02e12023          	sw	a4,32(sp)
10000a00:	0d0000ef          	jal	ra,10000ad0 <putchar>
10000a04:	f95ff06f          	j	10000998 <printf+0x198>
10000a08:	02012783          	lw	a5,32(sp)
10000a0c:	00478713          	addi	a4,a5,4
10000a10:	0007a483          	lw	s1,0(a5)
10000a14:	02e12023          	sw	a4,32(sp)
10000a18:	00049663          	bnez	s1,10000a24 <printf+0x224>
10000a1c:	fffff497          	auipc	s1,0xfffff
10000a20:	75848493          	addi	s1,s1,1880 # 10000174 <hex_symbols+0x10>
10000a24:	0004c503          	lbu	a0,0(s1)
10000a28:	f60508e3          	beqz	a0,10000998 <printf+0x198>
10000a2c:	00148493          	addi	s1,s1,1
10000a30:	0a0000ef          	jal	ra,10000ad0 <putchar>
10000a34:	ff1ff06f          	j	10000a24 <printf+0x224>
10000a38:	01c10713          	addi	a4,sp,28
10000a3c:	009707b3          	add	a5,a4,s1
10000a40:	0007c503          	lbu	a0,0(a5)
10000a44:	08c000ef          	jal	ra,10000ad0 <putchar>
10000a48:	ed5ff06f          	j	1000091c <printf+0x11c>

10000a4c <uart_init>:
10000a4c:	030027b7          	lui	a5,0x3002
10000a50:	00078223          	sb	zero,4(a5) # 3002004 <status+0x1ffc>
10000a54:	f8000713          	li	a4,-128
10000a58:	00e78623          	sb	a4,12(a5)
10000a5c:	03400713          	li	a4,52
10000a60:	00e78023          	sb	a4,0(a5)
10000a64:	00078223          	sb	zero,4(a5)
10000a68:	00300713          	li	a4,3
10000a6c:	00e78623          	sb	a4,12(a5)
10000a70:	fc700713          	li	a4,-57
10000a74:	00e78423          	sb	a4,8(a5)
10000a78:	00078823          	sb	zero,16(a5)
10000a7c:	00008067          	ret

10000a80 <uart_write>:
10000a80:	03002737          	lui	a4,0x3002
10000a84:	01474783          	lbu	a5,20(a4) # 3002014 <status+0x200c>
10000a88:	0207f793          	andi	a5,a5,32
10000a8c:	fe078ce3          	beqz	a5,10000a84 <uart_write+0x4>
10000a90:	00a70023          	sb	a0,0(a4)
10000a94:	00008067          	ret

10000a98 <uart_write_flush>:
10000a98:	03002737          	lui	a4,0x3002
10000a9c:	01474783          	lbu	a5,20(a4) # 3002014 <status+0x200c>
10000aa0:	0207f793          	andi	a5,a5,32
10000aa4:	fe078ce3          	beqz	a5,10000a9c <uart_write_flush+0x4>
10000aa8:	01474783          	lbu	a5,20(a4)
10000aac:	0407f793          	andi	a5,a5,64
10000ab0:	fe0786e3          	beqz	a5,10000a9c <uart_write_flush+0x4>
10000ab4:	00008067          	ret

10000ab8 <uart_read>:
10000ab8:	03002737          	lui	a4,0x3002
10000abc:	01474783          	lbu	a5,20(a4) # 3002014 <status+0x200c>
10000ac0:	0017f793          	andi	a5,a5,1
10000ac4:	fe078ce3          	beqz	a5,10000abc <uart_read+0x4>
10000ac8:	00074503          	lbu	a0,0(a4)
10000acc:	00008067          	ret

10000ad0 <putchar>:
10000ad0:	fb1ff06f          	j	10000a80 <uart_write>

Disassembly of section .Pulp_Chip.Info:

00000000 <.Pulp_Chip.Info>:
   0:	000a                	0xa
   2:	0000                	unimp
   4:	0038                	addi	a4,sp,8
   6:	0000                	unimp
   8:	0001                	nop
   a:	0000                	unimp
   c:	7550                	flw	fa2,44(a0)
   e:	706c                	flw	fa1,100(s0)
  10:	495f 666e 006f      	0x6f666e495f
  16:	70696863          	bltu	s2,t1,726 <status-0x2fff8e2>
  1a:	6e3d                	lui	t3,0xf
  1c:	20656e6f          	jal	t3,56222 <status-0x2fa9de6>
  20:	3d757063          	bleu	s7,a0,3e0 <status-0x2fffc28>
  24:	6f6e                	flw	ft10,216(sp)
  26:	656e                	flw	fa0,216(sp)
  28:	7020                	flw	fs0,96(s0)
  2a:	3d65                	jal	fffffee2 <pulp__FC+0xfffffee3>
  2c:	312d                	jal	fffffc56 <pulp__FC+0xfffffc57>
  2e:	6620                	flw	fs0,72(a2)
  30:	312d3d63          	p.bneimm	s10,-14,34a <status-0x2fffcbe>
  34:	6c20                	flw	fs0,88(s0)
  36:	3d32                	fld	fs10,296(sp)
  38:	312d                	jal	fffffc62 <pulp__FC+0xfffffc63>
  3a:	6c20                	flw	fs0,88(s0)
  3c:	6331                	lui	t1,0xc
  3e:	3d6c                	fld	fa1,248(a0)
  40:	312d                	jal	fffffc6a <pulp__FC+0xfffffc6b>
  42:	6c20                	flw	fs0,88(s0)
  44:	6631                	lui	a2,0xc
  46:	312d3d63          	p.bneimm	s10,-14,360 <status-0x2fffca8>
  4a:	0000                	unimp
	...
