
bin/rw_bus16.elf:     file format elf32-littleriscv

Contents of section .text._start:
 10000000 97110000 93810180 17110000 130181ff  ................
 10000010 93000000 13020000 93020000 13030000  ................
 10000020 93030000 13040000 93040000 13050000  ................
 10000030 93050000 13060000 93060000 13070000  ................
 10000040 93070000 ef008023 970200f3 938202fc  .......#........
 10000050 23a0a200 73005010                    #...s.P.        
Contents of section .misc:
 10000058 4f4b0000 4641494c 00000000 0d0a3136  OK..FAIL......16
 10000068 2d626974 20627573 20726567 69737465  -bit bus registe
 10000078 72205257 20746573 740d0a00 4f666673  r RW test...Offs
 10000088 65742030 78257820 2f205553 45525f52  et 0x%x / USER_R
 10000098 45473136 0d0a0000 53544550 00000000  EG16....STEP....
 100000a8 6265666f 72652077 72697465 0d0a0000  before write....
 100000b8 77726974 65203078 00000000 25780000  write 0x....%x..
 100000c8 61667465 72207772 6974650d 0a000000  after write.....
 100000d8 6265666f 72652072 6561640d 0a000000  before read.....
 100000e8 72656164 20203078 00000000 4641494c  read  0x....FAIL
 100000f8 0d0a0000 4f4b0d0a 00000000 52414e44  ....OK......RAND
 10000108 00000000 0d0a4944 58207c20 5752207c  ......IDX | WR |
 10000118 20524420 7c204f4b 2f464149 4c0d0a00   RD | OK/FAIL...
 10000128 25303275 207c2030 78253034 78207c20  %02u | 0x%04x | 
 10000138 30782530 3478207c 2025730d 0a000000  0x%04x | %s.....
 10000148 50415353 3a207365 6d756120 72656164  PASS: semua read
 10000158 2f777269 74652072 65676973 74657220  /write register 
 10000168 31362d62 69742073 65737561 692e0d0a  16-bit sesuai...
 10000178 00000000 4641494c 3a206d69 736d6174  ....FAIL: mismat
 10000188 63682074 65726465 74656b73 692e0d0a  ch terdeteksi...
 10000198 00000000 20307825 783a2000 30313233  .... 0x%x: .0123
 100001a8 34353637 38394142 43444546 286e756c  456789ABCDEF(nul
 100001b8 6c290000                             l)..            
Contents of section .text:
 100001bc 2a860145 93f61500 91c23295 85810606  *..E......2.....
 100001cc f5f98280 00000000 634e0502 63c30504  ........cN..c...
 100001dc 2e86aa85 7d5515c2 85466378 b6006356  ....}U...Fcx..cV
 100001ec c0000606 8606e36c b6fe0145 63e4c500  .......l...Ec...
 100001fc 918d558d 85820582 f5fa8280 8682c93f  ..U............?
 1000020c 2e858282 3305a040 63d70500 b305b040  ....3..@c......@
 1000021c c1b7b305 b0408682 653f3305 a0408282  .....@..e?3..@..
 1000022c 868263c7 05006349 05005d37 2e858282  ..c...cI..]7....
 1000023c b305b040 e35b05fe 3305a040 513f3305  ...@.[..3..@Q?3.
 1000024c b0408282 00000000 130101fe 232e1100  .@..........#...
 1000025c 2326b100 ef00c05d 8325c100 8320c101  #&.....].%... ..
 1000026c 17050000 130505f3 13010102 6f00405c  ............o.@\
 1000027c 130101f5 2326110a 2324810a 2322910a  ....#&..#$..#"..
 1000028c 2320210b 232e3109 232c4109 23286109  # !.#.1.#,A.#(a.
 1000029c 23267109 23248109 23229109 2320a109  #&q.#$..#"..# ..
 100002ac 232eb107 232a5109 ef001001 17050000  #...#*Q.........
 100002bc 1305c5da ef00c057 93054001 17050000  .......W..@.....
 100002cc 1305c5db ef00c056 ef00d003 b7073412  .......V......4.
 100002dc 232af100 b7b7ffff 9387d7bc 232cf100  #*..........#,..
 100002ec b707a55a 9387070f 130a0103 93090105  ...Z............
 100002fc 232ef100 130c4101 138b0900 930b0a00  #.....A.........
 1000030c 13090000 13040000 97040000 9384c4d8  ................
 1000031c 170d0000 130d8dda 970d0000 938d8dd7  ................
 1000032c b71c0020 93050400 13850400 835a0c00  ... .........Z..
 1000033c eff09ff1 17050000 130585d6 ef00404f  ..............@O
 1000034c ef00407c 93050400 13850400 eff0dfef  ..@|............
 1000035c 17050000 1305c5d5 ef00804d 93850a00  ...........M....
 1000036c 13050d00 ef00c04c 13850d00 ef00404c  .......L......@L
 1000037c 93050400 13850400 23aa5c01 eff0dfec  ........#.\.....
 1000038c 17050000 1305c5d3 ef00804a ef008077  ...........J...w
 1000039c 9307007d 13870700 9387f7ff 631a072c  ...}........c..,
 100003ac 93050400 13850400 eff01fea 17050000  ................
 100003bc 130505d2 ef00c047 ef00c074 83a74c01  .......G...t..L.
 100003cc 93050400 93960701 93d60601 13850400  ................
 100003dc 2326d100 2324f100 eff01fe7 17050000  #&..#$..........
 100003ec 130505d0 ef00c044 83278100 37070100  .......D.'..7...
 100003fc 1307f7ff b3f5e700 13050d00 ef004043  ..............@C
 1000040c 13850d00 ef00c042 8327c100 6386fa26  .......B.'..c..&
 1000041c 93050400 13850400 eff01fe3 17050000  ................
 1000042c 1305c5cc ef00c040 93060102 b3878600  .......@........
 1000043c 13091900 23800700 0327c100 23905b01  ....#....'..#.[.
 1000044c 2310eb00 ef00006c 13041400 93076000  #......l......`.
 1000045c 130c2c00 938b2b00 130b2b00 e314f4ec  ..,...+...+.....
 1000046c 37b40000 138b0900 930b0a00 93040000  7...............
 1000047c 130414ce 970a0000 938a4ac8 170d0000  ..........J.....
 1000048c 130dcdc3 970d0000 938dcdc0 b71c0020  ............... 
 1000049c 13573400 93572400 b3c7e700 b3c78700  .W4..W$.........
 100004ac 13575400 b3c7e700 93f71700 9397f700  .WT.............
 100004bc 93850400 13850a00 13541400 33e48700  .........T..3...
 100004cc eff09fd8 17050000 130585bd ef004036  ..............@6
 100004dc ef004063 93850400 13850a00 eff0dfd6  ..@c............
 100004ec 17050000 1305c5bc ef008034 93050400  ...........4....
 100004fc 13050d00 ef00c033 13850d00 ef004033  .......3......@3
 1000050c 93850400 13850a00 23aa8c00 eff0dfd3  ........#.......
 1000051c 17050000 1305c5ba ef008031 ef00805e  ...........1...^
 1000052c 9307007d 13870700 9387f7ff 631c0716  ...}........c...
 1000053c 93850400 13850a00 eff01fd1 17050000  ................
 1000054c 130505b9 ef00c02e ef00c05b 83a74c01  ...........[..L.
 1000055c 93850400 13850a00 139c0701 2324f100  ............#$..
 1000056c eff09fce 17050000 130585b7 ef00402c  ..............@,
 1000057c 83278100 b7060100 9386f6ff 13050d00  .'..............
 1000058c b3f5d700 ef00c02a 135c0c01 13850d00  .......*.\......
 1000059c ef00002a 630c8c10 93850400 13850a00  ...*c...........
 100005ac eff09fca 17050000 130545b4 ef004028  ..........E...@(
 100005bc 13070102 b3079700 13091900 23830700  ............#...
 100005cc 23968b00 23168b01 ef00c053 93841400  #...#......S....
 100005dc 93078000 938b2b00 130b2b00 e39af4ea  ......+...+.....
 100005ec 17050000 130505b2 ef008024 13040000  ...........$....
 100005fc 170b0000 130bcba5 970b0000 938b8ba5  ................
 1000060c 970a0000 938acab1 9304e000 13070102  ................
 1000061c b3078700 83c70700 03560a00 83d60900  .........V......
 1000062c 13070b00 63940700 13870b00 93050400  ....c...........
 1000063c 13850a00 13041400 ef00801f 130a2a00  ..............*.
 1000064c 93892900 e31494fc 17050000 130545af  ..)...........E.
 1000065c 63060900 17050000 1305c5b1 ef00401d  c.............@.
 1000066c ef00404a 1305803e ef004041 6ff09fff  ..@J...>..@Ao...
 1000067c 13000000 6ff01fd2 93050400 13850400  ....o...........
 1000068c eff09fbc 17050000 1305c5a6 ef00401a  ..............@.
 1000069c 93060102 13071000 b3878600 2380e700  ............#...
 100006ac 6ff09fd9 13000000 6ff0dfe7 93850400  o.......o.......
 100006bc 13850a00 eff05fb9 17050000 130585a3  ......_.........
 100006cc ef000017 93060102 13071000 b3879600  ................
 100006dc 2383e700 6ff0dfee 130101fe 232c8100  #...o.......#,..
 100006ec 23282101 232e1100 232a9100 13090500  #(!.#...#*......
 100006fc 13840500 6364c402 9304f0ff 1304f4ff  ....cd..........
 1000070c 63109404 8320c101 03248101 83244101  c.... ...$...$A.
 1000071c 03290101 13010102 67800000 13850600  .)......g.......
 1000072c 2326c100 2324d100 ef00c03f 0326c100  #&..#$.....?.&..
 1000073c 83268100 1306f6ff 1376f60f 6ff09ffb  .&.......v..o...
 1000074c b3078900 03c50700 ef00c03d 6ff01ffb  ...........=o...
 1000075c 130101fe 23263101 232e1100 232c8100  ....#&1.#...#,..
 1000076c 232a9100 23282101 93090500 63820506  #*..#(!.....c...
 1000077c 93840500 93070000 9305a000 13850400  ................
 1000078c 13841700 3389f900 eff05fa7 13050503  ....3....._.....
 1000079c 2300a900 9305a000 13850400 eff05fa3  #............._.
 100007ac 1374f40f 93040500 93070400 e31605fc  .t..............
 100007bc 13050400 8320c101 03248101 83244101  ..... ...$...$A.
 100007cc 03290101 8329c100 13010102 67800000  .)...)......g...
 100007dc 93070003 2300f500 13041000 6ff05ffd  ....#.......o._.
 100007ec 63800504 13070000 17060000 1306069b  c...............
 100007fc 93f6f500 b306d600 83c60600 93071700  ................
 1000080c 3307e500 93f7f70f 2300d700 93d54500  3.......#.....E.
 1000081c 13870700 e39e05fc 13850700 67800000  ............g...
 1000082c 93070003 2300f500 93071000 6ff0dffe  ....#.......o...
 1000083c 130101f8 232af106 93074106 232c8104  ....#*....A.#,..
 1000084c 23244105 23225105 23206105 232e7103  #$A.#"Q.# a.#.q.
 1000085c 232c8103 232e1104 232a9104 23282105  #,..#...#*..#(!.
 1000086c 23263105 13040500 2322b106 2324c106  #&1.....#"..#$..
 1000087c 2326d106 2328e106 232c0107 232e1107  #&..#(..#,..#...
 1000088c 2320f102 130a5002 930a0003 930b9000  # ....P.........
 1000089c 130b3007 130cf0ff 03450400 631a0502  ..0......E..c...
 100008ac 8320c105 03248105 83244105 03290105  . ...$...$A..)..
 100008bc 8329c104 032a8104 832a4104 032b0104  .)...*...*A..+..
 100008cc 832bc103 032c8103 13010108 67800000  .+...,......g...
 100008dc 63104517 83471400 639a4701 13055002  c.E..G..c.G...P.
 100008ec ef004024 13042400 6ff01ffb 638a5707  ..@$..$.o...c.W.
 100008fc 13041400 93090002 13090000 83440400  .............D..
 1000090c 938704fd 93f7f70f 63f2fb06 63866413  ........c...c.d.
 1000091c 636e9b06 93073006 6384f410 93074006  cn....0.c.....@.
 1000092c 638af40c 13055002 ef00c01f 63965901  c.....P.....c.Y.
 1000093c 13050003 ef00001f 630e0900 93050900  ........c.......
 1000094c 1305c101 eff0dfe0 93040500 9384f4ff  ................
 1000095c 639c8411 03450400 63080506 6f00400d  c....E..c...o.@.
 1000096c 13042400 93090003 6ff01ff9 13050900  ..$.....o.......
 1000097c 9305a000 eff0df83 3385a400 130605fd  ........3.......
 1000098c 1379f60f 13041400 6ff05ff7 93075007  .y......o._...P.
 1000099c 6384f404 93078007 e396f4f8 83270102  c............'..
 100009ac 13054102 83a50700 13874700 2320e102  ..A.......G.# ..
 100009bc eff01fe3 93050500 93860900 13060900  ................
 100009cc 13054102 eff05fd1 83470400 e38607ec  ..A..._..G......
 100009dc 13041400 6ff05fec 83270102 13874700  ....o._..'....G.
 100009ec 83a50700 2320e102 13054102 eff05fd6  ....# ....A..._.
 100009fc 6ff05ffc 83270102 13874700 83a50700  o._..'....G.....
 10000a0c 2320e102 e3d205fe 1305d002 2326b100  # ..........#&..
 10000a1c ef004011 8325c100 b305b040 6ff0dffc  ..@..%.....@o...
 10000a2c 83270102 13874700 03c50700 2320e102  .'....G.....# ..
 10000a3c ef00400f 6ff05ff9 83270102 13874700  ..@.o._..'....G.
 10000a4c 83a40700 2320e102 63960400 97f4ffff  ....# ..c.......
 10000a5c 9384c475 03c50400 e30805f6 93841400  ...u............
 10000a6c ef00400c 6ff01fff 1307c101 b3079700  ..@.o...........
 10000a7c 03c50700 ef00000b 6ff05fed b7a70003  ........o._.....
 10000a8c 23a00700 23a8a700 93060008 73a04630  #...#.......s.F0
 10000a9c 73600430 37270000 130757fd 23a0e700  s`.07'....W.#...
 10000aac 73005010 03a70700 1377e7ff 23a0e700  s.P......w..#...
 10000abc 73b04630 67800000 b7270003 23820700  s.F0g....'..#...
 10000acc 130700f8 2386e700 13074003 2380e700  ....#.....@.#...
 10000adc 23820700 13073000 2386e700 130770fc  #.....0.#.....p.
 10000aec 2384e700 23880700 67800000 37270003  #...#...g...7'..
 10000afc 83474701 93f70702 e38c07fe 2300a700  .GG.........#...
 10000b0c 67800000 37270003 83474701 93f70702  g...7'...GG.....
 10000b1c e38c07fe 83474701 93f70704 e38607fe  .....GG.........
 10000b2c 67800000 6ff09ffc                    g...o...        
Contents of section .Pulp_Chip.Info:
 0000 0a000000 38000000 01000000 50756c70  ....8.......Pulp
 0010 5f496e66 6f006368 69703d6e 6f6e6520  _Info.chip=none 
 0020 6370753d 6e6f6e65 2070653d 2d312066  cpu=none pe=-1 f
 0030 633d2d31 206c323d 2d31206c 31636c3d  c=-1 l2=-1 l1cl=
 0040 2d31206c 3166633d 2d310000 0000      -1 l1fc=-1....  
Contents of section .debug_line:
 0000 ac000000 02006600 00000101 fb0e0d00  ......f.........
 0010 01010101 00000001 0000012f 686f6d65  .........../home
 0020 2f646576 616e2f53 6f432f70 756c702d  /devan/SoC/pulp-
 0030 72697363 762d676e 752d746f 6f6c6368  riscv-gnu-toolch
 0040 61696e2f 72697363 762d6763 632f6c69  ain/riscv-gcc/li
 0050 62676363 2f636f6e 6669672f 72697363  bgcc/config/risc
 0060 7600006d 756c6469 332e5300 01000000  v..muldi3.S.....
 0070 000502bc 01001003 23010301 09020001  ........#.......
 0080 03020902 00010301 09040001 03010902  ................
 0090 00010302 09020001 03010902 00010301  ................
 00a0 09020001 03010902 00010902 00000101  ................
 00b0 82010000 02006300 00000101 fb0e0d00  ......c.........
 00c0 01010101 00000001 0000012f 686f6d65  .........../home
 00d0 2f646576 616e2f53 6f432f70 756c702d  /devan/SoC/pulp-
 00e0 72697363 762d676e 752d746f 6f6c6368  riscv-gnu-toolch
 00f0 61696e2f 72697363 762d6763 632f6c69  ain/riscv-gcc/li
 0100 62676363 2f636f6e 6669672f 72697363  bgcc/config/risc
 0110 76000064 69762e53 00010000 00000502  v..div.S........
 0120 d4010010 03c50001 03010904 00010305  ................
 0130 09040001 03010902 00010301 09020001  ................
 0140 03010902 00010301 09020001 03010902  ................
 0150 00010302 09040001 03010904 00010301  ................
 0160 09020001 03010902 00010302 09040001  ................
 0170 03020902 00010301 09040001 03010902  ................
 0180 00010302 09020001 03010902 00010301  ................
 0190 09020001 03020902 00010305 09020001  ................
 01a0 03010902 00010301 09020001 03010902  ................
 01b0 00010304 09020001 03010904 00010301  ................
 01c0 09040001 03010904 00010302 09020001  ................
 01d0 03020904 00010301 09020001 03010902  ................
 01e0 00010301 09040001 03040902 00010301  ................
 01f0 09020001 03010904 00010302 09040001  ................
 0200 03010902 00010301 09020001 03020902  ................
 0210 00010301 09040001 03020904 00010301  ................
 0220 09040001 03010902 00010301 09040001  ................
 0230 09020000 0101                        ......          
Contents of section .debug_info:
 0000 d0000000 02000000 00000401 00000000  ................
 0010 bc010010 d0010010 2f686f6d 652f6465  ......../home/de
 0020 76616e2f 536f432f 70756c70 2d726973  van/SoC/pulp-ris
 0030 63762d67 6e752d74 6f6f6c63 6861696e  cv-gnu-toolchain
 0040 2f726973 63762d67 63632f6c 69626763  /riscv-gcc/libgc
 0050 632f636f 6e666967 2f726973 63762f6d  c/config/riscv/m
 0060 756c6469 332e5300 2f686f6d 652f6465  uldi3.S./home/de
 0070 76616e2f 536f432f 70756c70 2d726973  van/SoC/pulp-ris
 0080 63762d67 6e752d74 6f6f6c63 6861696e  cv-gnu-toolchain
 0090 2f627569 6c642d67 63632d6e 65776c69  /build-gcc-newli
 00a0 622d7374 61676532 2f726973 63763332  b-stage2/riscv32
 00b0 2d756e6b 6e6f776e 2d656c66 2f6c6962  -unknown-elf/lib
 00c0 67636300 474e5520 41532032 2e32382e  gcc.GNU AS 2.28.
 00d0 30000180 cd000000 02001400 00000401  0...............
 00e0 b0000000 d4010010 50020010 2f686f6d  ........P.../hom
 00f0 652f6465 76616e2f 536f432f 70756c70  e/devan/SoC/pulp
 0100 2d726973 63762d67 6e752d74 6f6f6c63  -riscv-gnu-toolc
 0110 6861696e 2f726973 63762d67 63632f6c  hain/riscv-gcc/l
 0120 69626763 632f636f 6e666967 2f726973  ibgcc/config/ris
 0130 63762f64 69762e53 002f686f 6d652f64  cv/div.S./home/d
 0140 6576616e 2f536f43 2f70756c 702d7269  evan/SoC/pulp-ri
 0150 7363762d 676e752d 746f6f6c 63686169  scv-gnu-toolchai
 0160 6e2f6275 696c642d 6763632d 6e65776c  n/build-gcc-newl
 0170 69622d73 74616765 322f7269 73637633  ib-stage2/riscv3
 0180 322d756e 6b6e6f77 6e2d656c 662f6c69  2-unknown-elf/li
 0190 62676363 00474e55 20415320 322e3238  bgcc.GNU AS 2.28
 01a0 2e300001 80                          .0...           
Contents of section .debug_abbrev:
 0000 01110010 06110112 0103081b 08250813  .............%..
 0010 05000000 01110010 06110112 0103081b  ................
 0020 08250813 05000000                    .%......        
Contents of section .debug_aranges:
 0000 1c000000 02000000 00000400 00000000  ................
 0010 bc010010 14000000 00000000 00000000  ................
 0020 1c000000 0200d400 00000400 00000000  ................
 0030 d4010010 7c000000 00000000 00000000  ....|...........

Disassembly of section .text._start:

10000000 <_start>:
10000000:	00001197          	auipc	gp,0x1
10000004:	80018193          	addi	gp,gp,-2048 # 10000800 <__global_pointer>
10000008:	00001117          	auipc	sp,0x1
1000000c:	ff810113          	addi	sp,sp,-8 # 10001000 <__stack_pointer>
10000010:	00000093          	li	ra,0
10000014:	00000213          	li	tp,0
10000018:	00000293          	li	t0,0
1000001c:	00000313          	li	t1,0
10000020:	00000393          	li	t2,0
10000024:	00000413          	li	s0,0
10000028:	00000493          	li	s1,0
1000002c:	00000513          	li	a0,0
10000030:	00000593          	li	a1,0
10000034:	00000613          	li	a2,0
10000038:	00000693          	li	a3,0
1000003c:	00000713          	li	a4,0
10000040:	00000793          	li	a5,0
10000044:	238000ef          	jal	ra,1000027c <main>

10000048 <_eoc>:
10000048:	f3000297          	auipc	t0,0xf3000
1000004c:	fc028293          	addi	t0,t0,-64 # 3000008 <status>
10000050:	00a2a023          	sw	a0,0(t0)
10000054:	10500073          	wfi

Disassembly of section .misc:

10000058 <hex_symbols-0x14c>:
10000058:	00004b4f          	fnmadd.s	fs6,ft0,ft0,ft0,rmm
1000005c:	4146                	lw	sp,80(sp)
1000005e:	4c49                	li	s8,18
10000060:	0000                	unimp
10000062:	0000                	unimp
10000064:	0a0d                	addi	s4,s4,3
10000066:	3631                	jal	ffffb72 <status+0xcfffb6a>
10000068:	622d                	lui	tp,0xb
1000006a:	7469                	lui	s0,0xffffa
1000006c:	6220                	flw	fs0,64(a2)
1000006e:	7375                	lui	t1,0xffffd
10000070:	7220                	flw	fs0,96(a2)
10000072:	6765                	lui	a4,0x19
10000074:	7369                	lui	t1,0xffffa
10000076:	6574                	flw	fa3,76(a0)
10000078:	2072                	fld	ft0,280(sp)
1000007a:	5752                	lw	a4,52(sp)
1000007c:	7420                	flw	fs0,104(s0)
1000007e:	7365                	lui	t1,0xffff9
10000080:	0d74                	addi	a3,sp,668
10000082:	000a                	0xa
10000084:	7366664f          	fnmadd.d	fa2,fa2,fs6,fa4,unknown
10000088:	7465                	lui	s0,0xffff9
1000008a:	3020                	fld	fs0,96(s0)
1000008c:	2578                	fld	fa4,200(a0)
1000008e:	2078                	fld	fa4,192(s0)
10000090:	5355202f          	0x5355202f
10000094:	5245                	li	tp,-15
10000096:	525f 4745 3631      	0x36314745525f
1000009c:	0a0d                	addi	s4,s4,3
1000009e:	0000                	unimp
100000a0:	50455453          	0x50455453
100000a4:	0000                	unimp
100000a6:	0000                	unimp
100000a8:	6562                	flw	fa0,24(sp)
100000aa:	6f66                	flw	ft10,88(sp)
100000ac:	6572                	flw	fa0,28(sp)
100000ae:	7720                	flw	fs0,104(a4)
100000b0:	6972                	flw	fs2,28(sp)
100000b2:	6574                	flw	fa3,76(a0)
100000b4:	0a0d                	addi	s4,s4,3
100000b6:	0000                	unimp
100000b8:	74697277          	0x74697277
100000bc:	2065                	jal	10000164 <_eoc+0x11c>
100000be:	7830                	flw	fa2,112(s0)
100000c0:	0000                	unimp
100000c2:	0000                	unimp
100000c4:	7825                	lui	a6,0xfffe9
100000c6:	0000                	unimp
100000c8:	6661                	lui	a2,0x18
100000ca:	6574                	flw	fa3,76(a0)
100000cc:	2072                	fld	ft0,280(sp)
100000ce:	74697277          	0x74697277
100000d2:	0d65                	addi	s10,s10,25
100000d4:	000a                	0xa
100000d6:	0000                	unimp
100000d8:	6562                	flw	fa0,24(sp)
100000da:	6f66                	flw	ft10,88(sp)
100000dc:	6572                	flw	fa0,28(sp)
100000de:	7220                	flw	fs0,96(a2)
100000e0:	6165                	addi	sp,sp,112
100000e2:	0d64                	addi	s1,sp,668
100000e4:	000a                	0xa
100000e6:	0000                	unimp
100000e8:	6572                	flw	fa0,28(sp)
100000ea:	6461                	lui	s0,0x18
100000ec:	2020                	fld	fs0,64(s0)
100000ee:	7830                	flw	fa2,112(s0)
100000f0:	0000                	unimp
100000f2:	0000                	unimp
100000f4:	4146                	lw	sp,80(sp)
100000f6:	4c49                	li	s8,18
100000f8:	0a0d                	addi	s4,s4,3
100000fa:	0000                	unimp
100000fc:	0a0d4b4f          	fnmadd.d	fs6,fs10,ft0,ft1,rmm
10000100:	0000                	unimp
10000102:	0000                	unimp
10000104:	4152                	lw	sp,20(sp)
10000106:	444e                	lw	s0,208(sp)
10000108:	0000                	unimp
1000010a:	0000                	unimp
1000010c:	0a0d                	addi	s4,s4,3
1000010e:	4449                	li	s0,18
10000110:	2058                	fld	fa4,128(s0)
10000112:	207c                	fld	fa5,192(s0)
10000114:	7c205257          	0x7c205257
10000118:	5220                	lw	s0,96(a2)
1000011a:	2044                	fld	fs1,128(s0)
1000011c:	207c                	fld	fa5,192(s0)
1000011e:	462f4b4f          	0x462f4b4f
10000122:	4941                	li	s2,16
10000124:	0d4c                	addi	a1,sp,660
10000126:	000a                	0xa
10000128:	3025                	jal	ffff950 <status+0xcfff948>
1000012a:	7532                	flw	fa0,44(sp)
1000012c:	7c20                	flw	fs0,120(s0)
1000012e:	3020                	fld	fs0,96(s0)
10000130:	2578                	fld	fa4,200(a0)
10000132:	3430                	fld	fa2,104(s0)
10000134:	2078                	fld	fa4,192(s0)
10000136:	207c                	fld	fa5,192(s0)
10000138:	7830                	flw	fa2,112(s0)
1000013a:	3025                	jal	ffff962 <status+0xcfff95a>
1000013c:	7834                	flw	fa3,112(s0)
1000013e:	7c20                	flw	fs0,120(s0)
10000140:	2520                	fld	fs0,72(a0)
10000142:	000a0d73          	0xa0d73
10000146:	0000                	unimp
10000148:	4150                	lw	a2,4(a0)
1000014a:	203a5353          	0x203a5353
1000014e:	756d6573          	csrrsi	a0,0x756,26
10000152:	2061                	jal	100001da <__divsi3+0x6>
10000154:	6572                	flw	fa0,28(sp)
10000156:	6461                	lui	s0,0x18
10000158:	6972772f          	0x6972772f
1000015c:	6574                	flw	fa3,76(a0)
1000015e:	7220                	flw	fs0,96(a2)
10000160:	6765                	lui	a4,0x19
10000162:	7369                	lui	t1,0xffffa
10000164:	6574                	flw	fa3,76(a0)
10000166:	2072                	fld	ft0,280(sp)
10000168:	3631                	jal	ffffc74 <status+0xcfffc6c>
1000016a:	622d                	lui	tp,0xb
1000016c:	7469                	lui	s0,0xffffa
1000016e:	7320                	flw	fs0,96(a4)
10000170:	7365                	lui	t1,0xffff9
10000172:	6175                	addi	sp,sp,368
10000174:	2e69                	jal	1000050e <main+0x292>
10000176:	0a0d                	addi	s4,s4,3
10000178:	0000                	unimp
1000017a:	0000                	unimp
1000017c:	4146                	lw	sp,80(sp)
1000017e:	4c49                	li	s8,18
10000180:	203a                	fld	ft0,392(sp)
10000182:	696d                	lui	s2,0x1b
10000184:	74616d73          	csrrsi	s10,0x746,2
10000188:	74206863          	bltu	zero,sp,100008d8 <printf+0x9c>
1000018c:	7265                	lui	tp,0xffff9
1000018e:	6564                	flw	fs1,76(a0)
10000190:	6574                	flw	fa3,76(a0)
10000192:	2e69736b          	0x2e69736b
10000196:	0a0d                	addi	s4,s4,3
10000198:	0000                	unimp
1000019a:	0000                	unimp
1000019c:	3020                	fld	fs0,96(s0)
1000019e:	2578                	fld	fa4,200(a0)
100001a0:	3a78                	fld	fa4,240(a2)
100001a2:	0020                	addi	s0,sp,8

100001a4 <hex_symbols>:
100001a4:	3130                	fld	fa2,96(a0)
100001a6:	3332                	fld	ft6,296(sp)
100001a8:	3534                	fld	fa3,104(a0)
100001aa:	3736                	fld	fa4,360(sp)
100001ac:	3938                	fld	fa4,112(a0)
100001ae:	4241                	li	tp,16
100001b0:	46454443          	0x46454443
100001b4:	6e28                	flw	fa0,88(a2)
100001b6:	6c75                	lui	s8,0x1d
100001b8:	296c                	fld	fa1,208(a0)
	...

Disassembly of section .text:

100001bc <__mulsi3>:
100001bc:	862a                	mv	a2,a0
100001be:	4501                	li	a0,0
100001c0:	0015f693          	andi	a3,a1,1
100001c4:	c291                	beqz	a3,100001c8 <__mulsi3+0xc>
100001c6:	9532                	add	a0,a0,a2
100001c8:	8185                	srli	a1,a1,0x1
100001ca:	0606                	slli	a2,a2,0x1
100001cc:	f9f5                	bnez	a1,100001c0 <__mulsi3+0x4>
100001ce:	8082                	ret
100001d0:	0000                	unimp
	...

100001d4 <__divsi3>:
100001d4:	02054e63          	bltz	a0,10000210 <__umodsi3+0x8>
100001d8:	0405c363          	bltz	a1,1000021e <__umodsi3+0x16>

100001dc <__udivsi3>:
100001dc:	862e                	mv	a2,a1
100001de:	85aa                	mv	a1,a0
100001e0:	557d                	li	a0,-1
100001e2:	c215                	beqz	a2,10000206 <__udivsi3+0x2a>
100001e4:	4685                	li	a3,1
100001e6:	00b67863          	bleu	a1,a2,100001f6 <__udivsi3+0x1a>
100001ea:	00c05663          	blez	a2,100001f6 <__udivsi3+0x1a>
100001ee:	0606                	slli	a2,a2,0x1
100001f0:	0686                	slli	a3,a3,0x1
100001f2:	feb66ce3          	bltu	a2,a1,100001ea <__udivsi3+0xe>
100001f6:	4501                	li	a0,0
100001f8:	00c5e463          	bltu	a1,a2,10000200 <__udivsi3+0x24>
100001fc:	8d91                	sub	a1,a1,a2
100001fe:	8d55                	or	a0,a0,a3
10000200:	8285                	srli	a3,a3,0x1
10000202:	8205                	srli	a2,a2,0x1
10000204:	faf5                	bnez	a3,100001f8 <__udivsi3+0x1c>
10000206:	8082                	ret

10000208 <__umodsi3>:
10000208:	8286                	mv	t0,ra
1000020a:	3fc9                	jal	100001dc <__udivsi3>
1000020c:	852e                	mv	a0,a1
1000020e:	8282                	jr	t0
10000210:	40a00533          	neg	a0,a0
10000214:	0005d763          	bgez	a1,10000222 <__umodsi3+0x1a>
10000218:	40b005b3          	neg	a1,a1
1000021c:	b7c1                	j	100001dc <__udivsi3>
1000021e:	40b005b3          	neg	a1,a1
10000222:	8286                	mv	t0,ra
10000224:	3f65                	jal	100001dc <__udivsi3>
10000226:	40a00533          	neg	a0,a0
1000022a:	8282                	jr	t0

1000022c <__modsi3>:
1000022c:	8286                	mv	t0,ra
1000022e:	0005c763          	bltz	a1,1000023c <__modsi3+0x10>
10000232:	00054963          	bltz	a0,10000244 <__modsi3+0x18>
10000236:	375d                	jal	100001dc <__udivsi3>
10000238:	852e                	mv	a0,a1
1000023a:	8282                	jr	t0
1000023c:	40b005b3          	neg	a1,a1
10000240:	fe055be3          	bgez	a0,10000236 <__modsi3+0xa>
10000244:	40a00533          	neg	a0,a0
10000248:	3f51                	jal	100001dc <__udivsi3>
1000024a:	40b00533          	neg	a0,a1
1000024e:	8282                	jr	t0
10000250:	0000                	unimp
	...

10000254 <print_step_prefix>:
10000254:	fe010113          	addi	sp,sp,-32
10000258:	00112e23          	sw	ra,28(sp)
1000025c:	00b12623          	sw	a1,12(sp)
10000260:	5dc000ef          	jal	ra,1000083c <printf>
10000264:	00c12583          	lw	a1,12(sp)
10000268:	01c12083          	lw	ra,28(sp)
1000026c:	00000517          	auipc	a0,0x0
10000270:	f3050513          	addi	a0,a0,-208 # 1000019c <_eoc+0x154>
10000274:	02010113          	addi	sp,sp,32
10000278:	5c40006f          	j	1000083c <printf>

1000027c <main>:
1000027c:	f5010113          	addi	sp,sp,-176
10000280:	0a112623          	sw	ra,172(sp)
10000284:	0a812423          	sw	s0,168(sp)
10000288:	0a912223          	sw	s1,164(sp)
1000028c:	0b212023          	sw	s2,160(sp)
10000290:	09312e23          	sw	s3,156(sp)
10000294:	09412c23          	sw	s4,152(sp)
10000298:	09612823          	sw	s6,144(sp)
1000029c:	09712623          	sw	s7,140(sp)
100002a0:	09812423          	sw	s8,136(sp)
100002a4:	09912223          	sw	s9,132(sp)
100002a8:	09a12023          	sw	s10,128(sp)
100002ac:	07b12e23          	sw	s11,124(sp)
100002b0:	09512a23          	sw	s5,148(sp)
100002b4:	011000ef          	jal	ra,10000ac4 <uart_init>
100002b8:	00000517          	auipc	a0,0x0
100002bc:	dac50513          	addi	a0,a0,-596 # 10000064 <_eoc+0x1c>
100002c0:	57c000ef          	jal	ra,1000083c <printf>
100002c4:	01400593          	li	a1,20
100002c8:	00000517          	auipc	a0,0x0
100002cc:	dbc50513          	addi	a0,a0,-580 # 10000084 <_eoc+0x3c>
100002d0:	56c000ef          	jal	ra,1000083c <printf>
100002d4:	03d000ef          	jal	ra,10000b10 <uart_write_flush>
100002d8:	123407b7          	lui	a5,0x12340
100002dc:	00f12a23          	sw	a5,20(sp)
100002e0:	ffffb7b7          	lui	a5,0xffffb
100002e4:	bcd78793          	addi	a5,a5,-1075 # ffffabcd <pulp__FC+0xffffabce>
100002e8:	00f12c23          	sw	a5,24(sp)
100002ec:	5aa507b7          	lui	a5,0x5aa50
100002f0:	0f078793          	addi	a5,a5,240 # 5aa500f0 <__stack_pointer+0x4aa4f0f0>
100002f4:	03010a13          	addi	s4,sp,48
100002f8:	05010993          	addi	s3,sp,80
100002fc:	00f12e23          	sw	a5,28(sp)
10000300:	01410c13          	addi	s8,sp,20
10000304:	00098b13          	mv	s6,s3
10000308:	000a0b93          	mv	s7,s4
1000030c:	00000913          	li	s2,0
10000310:	00000413          	li	s0,0
10000314:	00000497          	auipc	s1,0x0
10000318:	d8c48493          	addi	s1,s1,-628 # 100000a0 <_eoc+0x58>
1000031c:	00000d17          	auipc	s10,0x0
10000320:	da8d0d13          	addi	s10,s10,-600 # 100000c4 <_eoc+0x7c>
10000324:	00000d97          	auipc	s11,0x0
10000328:	d78d8d93          	addi	s11,s11,-648 # 1000009c <_eoc+0x54>
1000032c:	20001cb7          	lui	s9,0x20001
10000330:	00040593          	mv	a1,s0
10000334:	00048513          	mv	a0,s1
10000338:	000c5a83          	lhu	s5,0(s8) # 1d000 <status-0x2fe3008>
1000033c:	f19ff0ef          	jal	ra,10000254 <print_step_prefix>
10000340:	00000517          	auipc	a0,0x0
10000344:	d6850513          	addi	a0,a0,-664 # 100000a8 <_eoc+0x60>
10000348:	4f4000ef          	jal	ra,1000083c <printf>
1000034c:	7c4000ef          	jal	ra,10000b10 <uart_write_flush>
10000350:	00040593          	mv	a1,s0
10000354:	00048513          	mv	a0,s1
10000358:	efdff0ef          	jal	ra,10000254 <print_step_prefix>
1000035c:	00000517          	auipc	a0,0x0
10000360:	d5c50513          	addi	a0,a0,-676 # 100000b8 <_eoc+0x70>
10000364:	4d8000ef          	jal	ra,1000083c <printf>
10000368:	000a8593          	mv	a1,s5
1000036c:	000d0513          	mv	a0,s10
10000370:	4cc000ef          	jal	ra,1000083c <printf>
10000374:	000d8513          	mv	a0,s11
10000378:	4c4000ef          	jal	ra,1000083c <printf>
1000037c:	00040593          	mv	a1,s0
10000380:	00048513          	mv	a0,s1
10000384:	015caa23          	sw	s5,20(s9) # 20001014 <__stack_pointer+0x10000014>
10000388:	ecdff0ef          	jal	ra,10000254 <print_step_prefix>
1000038c:	00000517          	auipc	a0,0x0
10000390:	d3c50513          	addi	a0,a0,-708 # 100000c8 <_eoc+0x80>
10000394:	4a8000ef          	jal	ra,1000083c <printf>
10000398:	778000ef          	jal	ra,10000b10 <uart_write_flush>
1000039c:	7d000793          	li	a5,2000
100003a0:	00078713          	mv	a4,a5
100003a4:	fff78793          	addi	a5,a5,-1
100003a8:	2c071a63          	bnez	a4,1000067c <main+0x400>
100003ac:	00040593          	mv	a1,s0
100003b0:	00048513          	mv	a0,s1
100003b4:	ea1ff0ef          	jal	ra,10000254 <print_step_prefix>
100003b8:	00000517          	auipc	a0,0x0
100003bc:	d2050513          	addi	a0,a0,-736 # 100000d8 <_eoc+0x90>
100003c0:	47c000ef          	jal	ra,1000083c <printf>
100003c4:	74c000ef          	jal	ra,10000b10 <uart_write_flush>
100003c8:	014ca783          	lw	a5,20(s9)
100003cc:	00040593          	mv	a1,s0
100003d0:	01079693          	slli	a3,a5,0x10
100003d4:	0106d693          	srli	a3,a3,0x10
100003d8:	00048513          	mv	a0,s1
100003dc:	00d12623          	sw	a3,12(sp)
100003e0:	00f12423          	sw	a5,8(sp)
100003e4:	e71ff0ef          	jal	ra,10000254 <print_step_prefix>
100003e8:	00000517          	auipc	a0,0x0
100003ec:	d0050513          	addi	a0,a0,-768 # 100000e8 <_eoc+0xa0>
100003f0:	44c000ef          	jal	ra,1000083c <printf>
100003f4:	00812783          	lw	a5,8(sp)
100003f8:	00010737          	lui	a4,0x10
100003fc:	fff70713          	addi	a4,a4,-1 # ffff <status-0x2ff0009>
10000400:	00e7f5b3          	and	a1,a5,a4
10000404:	000d0513          	mv	a0,s10
10000408:	434000ef          	jal	ra,1000083c <printf>
1000040c:	000d8513          	mv	a0,s11
10000410:	42c000ef          	jal	ra,1000083c <printf>
10000414:	00c12783          	lw	a5,12(sp)
10000418:	26fa8663          	beq	s5,a5,10000684 <main+0x408>
1000041c:	00040593          	mv	a1,s0
10000420:	00048513          	mv	a0,s1
10000424:	e31ff0ef          	jal	ra,10000254 <print_step_prefix>
10000428:	00000517          	auipc	a0,0x0
1000042c:	ccc50513          	addi	a0,a0,-820 # 100000f4 <_eoc+0xac>
10000430:	40c000ef          	jal	ra,1000083c <printf>
10000434:	02010693          	addi	a3,sp,32
10000438:	008687b3          	add	a5,a3,s0
1000043c:	00190913          	addi	s2,s2,1 # 1b001 <status-0x2fe5007>
10000440:	00078023          	sb	zero,0(a5)
10000444:	00c12703          	lw	a4,12(sp)
10000448:	015b9023          	sh	s5,0(s7)
1000044c:	00eb1023          	sh	a4,0(s6)
10000450:	6c0000ef          	jal	ra,10000b10 <uart_write_flush>
10000454:	00140413          	addi	s0,s0,1 # ffffa001 <pulp__FC+0xffffa002>
10000458:	00600793          	li	a5,6
1000045c:	002c0c13          	addi	s8,s8,2
10000460:	002b8b93          	addi	s7,s7,2
10000464:	002b0b13          	addi	s6,s6,2
10000468:	ecf414e3          	bne	s0,a5,10000330 <main+0xb4>
1000046c:	0000b437          	lui	s0,0xb
10000470:	00098b13          	mv	s6,s3
10000474:	000a0b93          	mv	s7,s4
10000478:	00000493          	li	s1,0
1000047c:	ce140413          	addi	s0,s0,-799 # ace1 <status-0x2ff5327>
10000480:	00000a97          	auipc	s5,0x0
10000484:	c84a8a93          	addi	s5,s5,-892 # 10000104 <_eoc+0xbc>
10000488:	00000d17          	auipc	s10,0x0
1000048c:	c3cd0d13          	addi	s10,s10,-964 # 100000c4 <_eoc+0x7c>
10000490:	00000d97          	auipc	s11,0x0
10000494:	c0cd8d93          	addi	s11,s11,-1012 # 1000009c <_eoc+0x54>
10000498:	20001cb7          	lui	s9,0x20001
1000049c:	00345713          	srli	a4,s0,0x3
100004a0:	00245793          	srli	a5,s0,0x2
100004a4:	00e7c7b3          	xor	a5,a5,a4
100004a8:	0087c7b3          	xor	a5,a5,s0
100004ac:	00545713          	srli	a4,s0,0x5
100004b0:	00e7c7b3          	xor	a5,a5,a4
100004b4:	0017f793          	andi	a5,a5,1
100004b8:	00f79793          	slli	a5,a5,0xf
100004bc:	00048593          	mv	a1,s1
100004c0:	000a8513          	mv	a0,s5
100004c4:	00145413          	srli	s0,s0,0x1
100004c8:	0087e433          	or	s0,a5,s0
100004cc:	d89ff0ef          	jal	ra,10000254 <print_step_prefix>
100004d0:	00000517          	auipc	a0,0x0
100004d4:	bd850513          	addi	a0,a0,-1064 # 100000a8 <_eoc+0x60>
100004d8:	364000ef          	jal	ra,1000083c <printf>
100004dc:	634000ef          	jal	ra,10000b10 <uart_write_flush>
100004e0:	00048593          	mv	a1,s1
100004e4:	000a8513          	mv	a0,s5
100004e8:	d6dff0ef          	jal	ra,10000254 <print_step_prefix>
100004ec:	00000517          	auipc	a0,0x0
100004f0:	bcc50513          	addi	a0,a0,-1076 # 100000b8 <_eoc+0x70>
100004f4:	348000ef          	jal	ra,1000083c <printf>
100004f8:	00040593          	mv	a1,s0
100004fc:	000d0513          	mv	a0,s10
10000500:	33c000ef          	jal	ra,1000083c <printf>
10000504:	000d8513          	mv	a0,s11
10000508:	334000ef          	jal	ra,1000083c <printf>
1000050c:	00048593          	mv	a1,s1
10000510:	000a8513          	mv	a0,s5
10000514:	008caa23          	sw	s0,20(s9) # 20001014 <__stack_pointer+0x10000014>
10000518:	d3dff0ef          	jal	ra,10000254 <print_step_prefix>
1000051c:	00000517          	auipc	a0,0x0
10000520:	bac50513          	addi	a0,a0,-1108 # 100000c8 <_eoc+0x80>
10000524:	318000ef          	jal	ra,1000083c <printf>
10000528:	5e8000ef          	jal	ra,10000b10 <uart_write_flush>
1000052c:	7d000793          	li	a5,2000
10000530:	00078713          	mv	a4,a5
10000534:	fff78793          	addi	a5,a5,-1
10000538:	16071c63          	bnez	a4,100006b0 <main+0x434>
1000053c:	00048593          	mv	a1,s1
10000540:	000a8513          	mv	a0,s5
10000544:	d11ff0ef          	jal	ra,10000254 <print_step_prefix>
10000548:	00000517          	auipc	a0,0x0
1000054c:	b9050513          	addi	a0,a0,-1136 # 100000d8 <_eoc+0x90>
10000550:	2ec000ef          	jal	ra,1000083c <printf>
10000554:	5bc000ef          	jal	ra,10000b10 <uart_write_flush>
10000558:	014ca783          	lw	a5,20(s9)
1000055c:	00048593          	mv	a1,s1
10000560:	000a8513          	mv	a0,s5
10000564:	01079c13          	slli	s8,a5,0x10
10000568:	00f12423          	sw	a5,8(sp)
1000056c:	ce9ff0ef          	jal	ra,10000254 <print_step_prefix>
10000570:	00000517          	auipc	a0,0x0
10000574:	b7850513          	addi	a0,a0,-1160 # 100000e8 <_eoc+0xa0>
10000578:	2c4000ef          	jal	ra,1000083c <printf>
1000057c:	00812783          	lw	a5,8(sp)
10000580:	000106b7          	lui	a3,0x10
10000584:	fff68693          	addi	a3,a3,-1 # ffff <status-0x2ff0009>
10000588:	000d0513          	mv	a0,s10
1000058c:	00d7f5b3          	and	a1,a5,a3
10000590:	2ac000ef          	jal	ra,1000083c <printf>
10000594:	010c5c13          	srli	s8,s8,0x10
10000598:	000d8513          	mv	a0,s11
1000059c:	2a0000ef          	jal	ra,1000083c <printf>
100005a0:	108c0c63          	beq	s8,s0,100006b8 <main+0x43c>
100005a4:	00048593          	mv	a1,s1
100005a8:	000a8513          	mv	a0,s5
100005ac:	ca9ff0ef          	jal	ra,10000254 <print_step_prefix>
100005b0:	00000517          	auipc	a0,0x0
100005b4:	b4450513          	addi	a0,a0,-1212 # 100000f4 <_eoc+0xac>
100005b8:	284000ef          	jal	ra,1000083c <printf>
100005bc:	02010713          	addi	a4,sp,32
100005c0:	009707b3          	add	a5,a4,s1
100005c4:	00190913          	addi	s2,s2,1
100005c8:	00078323          	sb	zero,6(a5)
100005cc:	008b9623          	sh	s0,12(s7)
100005d0:	018b1623          	sh	s8,12(s6)
100005d4:	53c000ef          	jal	ra,10000b10 <uart_write_flush>
100005d8:	00148493          	addi	s1,s1,1
100005dc:	00800793          	li	a5,8
100005e0:	002b8b93          	addi	s7,s7,2
100005e4:	002b0b13          	addi	s6,s6,2
100005e8:	eaf49ae3          	bne	s1,a5,1000049c <main+0x220>
100005ec:	00000517          	auipc	a0,0x0
100005f0:	b2050513          	addi	a0,a0,-1248 # 1000010c <_eoc+0xc4>
100005f4:	248000ef          	jal	ra,1000083c <printf>
100005f8:	00000413          	li	s0,0
100005fc:	00000b17          	auipc	s6,0x0
10000600:	a5cb0b13          	addi	s6,s6,-1444 # 10000058 <_eoc+0x10>
10000604:	00000b97          	auipc	s7,0x0
10000608:	a58b8b93          	addi	s7,s7,-1448 # 1000005c <_eoc+0x14>
1000060c:	00000a97          	auipc	s5,0x0
10000610:	b1ca8a93          	addi	s5,s5,-1252 # 10000128 <_eoc+0xe0>
10000614:	00e00493          	li	s1,14
10000618:	02010713          	addi	a4,sp,32
1000061c:	008707b3          	add	a5,a4,s0
10000620:	0007c783          	lbu	a5,0(a5)
10000624:	000a5603          	lhu	a2,0(s4)
10000628:	0009d683          	lhu	a3,0(s3)
1000062c:	000b0713          	mv	a4,s6
10000630:	00079463          	bnez	a5,10000638 <main+0x3bc>
10000634:	000b8713          	mv	a4,s7
10000638:	00040593          	mv	a1,s0
1000063c:	000a8513          	mv	a0,s5
10000640:	00140413          	addi	s0,s0,1
10000644:	1f8000ef          	jal	ra,1000083c <printf>
10000648:	002a0a13          	addi	s4,s4,2
1000064c:	00298993          	addi	s3,s3,2
10000650:	fc9414e3          	bne	s0,s1,10000618 <main+0x39c>
10000654:	00000517          	auipc	a0,0x0
10000658:	af450513          	addi	a0,a0,-1292 # 10000148 <_eoc+0x100>
1000065c:	00090663          	beqz	s2,10000668 <main+0x3ec>
10000660:	00000517          	auipc	a0,0x0
10000664:	b1c50513          	addi	a0,a0,-1252 # 1000017c <_eoc+0x134>
10000668:	1d4000ef          	jal	ra,1000083c <printf>
1000066c:	4a4000ef          	jal	ra,10000b10 <uart_write_flush>
10000670:	3e800513          	li	a0,1000
10000674:	414000ef          	jal	ra,10000a88 <sleep_ms>
10000678:	ff9ff06f          	j	10000670 <main+0x3f4>
1000067c:	00000013          	nop
10000680:	d21ff06f          	j	100003a0 <main+0x124>
10000684:	00040593          	mv	a1,s0
10000688:	00048513          	mv	a0,s1
1000068c:	bc9ff0ef          	jal	ra,10000254 <print_step_prefix>
10000690:	00000517          	auipc	a0,0x0
10000694:	a6c50513          	addi	a0,a0,-1428 # 100000fc <_eoc+0xb4>
10000698:	1a4000ef          	jal	ra,1000083c <printf>
1000069c:	02010693          	addi	a3,sp,32
100006a0:	00100713          	li	a4,1
100006a4:	008687b3          	add	a5,a3,s0
100006a8:	00e78023          	sb	a4,0(a5)
100006ac:	d99ff06f          	j	10000444 <main+0x1c8>
100006b0:	00000013          	nop
100006b4:	e7dff06f          	j	10000530 <main+0x2b4>
100006b8:	00048593          	mv	a1,s1
100006bc:	000a8513          	mv	a0,s5
100006c0:	b95ff0ef          	jal	ra,10000254 <print_step_prefix>
100006c4:	00000517          	auipc	a0,0x0
100006c8:	a3850513          	addi	a0,a0,-1480 # 100000fc <_eoc+0xb4>
100006cc:	170000ef          	jal	ra,1000083c <printf>
100006d0:	02010693          	addi	a3,sp,32
100006d4:	00100713          	li	a4,1
100006d8:	009687b3          	add	a5,a3,s1
100006dc:	00e78323          	sb	a4,6(a5)
100006e0:	eedff06f          	j	100005cc <main+0x350>

100006e4 <print_reversed_with_padding>:
100006e4:	fe010113          	addi	sp,sp,-32
100006e8:	00812c23          	sw	s0,24(sp)
100006ec:	01212823          	sw	s2,16(sp)
100006f0:	00112e23          	sw	ra,28(sp)
100006f4:	00912a23          	sw	s1,20(sp)
100006f8:	00050913          	mv	s2,a0
100006fc:	00058413          	mv	s0,a1
10000700:	02c46463          	bltu	s0,a2,10000728 <print_reversed_with_padding+0x44>
10000704:	fff00493          	li	s1,-1
10000708:	fff40413          	addi	s0,s0,-1
1000070c:	04941063          	bne	s0,s1,1000074c <print_reversed_with_padding+0x68>
10000710:	01c12083          	lw	ra,28(sp)
10000714:	01812403          	lw	s0,24(sp)
10000718:	01412483          	lw	s1,20(sp)
1000071c:	01012903          	lw	s2,16(sp)
10000720:	02010113          	addi	sp,sp,32
10000724:	00008067          	ret
10000728:	00068513          	mv	a0,a3
1000072c:	00c12623          	sw	a2,12(sp)
10000730:	00d12423          	sw	a3,8(sp)
10000734:	3fc000ef          	jal	ra,10000b30 <putchar>
10000738:	00c12603          	lw	a2,12(sp)
1000073c:	00812683          	lw	a3,8(sp)
10000740:	fff60613          	addi	a2,a2,-1 # 17fff <status-0x2fe8009>
10000744:	0ff67613          	andi	a2,a2,255
10000748:	fb9ff06f          	j	10000700 <print_reversed_with_padding+0x1c>
1000074c:	008907b3          	add	a5,s2,s0
10000750:	0007c503          	lbu	a0,0(a5)
10000754:	3dc000ef          	jal	ra,10000b30 <putchar>
10000758:	fb1ff06f          	j	10000708 <print_reversed_with_padding+0x24>

1000075c <format_dec32>:
1000075c:	fe010113          	addi	sp,sp,-32
10000760:	01312623          	sw	s3,12(sp)
10000764:	00112e23          	sw	ra,28(sp)
10000768:	00812c23          	sw	s0,24(sp)
1000076c:	00912a23          	sw	s1,20(sp)
10000770:	01212823          	sw	s2,16(sp)
10000774:	00050993          	mv	s3,a0
10000778:	06058263          	beqz	a1,100007dc <format_dec32+0x80>
1000077c:	00058493          	mv	s1,a1
10000780:	00000793          	li	a5,0
10000784:	00a00593          	li	a1,10
10000788:	00048513          	mv	a0,s1
1000078c:	00178413          	addi	s0,a5,1
10000790:	00f98933          	add	s2,s3,a5
10000794:	a75ff0ef          	jal	ra,10000208 <__umodsi3>
10000798:	03050513          	addi	a0,a0,48
1000079c:	00a90023          	sb	a0,0(s2)
100007a0:	00a00593          	li	a1,10
100007a4:	00048513          	mv	a0,s1
100007a8:	a35ff0ef          	jal	ra,100001dc <__udivsi3>
100007ac:	0ff47413          	andi	s0,s0,255
100007b0:	00050493          	mv	s1,a0
100007b4:	00040793          	mv	a5,s0
100007b8:	fc0516e3          	bnez	a0,10000784 <format_dec32+0x28>
100007bc:	00040513          	mv	a0,s0
100007c0:	01c12083          	lw	ra,28(sp)
100007c4:	01812403          	lw	s0,24(sp)
100007c8:	01412483          	lw	s1,20(sp)
100007cc:	01012903          	lw	s2,16(sp)
100007d0:	00c12983          	lw	s3,12(sp)
100007d4:	02010113          	addi	sp,sp,32
100007d8:	00008067          	ret
100007dc:	03000793          	li	a5,48
100007e0:	00f50023          	sb	a5,0(a0)
100007e4:	00100413          	li	s0,1
100007e8:	fd5ff06f          	j	100007bc <format_dec32+0x60>

100007ec <format_hex32>:
100007ec:	04058063          	beqz	a1,1000082c <__global_pointer+0x2c>
100007f0:	00000713          	li	a4,0
100007f4:	00000617          	auipc	a2,0x0
100007f8:	9b060613          	addi	a2,a2,-1616 # 100001a4 <hex_symbols>
100007fc:	00f5f693          	andi	a3,a1,15
10000800:	00d606b3          	add	a3,a2,a3
10000804:	0006c683          	lbu	a3,0(a3)
10000808:	00170793          	addi	a5,a4,1
1000080c:	00e50733          	add	a4,a0,a4
10000810:	0ff7f793          	andi	a5,a5,255
10000814:	00d70023          	sb	a3,0(a4)
10000818:	0045d593          	srli	a1,a1,0x4
1000081c:	00078713          	mv	a4,a5
10000820:	fc059ee3          	bnez	a1,100007fc <format_hex32+0x10>
10000824:	00078513          	mv	a0,a5
10000828:	00008067          	ret
1000082c:	03000793          	li	a5,48
10000830:	00f50023          	sb	a5,0(a0)
10000834:	00100793          	li	a5,1
10000838:	fedff06f          	j	10000824 <__global_pointer+0x24>

1000083c <printf>:
1000083c:	f8010113          	addi	sp,sp,-128
10000840:	06f12a23          	sw	a5,116(sp)
10000844:	06410793          	addi	a5,sp,100
10000848:	04812c23          	sw	s0,88(sp)
1000084c:	05412423          	sw	s4,72(sp)
10000850:	05512223          	sw	s5,68(sp)
10000854:	05612023          	sw	s6,64(sp)
10000858:	03712e23          	sw	s7,60(sp)
1000085c:	03812c23          	sw	s8,56(sp)
10000860:	04112e23          	sw	ra,92(sp)
10000864:	04912a23          	sw	s1,84(sp)
10000868:	05212823          	sw	s2,80(sp)
1000086c:	05312623          	sw	s3,76(sp)
10000870:	00050413          	mv	s0,a0
10000874:	06b12223          	sw	a1,100(sp)
10000878:	06c12423          	sw	a2,104(sp)
1000087c:	06d12623          	sw	a3,108(sp)
10000880:	06e12823          	sw	a4,112(sp)
10000884:	07012c23          	sw	a6,120(sp)
10000888:	07112e23          	sw	a7,124(sp)
1000088c:	02f12023          	sw	a5,32(sp)
10000890:	02500a13          	li	s4,37
10000894:	03000a93          	li	s5,48
10000898:	00900b93          	li	s7,9
1000089c:	07300b13          	li	s6,115
100008a0:	fff00c13          	li	s8,-1
100008a4:	00044503          	lbu	a0,0(s0)
100008a8:	02051a63          	bnez	a0,100008dc <printf+0xa0>
100008ac:	05c12083          	lw	ra,92(sp)
100008b0:	05812403          	lw	s0,88(sp)
100008b4:	05412483          	lw	s1,84(sp)
100008b8:	05012903          	lw	s2,80(sp)
100008bc:	04c12983          	lw	s3,76(sp)
100008c0:	04812a03          	lw	s4,72(sp)
100008c4:	04412a83          	lw	s5,68(sp)
100008c8:	04012b03          	lw	s6,64(sp)
100008cc:	03c12b83          	lw	s7,60(sp)
100008d0:	03812c03          	lw	s8,56(sp)
100008d4:	08010113          	addi	sp,sp,128
100008d8:	00008067          	ret
100008dc:	17451063          	bne	a0,s4,10000a3c <printf+0x200>
100008e0:	00144783          	lbu	a5,1(s0)
100008e4:	01479a63          	bne	a5,s4,100008f8 <printf+0xbc>
100008e8:	02500513          	li	a0,37
100008ec:	244000ef          	jal	ra,10000b30 <putchar>
100008f0:	00240413          	addi	s0,s0,2
100008f4:	fb1ff06f          	j	100008a4 <printf+0x68>
100008f8:	07578a63          	beq	a5,s5,1000096c <printf+0x130>
100008fc:	00140413          	addi	s0,s0,1
10000900:	02000993          	li	s3,32
10000904:	00000913          	li	s2,0
10000908:	00044483          	lbu	s1,0(s0)
1000090c:	fd048793          	addi	a5,s1,-48
10000910:	0ff7f793          	andi	a5,a5,255
10000914:	06fbf263          	bleu	a5,s7,10000978 <printf+0x13c>
10000918:	13648663          	beq	s1,s6,10000a44 <printf+0x208>
1000091c:	069b6e63          	bltu	s6,s1,10000998 <printf+0x15c>
10000920:	06300793          	li	a5,99
10000924:	10f48463          	beq	s1,a5,10000a2c <printf+0x1f0>
10000928:	06400793          	li	a5,100
1000092c:	0cf48a63          	beq	s1,a5,10000a00 <printf+0x1c4>
10000930:	02500513          	li	a0,37
10000934:	1fc000ef          	jal	ra,10000b30 <putchar>
10000938:	01599663          	bne	s3,s5,10000944 <printf+0x108>
1000093c:	03000513          	li	a0,48
10000940:	1f0000ef          	jal	ra,10000b30 <putchar>
10000944:	00090e63          	beqz	s2,10000960 <printf+0x124>
10000948:	00090593          	mv	a1,s2
1000094c:	01c10513          	addi	a0,sp,28
10000950:	e0dff0ef          	jal	ra,1000075c <format_dec32>
10000954:	00050493          	mv	s1,a0
10000958:	fff48493          	addi	s1,s1,-1
1000095c:	11849c63          	bne	s1,s8,10000a74 <printf+0x238>
10000960:	00044503          	lbu	a0,0(s0)
10000964:	06050863          	beqz	a0,100009d4 <printf+0x198>
10000968:	0d40006f          	j	10000a3c <printf+0x200>
1000096c:	00240413          	addi	s0,s0,2
10000970:	03000993          	li	s3,48
10000974:	f91ff06f          	j	10000904 <printf+0xc8>
10000978:	00090513          	mv	a0,s2
1000097c:	00a00593          	li	a1,10
10000980:	83dff0ef          	jal	ra,100001bc <__mulsi3>
10000984:	00a48533          	add	a0,s1,a0
10000988:	fd050613          	addi	a2,a0,-48
1000098c:	0ff67913          	andi	s2,a2,255
10000990:	00140413          	addi	s0,s0,1
10000994:	f75ff06f          	j	10000908 <printf+0xcc>
10000998:	07500793          	li	a5,117
1000099c:	04f48463          	beq	s1,a5,100009e4 <printf+0x1a8>
100009a0:	07800793          	li	a5,120
100009a4:	f8f496e3          	bne	s1,a5,10000930 <printf+0xf4>
100009a8:	02012783          	lw	a5,32(sp)
100009ac:	02410513          	addi	a0,sp,36
100009b0:	0007a583          	lw	a1,0(a5)
100009b4:	00478713          	addi	a4,a5,4
100009b8:	02e12023          	sw	a4,32(sp)
100009bc:	e31ff0ef          	jal	ra,100007ec <format_hex32>
100009c0:	00050593          	mv	a1,a0
100009c4:	00098693          	mv	a3,s3
100009c8:	00090613          	mv	a2,s2
100009cc:	02410513          	addi	a0,sp,36
100009d0:	d15ff0ef          	jal	ra,100006e4 <print_reversed_with_padding>
100009d4:	00044783          	lbu	a5,0(s0)
100009d8:	ec0786e3          	beqz	a5,100008a4 <printf+0x68>
100009dc:	00140413          	addi	s0,s0,1
100009e0:	ec5ff06f          	j	100008a4 <printf+0x68>
100009e4:	02012783          	lw	a5,32(sp)
100009e8:	00478713          	addi	a4,a5,4
100009ec:	0007a583          	lw	a1,0(a5)
100009f0:	02e12023          	sw	a4,32(sp)
100009f4:	02410513          	addi	a0,sp,36
100009f8:	d65ff0ef          	jal	ra,1000075c <format_dec32>
100009fc:	fc5ff06f          	j	100009c0 <printf+0x184>
10000a00:	02012783          	lw	a5,32(sp)
10000a04:	00478713          	addi	a4,a5,4
10000a08:	0007a583          	lw	a1,0(a5)
10000a0c:	02e12023          	sw	a4,32(sp)
10000a10:	fe05d2e3          	bgez	a1,100009f4 <printf+0x1b8>
10000a14:	02d00513          	li	a0,45
10000a18:	00b12623          	sw	a1,12(sp)
10000a1c:	114000ef          	jal	ra,10000b30 <putchar>
10000a20:	00c12583          	lw	a1,12(sp)
10000a24:	40b005b3          	neg	a1,a1
10000a28:	fcdff06f          	j	100009f4 <printf+0x1b8>
10000a2c:	02012783          	lw	a5,32(sp)
10000a30:	00478713          	addi	a4,a5,4
10000a34:	0007c503          	lbu	a0,0(a5)
10000a38:	02e12023          	sw	a4,32(sp)
10000a3c:	0f4000ef          	jal	ra,10000b30 <putchar>
10000a40:	f95ff06f          	j	100009d4 <printf+0x198>
10000a44:	02012783          	lw	a5,32(sp)
10000a48:	00478713          	addi	a4,a5,4
10000a4c:	0007a483          	lw	s1,0(a5)
10000a50:	02e12023          	sw	a4,32(sp)
10000a54:	00049663          	bnez	s1,10000a60 <printf+0x224>
10000a58:	fffff497          	auipc	s1,0xfffff
10000a5c:	75c48493          	addi	s1,s1,1884 # 100001b4 <hex_symbols+0x10>
10000a60:	0004c503          	lbu	a0,0(s1)
10000a64:	f60508e3          	beqz	a0,100009d4 <printf+0x198>
10000a68:	00148493          	addi	s1,s1,1
10000a6c:	0c4000ef          	jal	ra,10000b30 <putchar>
10000a70:	ff1ff06f          	j	10000a60 <printf+0x224>
10000a74:	01c10713          	addi	a4,sp,28
10000a78:	009707b3          	add	a5,a4,s1
10000a7c:	0007c503          	lbu	a0,0(a5)
10000a80:	0b0000ef          	jal	ra,10000b30 <putchar>
10000a84:	ed5ff06f          	j	10000958 <printf+0x11c>

10000a88 <sleep_ms>:
10000a88:	0300a7b7          	lui	a5,0x300a
10000a8c:	0007a023          	sw	zero,0(a5) # 300a000 <status+0x9ff8>
10000a90:	00a7a823          	sw	a0,16(a5)
10000a94:	08000693          	li	a3,128
10000a98:	3046a073          	csrs	0x304,a3
10000a9c:	30046073          	csrsi	mstatus,8
10000aa0:	00002737          	lui	a4,0x2
10000aa4:	fd570713          	addi	a4,a4,-43 # 1fd5 <status-0x2ffe033>
10000aa8:	00e7a023          	sw	a4,0(a5)
10000aac:	10500073          	wfi
10000ab0:	0007a703          	lw	a4,0(a5)
10000ab4:	ffe77713          	andi	a4,a4,-2
10000ab8:	00e7a023          	sw	a4,0(a5)
10000abc:	3046b073          	csrc	0x304,a3
10000ac0:	00008067          	ret

10000ac4 <uart_init>:
10000ac4:	030027b7          	lui	a5,0x3002
10000ac8:	00078223          	sb	zero,4(a5) # 3002004 <status+0x1ffc>
10000acc:	f8000713          	li	a4,-128
10000ad0:	00e78623          	sb	a4,12(a5)
10000ad4:	03400713          	li	a4,52
10000ad8:	00e78023          	sb	a4,0(a5)
10000adc:	00078223          	sb	zero,4(a5)
10000ae0:	00300713          	li	a4,3
10000ae4:	00e78623          	sb	a4,12(a5)
10000ae8:	fc700713          	li	a4,-57
10000aec:	00e78423          	sb	a4,8(a5)
10000af0:	00078823          	sb	zero,16(a5)
10000af4:	00008067          	ret

10000af8 <uart_write>:
10000af8:	03002737          	lui	a4,0x3002
10000afc:	01474783          	lbu	a5,20(a4) # 3002014 <status+0x200c>
10000b00:	0207f793          	andi	a5,a5,32
10000b04:	fe078ce3          	beqz	a5,10000afc <uart_write+0x4>
10000b08:	00a70023          	sb	a0,0(a4)
10000b0c:	00008067          	ret

10000b10 <uart_write_flush>:
10000b10:	03002737          	lui	a4,0x3002
10000b14:	01474783          	lbu	a5,20(a4) # 3002014 <status+0x200c>
10000b18:	0207f793          	andi	a5,a5,32
10000b1c:	fe078ce3          	beqz	a5,10000b14 <uart_write_flush+0x4>
10000b20:	01474783          	lbu	a5,20(a4)
10000b24:	0407f793          	andi	a5,a5,64
10000b28:	fe0786e3          	beqz	a5,10000b14 <uart_write_flush+0x4>
10000b2c:	00008067          	ret

10000b30 <putchar>:
10000b30:	fc9ff06f          	j	10000af8 <uart_write>

Disassembly of section .Pulp_Chip.Info:

00000000 <.Pulp_Chip.Info>:
   0:	000a                	0xa
   2:	0000                	unimp
   4:	0038                	addi	a4,sp,8
   6:	0000                	unimp
   8:	0001                	nop
   a:	0000                	unimp
   c:	7550                	flw	fa2,44(a0)
   e:	706c                	flw	fa1,100(s0)
  10:	495f 666e 006f      	0x6f666e495f
  16:	70696863          	bltu	s2,t1,726 <status-0x2fff8e2>
  1a:	6e3d                	lui	t3,0xf
  1c:	20656e6f          	jal	t3,56222 <status-0x2fa9de6>
  20:	3d757063          	bleu	s7,a0,3e0 <status-0x2fffc28>
  24:	6f6e                	flw	ft10,216(sp)
  26:	656e                	flw	fa0,216(sp)
  28:	7020                	flw	fs0,96(s0)
  2a:	3d65                	jal	fffffee2 <pulp__FC+0xfffffee3>
  2c:	312d                	jal	fffffc56 <pulp__FC+0xfffffc57>
  2e:	6620                	flw	fs0,72(a2)
  30:	312d3d63          	p.bneimm	s10,-14,34a <status-0x2fffcbe>
  34:	6c20                	flw	fs0,88(s0)
  36:	3d32                	fld	fs10,296(sp)
  38:	312d                	jal	fffffc62 <pulp__FC+0xfffffc63>
  3a:	6c20                	flw	fs0,88(s0)
  3c:	6331                	lui	t1,0xc
  3e:	3d6c                	fld	fa1,248(a0)
  40:	312d                	jal	fffffc6a <pulp__FC+0xfffffc6b>
  42:	6c20                	flw	fs0,88(s0)
  44:	6631                	lui	a2,0xc
  46:	312d3d63          	p.bneimm	s10,-14,360 <status-0x2fffca8>
  4a:	0000                	unimp
	...
