
bin/serial-fir-langsung.elf:     file format elf32-littleriscv

Contents of section .text._start:
 10000000 97110000 93810180 17110000 130181ff  ................
 10000010 93000000 13020000 93020000 13030000  ................
 10000020 93030000 13040000 93040000 13050000  ................
 10000030 93050000 13060000 93060000 13070000  ................
 10000040 93070000 ef004018 970200f3 938202fc  ......@.........
 10000050 23a0a200 73005010                    #...s.P.        
Contents of section .misc:
 10000058 cef90d04 7d081002 40f6a6fa 87176635  ....}...@.....f5
 10000068 66358717 a6fa40f6 10027d08 0d04cef9  f5....@...}.....
 10000078 25642025 640d0a00 e6fd6303 d0035101  %d %d.....c...Q.
 10000088 1cfcf5fd effa9503 b100f302 b0fd3407  ..............4.
 10000098 190784ff a9fb57fd 0e00c4ff 6bfd3201  ......W.....k.2.
 100000a8 67fefefa e3febfff e803dffc 5c001201  g...........\...
 100000b8 aaf79401 41fcbafe af090306 3b0360ff  ....A.......;.`.
 100000c8 a6fc8e01 1fffddfa eaff90fc 550430fe  ............U.0.
 100000d8 9902eefd 29009b00 bffe6208 2003ac04  ....).....b. ...
 100000e8 32088401 1504a4fa 42fc93f5 ddfc3dfe  2.......B.....=.
 100000f8 30313233 34353637 38394142 43444546  0123456789ABCDEF
 10000108 286e756c 6c290000 00000000 00000000  (null)..........
 10000118 00000000 00000000 00000000 00000000  ................
 10000128 00000000 00000000                    ........        
Contents of section .text:
 10000130 2a860145 93f61500 91c23295 85810606  *..E......2.....
 10000140 f5f98280 00000000 634e0502 63c30504  ........cN..c...
 10000150 2e86aa85 7d5515c2 85466378 b6006356  ....}U...Fcx..cV
 10000160 c0000606 8606e36c b6fe0145 63e4c500  .......l...Ec...
 10000170 918d558d 85820582 f5fa8280 8682c93f  ..U............?
 10000180 2e858282 3305a040 63d70500 b305b040  ....3..@c......@
 10000190 c1b7b305 b0408682 653f3305 a0408282  .....@..e?3..@..
 100001a0 868263c7 05006349 05005d37 2e858282  ..c...cI..]7....
 100001b0 b305b040 e35b05fe 3305a040 513f3305  ...@.[..3..@Q?3.
 100001c0 b0408282 00000000 130101fa 23206105  .@..........# a.
 100001d0 232a9103 232e1104 970c0000 938c8cf3  #*..#...........
 100001e0 232c8104 232a9104 23282105 23263105  #,..#*..#(!.#&1.
 100001f0 23244105 23225105 232e7103 232c8103  #$A.#"Q.#.q.#,..
 10000200 2328a103 2326b103 ef00404e 13870c00  #(..#&....@N....
 10000210 93070000 138b0c00 93060001 23100700  ............#...
 10000220 93871700 13072700 e39ad7fe 37290000  ......'.....7)..
 10000230 b7890100 930a0002 970b0000 938b0be4  ................
 10000240 1309f970 9389f969 170a0000 130a8ae3  ...p...i........
 10000250 930d0000 130cc003 83160a00 97070000  ................
 10000260 938727ed 03d6e7ff 9387e7ff 2391c700  ..'.........#...
 10000270 e39a97ff 17070000 231ed7e8 93040000  ........#.......
 10000280 13040000 130d0000 17070000 130707dd  ................
 10000290 b3079700 33069b00 83150600 03950700  ....3...........
 100002a0 2326d100 eff0dfe8 1356f541 3305a400  #&.......V.A3...
 100002b0 b3378500 330dcd00 93842400 13040500  .7..3.....$.....
 100002c0 338da701 8326c100 e39054fd 1356f500  3....&....T..V..
 100002d0 13160601 13560641 93850600 13850b00  .....V.A........
 100002e0 ef00001c 232c0100 83278101 635ef902  ....#,...'..c^..
 100002f0 938d1d00 130a2a00 e3908df7 232e0100  ......*.....#...
 10000300 8327c101 63daf902 13870c00 93070000  .'..c...........
 10000310 93060001 23100700 93871700 13072700  ....#.........'.
 10000320 e39ad7fe 6ff05ff2 83278101 93871700  ....o._..'......
 10000330 232cf100 6ff05ffb 8327c101 93871700  #,..o._..'......
 10000340 232ef100 6ff0dffb 130101fe 232c8100  #...o.......#,..
 10000350 23282101 232e1100 232a9100 13090500  #(!.#...#*......
 10000360 13840500 6364c402 9304f0ff 1304f4ff  ....cd..........
 10000370 63109404 8320c101 03248101 83244101  c.... ...$...$A.
 10000380 03290101 13010102 67800000 13850600  .)......g.......
 10000390 2326c100 2324d100 ef00003a 0326c100  #&..#$.....:.&..
 100003a0 83268100 1306f6ff 1376f60f 6ff09ffb  .&.......v..o...
 100003b0 b3078900 03c50700 ef000038 6ff01ffb  ...........8o...
 100003c0 130101fe 23263101 232e1100 232c8100  ....#&1.#...#,..
 100003d0 232a9100 23282101 93090500 63820506  #*..#(!.....c...
 100003e0 93840500 93070000 9305a000 13850400  ................
 100003f0 13841700 3389f900 eff05fd8 13050503  ....3....._.....
 10000400 2300a900 9305a000 13850400 eff05fd4  #............._.
 10000410 1374f40f 93040500 93070400 e31605fc  .t..............
 10000420 13050400 8320c101 03248101 83244101  ..... ...$...$A.
 10000430 03290101 8329c100 13010102 67800000  .)...)......g...
 10000440 93070003 2300f500 13041000 6ff05ffd  ....#.......o._.
 10000450 63800504 13070000 17060000 130606ca  c...............
 10000460 93f6f500 b306d600 83c60600 93071700  ................
 10000470 3307e500 93f7f70f 2300d700 93d54500  3.......#.....E.
 10000480 13870700 e39e05fc 13850700 67800000  ............g...
 10000490 93070003 2300f500 93071000 6ff0dffe  ....#.......o...
 100004a0 130101f8 232af106 93074106 232c8104  ....#*....A.#,..
 100004b0 23244105 23225105 23206105 232e7103  #$A.#"Q.# a.#.q.
 100004c0 232c8103 232e1104 232a9104 23282105  #,..#...#*..#(!.
 100004d0 23263105 13040500 2322b106 2324c106  #&1.....#"..#$..
 100004e0 2326d106 2328e106 232c0107 232e1107  #&..#(..#,..#...
 100004f0 2320f102 130a5002 930a0003 930b9000  # ....P.........
 10000500 130b3007 130cf0ff 03450400 631a0502  ..0......E..c...
 10000510 8320c105 03248105 83244105 03290105  . ...$...$A..)..
 10000520 8329c104 032a8104 832a4104 032b0104  .)...*...*A..+..
 10000530 832bc103 032c8103 13010108 67800000  .+...,......g...
 10000540 63104517 83471400 639a4701 13055002  c.E..G..c.G...P.
 10000550 ef00801e 13042400 6ff01ffb 638a5707  ......$.o...c.W.
 10000560 13041400 93090002 13090000 83440400  .............D..
 10000570 938704fd 93f7f70f 63f2fb06 63866413  ........c...c.d.
 10000580 636e9b06 93073006 6384f410 93074006  cn....0.c.....@.
 10000590 638af40c 13055002 ef00001a 63965901  c.....P.....c.Y.
 100005a0 13050003 ef004019 630e0900 93050900  ......@.c.......
 100005b0 1305c101 eff0dfe0 93040500 9384f4ff  ................
 100005c0 639c8411 03450400 63080506 6f00400d  c....E..c...o.@.
 100005d0 13042400 93090003 6ff01ff9 13050900  ..$.....o.......
 100005e0 9305a000 eff0dfb4 3385a400 130605fd  ........3.......
 100005f0 1379f60f 13041400 6ff05ff7 93075007  .y......o._...P.
 10000600 6384f404 93078007 e396f4f8 83270102  c............'..
 10000610 13054102 83a50700 13874700 2320e102  ..A.......G.# ..
 10000620 eff01fe3 93050500 93860900 13060900  ................
 10000630 13054102 eff05fd1 83470400 e38607ec  ..A..._..G......
 10000640 13041400 6ff05fec 83270102 13874700  ....o._..'....G.
 10000650 83a50700 2320e102 13054102 eff05fd6  ....# ....A..._.
 10000660 6ff05ffc 83270102 13874700 83a50700  o._..'....G.....
 10000670 2320e102 e3d205fe 1305d002 2326b100  # ..........#&..
 10000680 ef00800b 8325c100 b305b040 6ff0dffc  .....%.....@o...
 10000690 83270102 13874700 03c50700 2320e102  .'....G.....# ..
 100006a0 ef008009 6ff05ff9 83270102 13874700  ....o._..'....G.
 100006b0 83a40700 2320e102 63960400 97040000  ....# ..c.......
 100006c0 9384c4a4 03c50400 e30805f6 93841400  ................
 100006d0 ef008006 6ff01fff 1307c101 b3079700  ....o...........
 100006e0 03c50700 ef004005 6ff05fed b7270003  ......@.o._..'..
 100006f0 23820700 130700f8 2386e700 13074003  #.......#.....@.
 10000700 2380e700 23820700 13073000 2386e700  #...#.....0.#...
 10000710 130770fc 2384e700 23880700 67800000  ..p.#...#...g...
 10000720 37270003 83474701 93f70702 e38c07fe  7'...GG.........
 10000730 2300a700 67800000 6ff09ffe           #...g...o...    
Contents of section .Pulp_Chip.Info:
 0000 0a000000 38000000 01000000 50756c70  ....8.......Pulp
 0010 5f496e66 6f006368 69703d6e 6f6e6520  _Info.chip=none 
 0020 6370753d 6e6f6e65 2070653d 2d312066  cpu=none pe=-1 f
 0030 633d2d31 206c323d 2d31206c 31636c3d  c=-1 l2=-1 l1cl=
 0040 2d31206c 3166633d 2d310000 0000      -1 l1fc=-1....  
Contents of section .debug_line:
 0000 ac000000 02006600 00000101 fb0e0d00  ......f.........
 0010 01010101 00000001 0000012f 686f6d65  .........../home
 0020 2f646576 616e2f53 6f432f70 756c702d  /devan/SoC/pulp-
 0030 72697363 762d676e 752d746f 6f6c6368  riscv-gnu-toolch
 0040 61696e2f 72697363 762d6763 632f6c69  ain/riscv-gcc/li
 0050 62676363 2f636f6e 6669672f 72697363  bgcc/config/risc
 0060 7600006d 756c6469 332e5300 01000000  v..muldi3.S.....
 0070 00050230 01001003 23010301 09020001  ...0....#.......
 0080 03020902 00010301 09040001 03010902  ................
 0090 00010302 09020001 03010902 00010301  ................
 00a0 09020001 03010902 00010902 00000101  ................
 00b0 82010000 02006300 00000101 fb0e0d00  ......c.........
 00c0 01010101 00000001 0000012f 686f6d65  .........../home
 00d0 2f646576 616e2f53 6f432f70 756c702d  /devan/SoC/pulp-
 00e0 72697363 762d676e 752d746f 6f6c6368  riscv-gnu-toolch
 00f0 61696e2f 72697363 762d6763 632f6c69  ain/riscv-gcc/li
 0100 62676363 2f636f6e 6669672f 72697363  bgcc/config/risc
 0110 76000064 69762e53 00010000 00000502  v..div.S........
 0120 48010010 03c50001 03010904 00010305  H...............
 0130 09040001 03010902 00010301 09020001  ................
 0140 03010902 00010301 09020001 03010902  ................
 0150 00010302 09040001 03010904 00010301  ................
 0160 09020001 03010902 00010302 09040001  ................
 0170 03020902 00010301 09040001 03010902  ................
 0180 00010302 09020001 03010902 00010301  ................
 0190 09020001 03020902 00010305 09020001  ................
 01a0 03010902 00010301 09020001 03010902  ................
 01b0 00010304 09020001 03010904 00010301  ................
 01c0 09040001 03010904 00010302 09020001  ................
 01d0 03020904 00010301 09020001 03010902  ................
 01e0 00010301 09040001 03040902 00010301  ................
 01f0 09020001 03010904 00010302 09040001  ................
 0200 03010902 00010301 09020001 03020902  ................
 0210 00010301 09040001 03020904 00010301  ................
 0220 09040001 03010902 00010301 09040001  ................
 0230 09020000 0101                        ......          
Contents of section .debug_info:
 0000 d0000000 02000000 00000401 00000000  ................
 0010 30010010 44010010 2f686f6d 652f6465  0...D.../home/de
 0020 76616e2f 536f432f 70756c70 2d726973  van/SoC/pulp-ris
 0030 63762d67 6e752d74 6f6f6c63 6861696e  cv-gnu-toolchain
 0040 2f726973 63762d67 63632f6c 69626763  /riscv-gcc/libgc
 0050 632f636f 6e666967 2f726973 63762f6d  c/config/riscv/m
 0060 756c6469 332e5300 2f686f6d 652f6465  uldi3.S./home/de
 0070 76616e2f 536f432f 70756c70 2d726973  van/SoC/pulp-ris
 0080 63762d67 6e752d74 6f6f6c63 6861696e  cv-gnu-toolchain
 0090 2f627569 6c642d67 63632d6e 65776c69  /build-gcc-newli
 00a0 622d7374 61676532 2f726973 63763332  b-stage2/riscv32
 00b0 2d756e6b 6e6f776e 2d656c66 2f6c6962  -unknown-elf/lib
 00c0 67636300 474e5520 41532032 2e32382e  gcc.GNU AS 2.28.
 00d0 30000180 cd000000 02001400 00000401  0...............
 00e0 b0000000 48010010 c4010010 2f686f6d  ....H......./hom
 00f0 652f6465 76616e2f 536f432f 70756c70  e/devan/SoC/pulp
 0100 2d726973 63762d67 6e752d74 6f6f6c63  -riscv-gnu-toolc
 0110 6861696e 2f726973 63762d67 63632f6c  hain/riscv-gcc/l
 0120 69626763 632f636f 6e666967 2f726973  ibgcc/config/ris
 0130 63762f64 69762e53 002f686f 6d652f64  cv/div.S./home/d
 0140 6576616e 2f536f43 2f70756c 702d7269  evan/SoC/pulp-ri
 0150 7363762d 676e752d 746f6f6c 63686169  scv-gnu-toolchai
 0160 6e2f6275 696c642d 6763632d 6e65776c  n/build-gcc-newl
 0170 69622d73 74616765 322f7269 73637633  ib-stage2/riscv3
 0180 322d756e 6b6e6f77 6e2d656c 662f6c69  2-unknown-elf/li
 0190 62676363 00474e55 20415320 322e3238  bgcc.GNU AS 2.28
 01a0 2e300001 80                          .0...           
Contents of section .debug_abbrev:
 0000 01110010 06110112 0103081b 08250813  .............%..
 0010 05000000 01110010 06110112 0103081b  ................
 0020 08250813 05000000                    .%......        
Contents of section .debug_aranges:
 0000 1c000000 02000000 00000400 00000000  ................
 0010 30010010 14000000 00000000 00000000  0...............
 0020 1c000000 0200d400 00000400 00000000  ................
 0030 48010010 7c000000 00000000 00000000  H...|...........

Disassembly of section .text._start:

10000000 <_start>:
10000000:	00001197          	auipc	gp,0x1
10000004:	80018193          	addi	gp,gp,-2048 # 10000800 <__global_pointer>
10000008:	00001117          	auipc	sp,0x1
1000000c:	ff810113          	addi	sp,sp,-8 # 10001000 <__stack_pointer>
10000010:	00000093          	li	ra,0
10000014:	00000213          	li	tp,0
10000018:	00000293          	li	t0,0
1000001c:	00000313          	li	t1,0
10000020:	00000393          	li	t2,0
10000024:	00000413          	li	s0,0
10000028:	00000493          	li	s1,0
1000002c:	00000513          	li	a0,0
10000030:	00000593          	li	a1,0
10000034:	00000613          	li	a2,0
10000038:	00000693          	li	a3,0
1000003c:	00000713          	li	a4,0
10000040:	00000793          	li	a5,0
10000044:	184000ef          	jal	ra,100001c8 <main>

10000048 <_eoc>:
10000048:	f3000297          	auipc	t0,0xf3000
1000004c:	fc028293          	addi	t0,t0,-64 # 3000008 <status>
10000050:	00a2a023          	sw	a0,0(t0)
10000054:	10500073          	wfi

Disassembly of section .misc:

10000058 <fir_coeff>:
10000058:	f9ce                	fsw	fs3,240(sp)
1000005a:	040d                	addi	s0,s0,3
1000005c:	087d                	addi	a6,a6,31
1000005e:	0210                	addi	a2,sp,256
10000060:	f640                	fsw	fs0,44(a2)
10000062:	faa6                	fsw	fs1,116(sp)
10000064:	35661787          	0x35661787
10000068:	3566                	fld	fa0,120(sp)
1000006a:	faa61787          	0xfaa61787
1000006e:	f640                	fsw	fs0,44(a2)
10000070:	0210                	addi	a2,sp,256
10000072:	087d                	addi	a6,a6,31
10000074:	040d                	addi	s0,s0,3
10000076:	f9ce                	fsw	fs3,240(sp)
10000078:	6425                	lui	s0,0x9
1000007a:	2520                	fld	fs0,72(a0)
1000007c:	0d64                	addi	s1,sp,668
1000007e:	000a                	0xa

10000080 <test_input>:
10000080:	fde6                	fsw	fs9,248(sp)
10000082:	03d00363          	beq	zero,t4,100000a8 <test_input+0x28>
10000086:	0151                	addi	sp,sp,20
10000088:	fc1c                	fsw	fa5,56(s0)
1000008a:	fdf5                	bnez	a1,10000086 <test_input+0x6>
1000008c:	0395faef          	jal	s5,1005f8c4 <__stack_pointer+0x5e8c4>
10000090:	00b1                	addi	ra,ra,12
10000092:	fdb002f3          	0xfdb002f3
10000096:	0734                	addi	a3,sp,904
10000098:	0719                	addi	a4,a4,6
1000009a:	ff84                	fsw	fs1,56(a5)
1000009c:	fba9                	bnez	a5,fffffee <status+0xcffffe6>
1000009e:	000efd57          	pv.add.sci.b	s10,t4,0
100000a2:	ffc4                	fsw	fs1,60(a5)
100000a4:	0132fd6b          	0x132fd6b
100000a8:	fafefe67          	0xfafefe67
100000ac:	ffbffee3          	bleu	s11,t6,100000a8 <test_input+0x28>
100000b0:	03e8                	addi	a0,sp,460
100000b2:	fcdf 005c 0112      	0x112005cfcdf
100000b8:	f7aa                	fsw	fa0,236(sp)
100000ba:	0194                	addi	a3,sp,192
100000bc:	fc41                	bnez	s0,10000054 <_eoc+0xc>
100000be:	feba                	fsw	fa4,124(sp)
100000c0:	060309af          	0x60309af
100000c4:	ff60033b          	0xff60033b
100000c8:	fca6                	fsw	fs1,120(sp)
100000ca:	018e                	slli	gp,gp,0x3
100000cc:	ff1f fadd ffea      	0xffeafaddff1f
100000d2:	fc90                	fsw	fa2,56(s1)
100000d4:	0455                	addi	s0,s0,21
100000d6:	fe30                	fsw	fa2,120(a2)
100000d8:	0299                	addi	t0,t0,6
100000da:	fdee                	fsw	fs11,248(sp)
100000dc:	0029                	c.addi	zero,10
100000de:	febf009b          	0xfebf009b
100000e2:	0862                	slli	a6,a6,0x18
100000e4:	0320                	addi	s0,sp,392
100000e6:	04ac                	addi	a1,sp,584
100000e8:	0832                	slli	a6,a6,0xc
100000ea:	0184                	addi	s1,sp,192
100000ec:	0415                	addi	s0,s0,5
100000ee:	faa4                	fsw	fs1,112(a3)
100000f0:	fc42                	fsw	fa6,56(sp)
100000f2:	fcddf593          	andi	a1,s11,-51
100000f6:	fe3d                	bnez	a2,10000074 <fir_coeff+0x1c>

100000f8 <hex_symbols>:
100000f8:	3130                	fld	fa2,96(a0)
100000fa:	3332                	fld	ft6,296(sp)
100000fc:	3534                	fld	fa3,104(a0)
100000fe:	3736                	fld	fa4,360(sp)
10000100:	3938                	fld	fa4,112(a0)
10000102:	4241                	li	tp,16
10000104:	46454443          	0x46454443
10000108:	6e28                	flw	fa0,88(a2)
1000010a:	6c75                	lui	s8,0x1d
1000010c:	296c                	fld	fa1,208(a0)
	...

10000110 <fir_state>:
	...

Disassembly of section .text:

10000130 <__mulsi3>:
10000130:	862a                	mv	a2,a0
10000132:	4501                	li	a0,0
10000134:	0015f693          	andi	a3,a1,1
10000138:	c291                	beqz	a3,1000013c <__mulsi3+0xc>
1000013a:	9532                	add	a0,a0,a2
1000013c:	8185                	srli	a1,a1,0x1
1000013e:	0606                	slli	a2,a2,0x1
10000140:	f9f5                	bnez	a1,10000134 <__mulsi3+0x4>
10000142:	8082                	ret
10000144:	0000                	unimp
	...

10000148 <__divsi3>:
10000148:	02054e63          	bltz	a0,10000184 <__umodsi3+0x8>
1000014c:	0405c363          	bltz	a1,10000192 <__umodsi3+0x16>

10000150 <__udivsi3>:
10000150:	862e                	mv	a2,a1
10000152:	85aa                	mv	a1,a0
10000154:	557d                	li	a0,-1
10000156:	c215                	beqz	a2,1000017a <__udivsi3+0x2a>
10000158:	4685                	li	a3,1
1000015a:	00b67863          	bleu	a1,a2,1000016a <__udivsi3+0x1a>
1000015e:	00c05663          	blez	a2,1000016a <__udivsi3+0x1a>
10000162:	0606                	slli	a2,a2,0x1
10000164:	0686                	slli	a3,a3,0x1
10000166:	feb66ce3          	bltu	a2,a1,1000015e <__udivsi3+0xe>
1000016a:	4501                	li	a0,0
1000016c:	00c5e463          	bltu	a1,a2,10000174 <__udivsi3+0x24>
10000170:	8d91                	sub	a1,a1,a2
10000172:	8d55                	or	a0,a0,a3
10000174:	8285                	srli	a3,a3,0x1
10000176:	8205                	srli	a2,a2,0x1
10000178:	faf5                	bnez	a3,1000016c <__udivsi3+0x1c>
1000017a:	8082                	ret

1000017c <__umodsi3>:
1000017c:	8286                	mv	t0,ra
1000017e:	3fc9                	jal	10000150 <__udivsi3>
10000180:	852e                	mv	a0,a1
10000182:	8282                	jr	t0
10000184:	40a00533          	neg	a0,a0
10000188:	0005d763          	bgez	a1,10000196 <__umodsi3+0x1a>
1000018c:	40b005b3          	neg	a1,a1
10000190:	b7c1                	j	10000150 <__udivsi3>
10000192:	40b005b3          	neg	a1,a1
10000196:	8286                	mv	t0,ra
10000198:	3f65                	jal	10000150 <__udivsi3>
1000019a:	40a00533          	neg	a0,a0
1000019e:	8282                	jr	t0

100001a0 <__modsi3>:
100001a0:	8286                	mv	t0,ra
100001a2:	0005c763          	bltz	a1,100001b0 <__modsi3+0x10>
100001a6:	00054963          	bltz	a0,100001b8 <__modsi3+0x18>
100001aa:	375d                	jal	10000150 <__udivsi3>
100001ac:	852e                	mv	a0,a1
100001ae:	8282                	jr	t0
100001b0:	40b005b3          	neg	a1,a1
100001b4:	fe055be3          	bgez	a0,100001aa <__modsi3+0xa>
100001b8:	40a00533          	neg	a0,a0
100001bc:	3f51                	jal	10000150 <__udivsi3>
100001be:	40b00533          	neg	a0,a1
100001c2:	8282                	jr	t0
100001c4:	0000                	unimp
	...

100001c8 <main>:
100001c8:	fa010113          	addi	sp,sp,-96
100001cc:	05612023          	sw	s6,64(sp)
100001d0:	03912a23          	sw	s9,52(sp)
100001d4:	04112e23          	sw	ra,92(sp)
100001d8:	00000c97          	auipc	s9,0x0
100001dc:	f38c8c93          	addi	s9,s9,-200 # 10000110 <fir_state>
100001e0:	04812c23          	sw	s0,88(sp)
100001e4:	04912a23          	sw	s1,84(sp)
100001e8:	05212823          	sw	s2,80(sp)
100001ec:	05312623          	sw	s3,76(sp)
100001f0:	05412423          	sw	s4,72(sp)
100001f4:	05512223          	sw	s5,68(sp)
100001f8:	03712e23          	sw	s7,60(sp)
100001fc:	03812c23          	sw	s8,56(sp)
10000200:	03a12823          	sw	s10,48(sp)
10000204:	03b12623          	sw	s11,44(sp)
10000208:	4e4000ef          	jal	ra,100006ec <uart_init>
1000020c:	000c8713          	mv	a4,s9
10000210:	00000793          	li	a5,0
10000214:	000c8b13          	mv	s6,s9
10000218:	01000693          	li	a3,16
1000021c:	00071023          	sh	zero,0(a4)
10000220:	00178793          	addi	a5,a5,1
10000224:	00270713          	addi	a4,a4,2
10000228:	fed79ae3          	bne	a5,a3,1000021c <main+0x54>
1000022c:	00002937          	lui	s2,0x2
10000230:	000189b7          	lui	s3,0x18
10000234:	02000a93          	li	s5,32
10000238:	00000b97          	auipc	s7,0x0
1000023c:	e40b8b93          	addi	s7,s7,-448 # 10000078 <fir_coeff+0x20>
10000240:	70f90913          	addi	s2,s2,1807 # 270f <status-0x2ffd8f9>
10000244:	69f98993          	addi	s3,s3,1695 # 1869f <status-0x2fe7969>
10000248:	00000a17          	auipc	s4,0x0
1000024c:	e38a0a13          	addi	s4,s4,-456 # 10000080 <test_input>
10000250:	00000d93          	li	s11,0
10000254:	03c00c13          	li	s8,60
10000258:	000a1683          	lh	a3,0(s4)
1000025c:	00000797          	auipc	a5,0x0
10000260:	ed278793          	addi	a5,a5,-302 # 1000012e <fir_state+0x1e>
10000264:	ffe7d603          	lhu	a2,-2(a5)
10000268:	ffe78793          	addi	a5,a5,-2
1000026c:	00c79123          	sh	a2,2(a5)
10000270:	ff979ae3          	bne	a5,s9,10000264 <main+0x9c>
10000274:	00000717          	auipc	a4,0x0
10000278:	e8d71e23          	sh	a3,-356(a4) # 10000110 <fir_state>
1000027c:	00000493          	li	s1,0
10000280:	00000413          	li	s0,0
10000284:	00000d13          	li	s10,0
10000288:	00000717          	auipc	a4,0x0
1000028c:	dd070713          	addi	a4,a4,-560 # 10000058 <fir_coeff>
10000290:	009707b3          	add	a5,a4,s1
10000294:	009b0633          	add	a2,s6,s1
10000298:	00061583          	lh	a1,0(a2)
1000029c:	00079503          	lh	a0,0(a5)
100002a0:	00d12623          	sw	a3,12(sp)
100002a4:	e8dff0ef          	jal	ra,10000130 <__mulsi3>
100002a8:	41f55613          	srai	a2,a0,0x1f
100002ac:	00a40533          	add	a0,s0,a0
100002b0:	008537b3          	sltu	a5,a0,s0
100002b4:	00cd0d33          	add	s10,s10,a2
100002b8:	00248493          	addi	s1,s1,2
100002bc:	00050413          	mv	s0,a0
100002c0:	01a78d33          	add	s10,a5,s10
100002c4:	00c12683          	lw	a3,12(sp)
100002c8:	fd5490e3          	bne	s1,s5,10000288 <main+0xc0>
100002cc:	00f55613          	srli	a2,a0,0xf
100002d0:	01061613          	slli	a2,a2,0x10
100002d4:	41065613          	srai	a2,a2,0x10
100002d8:	00068593          	mv	a1,a3
100002dc:	000b8513          	mv	a0,s7
100002e0:	1c0000ef          	jal	ra,100004a0 <printf>
100002e4:	00012c23          	sw	zero,24(sp)
100002e8:	01812783          	lw	a5,24(sp)
100002ec:	02f95e63          	ble	a5,s2,10000328 <main+0x160>
100002f0:	001d8d93          	addi	s11,s11,1
100002f4:	002a0a13          	addi	s4,s4,2
100002f8:	f78d90e3          	bne	s11,s8,10000258 <main+0x90>
100002fc:	00012e23          	sw	zero,28(sp)
10000300:	01c12783          	lw	a5,28(sp)
10000304:	02f9da63          	ble	a5,s3,10000338 <main+0x170>
10000308:	000c8713          	mv	a4,s9
1000030c:	00000793          	li	a5,0
10000310:	01000693          	li	a3,16
10000314:	00071023          	sh	zero,0(a4)
10000318:	00178793          	addi	a5,a5,1
1000031c:	00270713          	addi	a4,a4,2
10000320:	fed79ae3          	bne	a5,a3,10000314 <main+0x14c>
10000324:	f25ff06f          	j	10000248 <main+0x80>
10000328:	01812783          	lw	a5,24(sp)
1000032c:	00178793          	addi	a5,a5,1
10000330:	00f12c23          	sw	a5,24(sp)
10000334:	fb5ff06f          	j	100002e8 <main+0x120>
10000338:	01c12783          	lw	a5,28(sp)
1000033c:	00178793          	addi	a5,a5,1
10000340:	00f12e23          	sw	a5,28(sp)
10000344:	fbdff06f          	j	10000300 <main+0x138>

10000348 <print_reversed_with_padding>:
10000348:	fe010113          	addi	sp,sp,-32
1000034c:	00812c23          	sw	s0,24(sp)
10000350:	01212823          	sw	s2,16(sp)
10000354:	00112e23          	sw	ra,28(sp)
10000358:	00912a23          	sw	s1,20(sp)
1000035c:	00050913          	mv	s2,a0
10000360:	00058413          	mv	s0,a1
10000364:	02c46463          	bltu	s0,a2,1000038c <print_reversed_with_padding+0x44>
10000368:	fff00493          	li	s1,-1
1000036c:	fff40413          	addi	s0,s0,-1 # 8fff <status-0x2ff7009>
10000370:	04941063          	bne	s0,s1,100003b0 <print_reversed_with_padding+0x68>
10000374:	01c12083          	lw	ra,28(sp)
10000378:	01812403          	lw	s0,24(sp)
1000037c:	01412483          	lw	s1,20(sp)
10000380:	01012903          	lw	s2,16(sp)
10000384:	02010113          	addi	sp,sp,32
10000388:	00008067          	ret
1000038c:	00068513          	mv	a0,a3
10000390:	00c12623          	sw	a2,12(sp)
10000394:	00d12423          	sw	a3,8(sp)
10000398:	3a0000ef          	jal	ra,10000738 <putchar>
1000039c:	00c12603          	lw	a2,12(sp)
100003a0:	00812683          	lw	a3,8(sp)
100003a4:	fff60613          	addi	a2,a2,-1
100003a8:	0ff67613          	andi	a2,a2,255
100003ac:	fb9ff06f          	j	10000364 <print_reversed_with_padding+0x1c>
100003b0:	008907b3          	add	a5,s2,s0
100003b4:	0007c503          	lbu	a0,0(a5)
100003b8:	380000ef          	jal	ra,10000738 <putchar>
100003bc:	fb1ff06f          	j	1000036c <print_reversed_with_padding+0x24>

100003c0 <format_dec32>:
100003c0:	fe010113          	addi	sp,sp,-32
100003c4:	01312623          	sw	s3,12(sp)
100003c8:	00112e23          	sw	ra,28(sp)
100003cc:	00812c23          	sw	s0,24(sp)
100003d0:	00912a23          	sw	s1,20(sp)
100003d4:	01212823          	sw	s2,16(sp)
100003d8:	00050993          	mv	s3,a0
100003dc:	06058263          	beqz	a1,10000440 <format_dec32+0x80>
100003e0:	00058493          	mv	s1,a1
100003e4:	00000793          	li	a5,0
100003e8:	00a00593          	li	a1,10
100003ec:	00048513          	mv	a0,s1
100003f0:	00178413          	addi	s0,a5,1
100003f4:	00f98933          	add	s2,s3,a5
100003f8:	d85ff0ef          	jal	ra,1000017c <__umodsi3>
100003fc:	03050513          	addi	a0,a0,48
10000400:	00a90023          	sb	a0,0(s2)
10000404:	00a00593          	li	a1,10
10000408:	00048513          	mv	a0,s1
1000040c:	d45ff0ef          	jal	ra,10000150 <__udivsi3>
10000410:	0ff47413          	andi	s0,s0,255
10000414:	00050493          	mv	s1,a0
10000418:	00040793          	mv	a5,s0
1000041c:	fc0516e3          	bnez	a0,100003e8 <format_dec32+0x28>
10000420:	00040513          	mv	a0,s0
10000424:	01c12083          	lw	ra,28(sp)
10000428:	01812403          	lw	s0,24(sp)
1000042c:	01412483          	lw	s1,20(sp)
10000430:	01012903          	lw	s2,16(sp)
10000434:	00c12983          	lw	s3,12(sp)
10000438:	02010113          	addi	sp,sp,32
1000043c:	00008067          	ret
10000440:	03000793          	li	a5,48
10000444:	00f50023          	sb	a5,0(a0)
10000448:	00100413          	li	s0,1
1000044c:	fd5ff06f          	j	10000420 <format_dec32+0x60>

10000450 <format_hex32>:
10000450:	04058063          	beqz	a1,10000490 <format_hex32+0x40>
10000454:	00000713          	li	a4,0
10000458:	00000617          	auipc	a2,0x0
1000045c:	ca060613          	addi	a2,a2,-864 # 100000f8 <hex_symbols>
10000460:	00f5f693          	andi	a3,a1,15
10000464:	00d606b3          	add	a3,a2,a3
10000468:	0006c683          	lbu	a3,0(a3)
1000046c:	00170793          	addi	a5,a4,1
10000470:	00e50733          	add	a4,a0,a4
10000474:	0ff7f793          	andi	a5,a5,255
10000478:	00d70023          	sb	a3,0(a4)
1000047c:	0045d593          	srli	a1,a1,0x4
10000480:	00078713          	mv	a4,a5
10000484:	fc059ee3          	bnez	a1,10000460 <format_hex32+0x10>
10000488:	00078513          	mv	a0,a5
1000048c:	00008067          	ret
10000490:	03000793          	li	a5,48
10000494:	00f50023          	sb	a5,0(a0)
10000498:	00100793          	li	a5,1
1000049c:	fedff06f          	j	10000488 <format_hex32+0x38>

100004a0 <printf>:
100004a0:	f8010113          	addi	sp,sp,-128
100004a4:	06f12a23          	sw	a5,116(sp)
100004a8:	06410793          	addi	a5,sp,100
100004ac:	04812c23          	sw	s0,88(sp)
100004b0:	05412423          	sw	s4,72(sp)
100004b4:	05512223          	sw	s5,68(sp)
100004b8:	05612023          	sw	s6,64(sp)
100004bc:	03712e23          	sw	s7,60(sp)
100004c0:	03812c23          	sw	s8,56(sp)
100004c4:	04112e23          	sw	ra,92(sp)
100004c8:	04912a23          	sw	s1,84(sp)
100004cc:	05212823          	sw	s2,80(sp)
100004d0:	05312623          	sw	s3,76(sp)
100004d4:	00050413          	mv	s0,a0
100004d8:	06b12223          	sw	a1,100(sp)
100004dc:	06c12423          	sw	a2,104(sp)
100004e0:	06d12623          	sw	a3,108(sp)
100004e4:	06e12823          	sw	a4,112(sp)
100004e8:	07012c23          	sw	a6,120(sp)
100004ec:	07112e23          	sw	a7,124(sp)
100004f0:	02f12023          	sw	a5,32(sp)
100004f4:	02500a13          	li	s4,37
100004f8:	03000a93          	li	s5,48
100004fc:	00900b93          	li	s7,9
10000500:	07300b13          	li	s6,115
10000504:	fff00c13          	li	s8,-1
10000508:	00044503          	lbu	a0,0(s0)
1000050c:	02051a63          	bnez	a0,10000540 <printf+0xa0>
10000510:	05c12083          	lw	ra,92(sp)
10000514:	05812403          	lw	s0,88(sp)
10000518:	05412483          	lw	s1,84(sp)
1000051c:	05012903          	lw	s2,80(sp)
10000520:	04c12983          	lw	s3,76(sp)
10000524:	04812a03          	lw	s4,72(sp)
10000528:	04412a83          	lw	s5,68(sp)
1000052c:	04012b03          	lw	s6,64(sp)
10000530:	03c12b83          	lw	s7,60(sp)
10000534:	03812c03          	lw	s8,56(sp)
10000538:	08010113          	addi	sp,sp,128
1000053c:	00008067          	ret
10000540:	17451063          	bne	a0,s4,100006a0 <printf+0x200>
10000544:	00144783          	lbu	a5,1(s0)
10000548:	01479a63          	bne	a5,s4,1000055c <printf+0xbc>
1000054c:	02500513          	li	a0,37
10000550:	1e8000ef          	jal	ra,10000738 <putchar>
10000554:	00240413          	addi	s0,s0,2
10000558:	fb1ff06f          	j	10000508 <printf+0x68>
1000055c:	07578a63          	beq	a5,s5,100005d0 <printf+0x130>
10000560:	00140413          	addi	s0,s0,1
10000564:	02000993          	li	s3,32
10000568:	00000913          	li	s2,0
1000056c:	00044483          	lbu	s1,0(s0)
10000570:	fd048793          	addi	a5,s1,-48
10000574:	0ff7f793          	andi	a5,a5,255
10000578:	06fbf263          	bleu	a5,s7,100005dc <printf+0x13c>
1000057c:	13648663          	beq	s1,s6,100006a8 <printf+0x208>
10000580:	069b6e63          	bltu	s6,s1,100005fc <printf+0x15c>
10000584:	06300793          	li	a5,99
10000588:	10f48463          	beq	s1,a5,10000690 <printf+0x1f0>
1000058c:	06400793          	li	a5,100
10000590:	0cf48a63          	beq	s1,a5,10000664 <printf+0x1c4>
10000594:	02500513          	li	a0,37
10000598:	1a0000ef          	jal	ra,10000738 <putchar>
1000059c:	01599663          	bne	s3,s5,100005a8 <printf+0x108>
100005a0:	03000513          	li	a0,48
100005a4:	194000ef          	jal	ra,10000738 <putchar>
100005a8:	00090e63          	beqz	s2,100005c4 <printf+0x124>
100005ac:	00090593          	mv	a1,s2
100005b0:	01c10513          	addi	a0,sp,28
100005b4:	e0dff0ef          	jal	ra,100003c0 <format_dec32>
100005b8:	00050493          	mv	s1,a0
100005bc:	fff48493          	addi	s1,s1,-1
100005c0:	11849c63          	bne	s1,s8,100006d8 <printf+0x238>
100005c4:	00044503          	lbu	a0,0(s0)
100005c8:	06050863          	beqz	a0,10000638 <printf+0x198>
100005cc:	0d40006f          	j	100006a0 <printf+0x200>
100005d0:	00240413          	addi	s0,s0,2
100005d4:	03000993          	li	s3,48
100005d8:	f91ff06f          	j	10000568 <printf+0xc8>
100005dc:	00090513          	mv	a0,s2
100005e0:	00a00593          	li	a1,10
100005e4:	b4dff0ef          	jal	ra,10000130 <__mulsi3>
100005e8:	00a48533          	add	a0,s1,a0
100005ec:	fd050613          	addi	a2,a0,-48
100005f0:	0ff67913          	andi	s2,a2,255
100005f4:	00140413          	addi	s0,s0,1
100005f8:	f75ff06f          	j	1000056c <printf+0xcc>
100005fc:	07500793          	li	a5,117
10000600:	04f48463          	beq	s1,a5,10000648 <printf+0x1a8>
10000604:	07800793          	li	a5,120
10000608:	f8f496e3          	bne	s1,a5,10000594 <printf+0xf4>
1000060c:	02012783          	lw	a5,32(sp)
10000610:	02410513          	addi	a0,sp,36
10000614:	0007a583          	lw	a1,0(a5)
10000618:	00478713          	addi	a4,a5,4
1000061c:	02e12023          	sw	a4,32(sp)
10000620:	e31ff0ef          	jal	ra,10000450 <format_hex32>
10000624:	00050593          	mv	a1,a0
10000628:	00098693          	mv	a3,s3
1000062c:	00090613          	mv	a2,s2
10000630:	02410513          	addi	a0,sp,36
10000634:	d15ff0ef          	jal	ra,10000348 <print_reversed_with_padding>
10000638:	00044783          	lbu	a5,0(s0)
1000063c:	ec0786e3          	beqz	a5,10000508 <printf+0x68>
10000640:	00140413          	addi	s0,s0,1
10000644:	ec5ff06f          	j	10000508 <printf+0x68>
10000648:	02012783          	lw	a5,32(sp)
1000064c:	00478713          	addi	a4,a5,4
10000650:	0007a583          	lw	a1,0(a5)
10000654:	02e12023          	sw	a4,32(sp)
10000658:	02410513          	addi	a0,sp,36
1000065c:	d65ff0ef          	jal	ra,100003c0 <format_dec32>
10000660:	fc5ff06f          	j	10000624 <printf+0x184>
10000664:	02012783          	lw	a5,32(sp)
10000668:	00478713          	addi	a4,a5,4
1000066c:	0007a583          	lw	a1,0(a5)
10000670:	02e12023          	sw	a4,32(sp)
10000674:	fe05d2e3          	bgez	a1,10000658 <printf+0x1b8>
10000678:	02d00513          	li	a0,45
1000067c:	00b12623          	sw	a1,12(sp)
10000680:	0b8000ef          	jal	ra,10000738 <putchar>
10000684:	00c12583          	lw	a1,12(sp)
10000688:	40b005b3          	neg	a1,a1
1000068c:	fcdff06f          	j	10000658 <printf+0x1b8>
10000690:	02012783          	lw	a5,32(sp)
10000694:	00478713          	addi	a4,a5,4
10000698:	0007c503          	lbu	a0,0(a5)
1000069c:	02e12023          	sw	a4,32(sp)
100006a0:	098000ef          	jal	ra,10000738 <putchar>
100006a4:	f95ff06f          	j	10000638 <printf+0x198>
100006a8:	02012783          	lw	a5,32(sp)
100006ac:	00478713          	addi	a4,a5,4
100006b0:	0007a483          	lw	s1,0(a5)
100006b4:	02e12023          	sw	a4,32(sp)
100006b8:	00049663          	bnez	s1,100006c4 <printf+0x224>
100006bc:	00000497          	auipc	s1,0x0
100006c0:	a4c48493          	addi	s1,s1,-1460 # 10000108 <hex_symbols+0x10>
100006c4:	0004c503          	lbu	a0,0(s1)
100006c8:	f60508e3          	beqz	a0,10000638 <printf+0x198>
100006cc:	00148493          	addi	s1,s1,1
100006d0:	068000ef          	jal	ra,10000738 <putchar>
100006d4:	ff1ff06f          	j	100006c4 <printf+0x224>
100006d8:	01c10713          	addi	a4,sp,28
100006dc:	009707b3          	add	a5,a4,s1
100006e0:	0007c503          	lbu	a0,0(a5)
100006e4:	054000ef          	jal	ra,10000738 <putchar>
100006e8:	ed5ff06f          	j	100005bc <printf+0x11c>

100006ec <uart_init>:
100006ec:	030027b7          	lui	a5,0x3002
100006f0:	00078223          	sb	zero,4(a5) # 3002004 <status+0x1ffc>
100006f4:	f8000713          	li	a4,-128
100006f8:	00e78623          	sb	a4,12(a5)
100006fc:	03400713          	li	a4,52
10000700:	00e78023          	sb	a4,0(a5)
10000704:	00078223          	sb	zero,4(a5)
10000708:	00300713          	li	a4,3
1000070c:	00e78623          	sb	a4,12(a5)
10000710:	fc700713          	li	a4,-57
10000714:	00e78423          	sb	a4,8(a5)
10000718:	00078823          	sb	zero,16(a5)
1000071c:	00008067          	ret

10000720 <uart_write>:
10000720:	03002737          	lui	a4,0x3002
10000724:	01474783          	lbu	a5,20(a4) # 3002014 <status+0x200c>
10000728:	0207f793          	andi	a5,a5,32
1000072c:	fe078ce3          	beqz	a5,10000724 <uart_write+0x4>
10000730:	00a70023          	sb	a0,0(a4)
10000734:	00008067          	ret

10000738 <putchar>:
10000738:	fe9ff06f          	j	10000720 <uart_write>

Disassembly of section .Pulp_Chip.Info:

00000000 <.Pulp_Chip.Info>:
   0:	000a                	0xa
   2:	0000                	unimp
   4:	0038                	addi	a4,sp,8
   6:	0000                	unimp
   8:	0001                	nop
   a:	0000                	unimp
   c:	7550                	flw	fa2,44(a0)
   e:	706c                	flw	fa1,100(s0)
  10:	495f 666e 006f      	0x6f666e495f
  16:	70696863          	bltu	s2,t1,726 <status-0x2fff8e2>
  1a:	6e3d                	lui	t3,0xf
  1c:	20656e6f          	jal	t3,56222 <status-0x2fa9de6>
  20:	3d757063          	bleu	s7,a0,3e0 <status-0x2fffc28>
  24:	6f6e                	flw	ft10,216(sp)
  26:	656e                	flw	fa0,216(sp)
  28:	7020                	flw	fs0,96(s0)
  2a:	3d65                	jal	fffffee2 <pulp__FC+0xfffffee3>
  2c:	312d                	jal	fffffc56 <pulp__FC+0xfffffc57>
  2e:	6620                	flw	fs0,72(a2)
  30:	312d3d63          	p.bneimm	s10,-14,34a <status-0x2fffcbe>
  34:	6c20                	flw	fs0,88(s0)
  36:	3d32                	fld	fs10,296(sp)
  38:	312d                	jal	fffffc62 <pulp__FC+0xfffffc63>
  3a:	6c20                	flw	fs0,88(s0)
  3c:	6331                	lui	t1,0xc
  3e:	3d6c                	fld	fa1,248(a0)
  40:	312d                	jal	fffffc6a <pulp__FC+0xfffffc6b>
  42:	6c20                	flw	fs0,88(s0)
  44:	6631                	lui	a2,0xc
  46:	312d3d63          	p.bneimm	s10,-14,360 <status-0x2fffca8>
  4a:	0000                	unimp
	...
