
bin/uart_freq_scan.elf:     file format elf32-littleriscv

Contents of section .text._start:
 10000000 97110000 93810180 17110000 130181ff  ................
 10000010 93000000 13020000 93020000 13030000  ................
 10000020 93030000 13040000 93040000 13050000  ................
 10000030 93050000 13060000 93060000 13070000  ................
 10000040 93070000 ef000029 970200f3 938202fc  .......)........
 10000050 23a0a200 73005010                    #...s.P.        
Contents of section .misc:
 10000058 34010010 26000000 01000000 54010010  4...&.......T...
 10000068 29000000 02000000 74010010 2b000000  ).......t...+...
 10000078 03000000 94010010 2e000000 04000000  ................
 10000088 b4010010 31000000 05000000 d4010010  ....1...........
 10000098 34000000 06000000 f4010010 36000000  4...........6...
 100000a8 07000000 14020010 39000000 08000000  ........9.......
 100000b8 34020010 3c000000 09000000 54020010  4...<.......T...
 100000c8 3f000000 0a000000 74020010 41000000  ?.......t...A...
 100000d8 0b000000 3d3d3d20 55415254 20465245  ....=== UART FRE
 100000e8 51205343 414e203d 3d3d0000 49662074  Q SCAN ===..If t
 100000f8 68697320 6c696e65 20697320 72656164  his line is read
 10000108 61626c65 2c207468 69732064 69766973  able, this divis
 10000118 6f72206d 61746368 65732079 6f757220  or matches your 
 10000128 536f4320 636c6f63 6b2e0000 434c4b3d  SoC clock...CLK=
 10000138 37304d48 7a204241 55443d31 31353230  70MHz BAUD=11520
 10000148 30204449 563d3338 00000000 434c4b3d  0 DIV=38....CLK=
 10000158 37354d48 7a204241 55443d31 31353230  75MHz BAUD=11520
 10000168 30204449 563d3431 00000000 434c4b3d  0 DIV=41....CLK=
 10000178 38304d48 7a204241 55443d31 31353230  80MHz BAUD=11520
 10000188 30204449 563d3433 00000000 434c4b3d  0 DIV=43....CLK=
 10000198 38354d48 7a204241 55443d31 31353230  85MHz BAUD=11520
 100001a8 30204449 563d3436 00000000 434c4b3d  0 DIV=46....CLK=
 100001b8 39304d48 7a204241 55443d31 31353230  90MHz BAUD=11520
 100001c8 30204449 563d3439 00000000 434c4b3d  0 DIV=49....CLK=
 100001d8 39354d48 7a204241 55443d31 31353230  95MHz BAUD=11520
 100001e8 30204449 563d3532 00000000 434c4b3d  0 DIV=52....CLK=
 100001f8 3130304d 487a2042 4155443d 31313532  100MHz BAUD=1152
 10000208 30302044 49563d35 34000000 434c4b3d  00 DIV=54...CLK=
 10000218 3130354d 487a2042 4155443d 31313532  105MHz BAUD=1152
 10000228 30302044 49563d35 37000000 434c4b3d  00 DIV=57...CLK=
 10000238 3131304d 487a2042 4155443d 31313532  110MHz BAUD=1152
 10000248 30302044 49563d36 30000000 434c4b3d  00 DIV=60...CLK=
 10000258 3131354d 487a2042 4155443d 31313532  115MHz BAUD=1152
 10000268 30302044 49563d36 33000000 434c4b3d  00 DIV=63...CLK=
 10000278 3132304d 487a2042 4155443d 31313532  120MHz BAUD=1152
 10000288 30302044 49563d36 35000000           00 DIV=65...    
Contents of section .text:
 10000294 130101ff 23248100 23261100 13040500  ....#$..#&......
 100002a4 03450400 63100502 1305d000 ef000019  .E..c...........
 100002b4 03248100 8320c100 1305a000 13010101  .$... ..........
 100002c4 6f00c017 13041400 ef004017 6ff05ffd  o.........@.o._.
 100002d4 130101fd 9305f000 1305f000 23261102  ............#&..
 100002e4 23248102 232c4101 232a5101 23286101  #$..#,A.#*Q.#(a.
 100002f4 23267101 23248101 23229101 23229102  #&q.#$..#"..#"..
 10000304 23202103 232e3101 2320a101 ef00800b  # !.#.1.# ......
 10000314 1305f000 ef00c00c 13050000 ef00800d  ................
 10000324 37240003 930c00f8 130a3000 930a7000  7$........0...p.
 10000334 970b0000 938b8bda 170c0000 130c8cdb  ................
 10000344 130bb000 97040000 938404d1 13090000  ................
 10000354 9309c400 83d74400 23020400 23809901  ......D.#...#...
 10000364 13f7f70f 2300e400 93d78700 2302f400  ....#.......#...
 10000374 23804901 23045401 23080400 03a58400  #.I.#.T.#.......
 10000384 130d6000 ef000007 13850b00 eff05ff0  ..`..........._.
 10000394 03a50400 130dfdff eff09fef 13050c00  ................
 100003a4 eff01fef ef00000b 1305c012 ef004005  ..............@.
 100003b4 e31c0dfc 13091900 9384c400 e31c69f9  ..............i.
 100003c4 6ff05ff8 b7570003 03a70700 b345b700  o._..W.......E..
 100003d4 b3f5a500 b3c5e500 23a0b700 67800000  ........#...g...
 100003e4 37570003 83270708 33e5a700 2320a708  7W...'..3...# ..
 100003f4 67800000 b7570003 23a0a718 67800000  g....W..#...g...
 10000404 b7a70003 23a00700 23a8a700 93060008  ....#...#.......
 10000414 73a04630 73600430 37270000 130757fd  s.F0s`.07'....W.
 10000424 23a0e700 73005010 03a70700 1377e7ff  #...s.P......w..
 10000434 23a0e700 73b04630 67800000 37270003  #...s.F0g...7'..
 10000444 83474701 93f70702 e38c07fe 2300a700  .GG.........#...
 10000454 67800000 37270003 83474701 93f70702  g...7'...GG.....
 10000464 e38c07fe 83474701 93f70704 e38607fe  .....GG.........
 10000474 67800000                             g...            
Contents of section .Pulp_Chip.Info:
 0000 0a000000 38000000 01000000 50756c70  ....8.......Pulp
 0010 5f496e66 6f006368 69703d6e 6f6e6520  _Info.chip=none 
 0020 6370753d 6e6f6e65 2070653d 2d312066  cpu=none pe=-1 f
 0030 633d2d31 206c323d 2d31206c 31636c3d  c=-1 l2=-1 l1cl=
 0040 2d31206c 3166633d 2d310000 0000      -1 l1fc=-1....  

Disassembly of section .text._start:

10000000 <_start>:
10000000:	00001197          	auipc	gp,0x1
10000004:	80018193          	addi	gp,gp,-2048 # 10000800 <__global_pointer>
10000008:	00001117          	auipc	sp,0x1
1000000c:	ff810113          	addi	sp,sp,-8 # 10001000 <__stack_pointer>
10000010:	00000093          	li	ra,0
10000014:	00000213          	li	tp,0
10000018:	00000293          	li	t0,0
1000001c:	00000313          	li	t1,0
10000020:	00000393          	li	t2,0
10000024:	00000413          	li	s0,0
10000028:	00000493          	li	s1,0
1000002c:	00000513          	li	a0,0
10000030:	00000593          	li	a1,0
10000034:	00000613          	li	a2,0
10000038:	00000693          	li	a3,0
1000003c:	00000713          	li	a4,0
10000040:	00000793          	li	a5,0
10000044:	290000ef          	jal	ra,100002d4 <main>

10000048 <_eoc>:
10000048:	f3000297          	auipc	t0,0xf3000
1000004c:	fc028293          	addi	t0,t0,-64 # 3000008 <status>
10000050:	00a2a023          	sw	a0,0(t0)
10000054:	10500073          	wfi

Disassembly of section .misc:

10000058 <k_probes>:
10000058:	0134                	addi	a3,sp,136
1000005a:	1000                	addi	s0,sp,32
1000005c:	0026                	0x26
1000005e:	0000                	unimp
10000060:	0001                	nop
10000062:	0000                	unimp
10000064:	0154                	addi	a3,sp,132
10000066:	1000                	addi	s0,sp,32
10000068:	0029                	c.addi	zero,10
1000006a:	0000                	unimp
1000006c:	0002                	0x2
1000006e:	0000                	unimp
10000070:	0174                	addi	a3,sp,140
10000072:	1000                	addi	s0,sp,32
10000074:	0000002b          	p.sb	zero,0(zero!) # 0 <status-0x3000008>
10000078:	00000003          	lb	zero,0(zero) # 0 <status-0x3000008>
1000007c:	0194                	addi	a3,sp,192
1000007e:	1000                	addi	s0,sp,32
10000080:	002e                	0x2e
10000082:	0000                	unimp
10000084:	0004                	addi	s1,sp,0
10000086:	0000                	unimp
10000088:	01b4                	addi	a3,sp,200
1000008a:	1000                	addi	s0,sp,32
1000008c:	0031                	c.addi	zero,12
1000008e:	0000                	unimp
10000090:	0005                	c.addi	zero,1
10000092:	0000                	unimp
10000094:	01d4                	addi	a3,sp,196
10000096:	1000                	addi	s0,sp,32
10000098:	0034                	addi	a3,sp,8
1000009a:	0000                	unimp
1000009c:	0006                	0x6
1000009e:	0000                	unimp
100000a0:	01f4                	addi	a3,sp,204
100000a2:	1000                	addi	s0,sp,32
100000a4:	0036                	0x36
100000a6:	0000                	unimp
100000a8:	00000007          	0x7
100000ac:	0214                	addi	a3,sp,256
100000ae:	1000                	addi	s0,sp,32
100000b0:	0039                	c.addi	zero,14
100000b2:	0000                	unimp
100000b4:	0008                	addi	a0,sp,0
100000b6:	0000                	unimp
100000b8:	0234                	addi	a3,sp,264
100000ba:	1000                	addi	s0,sp,32
100000bc:	003c                	addi	a5,sp,8
100000be:	0000                	unimp
100000c0:	0009                	c.addi	zero,2
100000c2:	0000                	unimp
100000c4:	0254                	addi	a3,sp,260
100000c6:	1000                	addi	s0,sp,32
100000c8:	0000003f 0000000a 	0xa0000003f
100000d0:	0274                	addi	a3,sp,268
100000d2:	1000                	addi	s0,sp,32
100000d4:	0041                	c.addi	zero,16
100000d6:	0000                	unimp
100000d8:	0000000b          	p.lb	zero,0(zero!) # 0 <status-0x3000008>
100000dc:	3d3d                	jal	fffff1a <status+0xcffff12>
100000de:	203d                	jal	1000010c <k_probes+0xb4>
100000e0:	4155                	li	sp,21
100000e2:	5452                	lw	s0,52(sp)
100000e4:	4620                	lw	s0,72(a2)
100000e6:	4552                	lw	a0,20(sp)
100000e8:	2051                	jal	1000016c <k_probes+0x114>
100000ea:	4e414353          	0x4e414353
100000ee:	3d20                	fld	fs0,120(a0)
100000f0:	3d3d                	jal	fffff2e <status+0xcffff26>
100000f2:	0000                	unimp
100000f4:	6649                	lui	a2,0x12
100000f6:	7420                	flw	fs0,104(s0)
100000f8:	6968                	flw	fa0,84(a0)
100000fa:	696c2073          	csrs	0x696,s8
100000fe:	656e                	flw	fa0,216(sp)
10000100:	6920                	flw	fs0,80(a0)
10000102:	65722073          	csrs	0x657,tp
10000106:	6461                	lui	s0,0x18
10000108:	6261                	lui	tp,0x18
1000010a:	656c                	flw	fa1,76(a0)
1000010c:	202c                	fld	fa1,64(s0)
1000010e:	6874                	flw	fa3,84(s0)
10000110:	7369                	lui	t1,0xffffa
10000112:	6420                	flw	fs0,72(s0)
10000114:	7669                	lui	a2,0xffffa
10000116:	7369                	lui	t1,0xffffa
10000118:	6d20726f          	jal	tp,100077ea <__stack_pointer+0x67ea>
1000011c:	7461                	lui	s0,0xffff8
1000011e:	73656863          	bltu	a0,s6,1000084e <__global_pointer+0x4e>
10000122:	7920                	flw	fs0,112(a0)
10000124:	2072756f          	jal	a0,10027b2a <__stack_pointer+0x26b2a>
10000128:	20436f53          	0x20436f53
1000012c:	636f6c63          	bltu	t5,s6,10000764 <uart_write_flush+0x30c>
10000130:	00002e6b          	0x2e6b
10000134:	3d4b4c43          	fmadd.h	s8,s6,s4,t2,rmm
10000138:	484d3037          	lui	zero,0x484d3
1000013c:	207a                	fld	ft0,408(sp)
1000013e:	4142                	lw	sp,16(sp)
10000140:	4455                	li	s0,21
10000142:	313d                	jal	ffffd70 <status+0xcfffd68>
10000144:	3531                	jal	fffff50 <status+0xcffff48>
10000146:	3032                	fld	ft0,296(sp)
10000148:	2030                	fld	fa2,64(s0)
1000014a:	4944                	lw	s1,20(a0)
1000014c:	3d56                	fld	fs10,368(sp)
1000014e:	00003833          	snez	a6,zero
10000152:	0000                	unimp
10000154:	3d4b4c43          	fmadd.h	s8,s6,s4,t2,rmm
10000158:	484d3537          	lui	a0,0x484d3
1000015c:	207a                	fld	ft0,408(sp)
1000015e:	4142                	lw	sp,16(sp)
10000160:	4455                	li	s0,21
10000162:	313d                	jal	ffffd90 <status+0xcfffd88>
10000164:	3531                	jal	fffff70 <status+0xcffff68>
10000166:	3032                	fld	ft0,296(sp)
10000168:	2030                	fld	fa2,64(s0)
1000016a:	4944                	lw	s1,20(a0)
1000016c:	3d56                	fld	fs10,368(sp)
1000016e:	3134                	fld	fa3,96(a0)
10000170:	0000                	unimp
10000172:	0000                	unimp
10000174:	3d4b4c43          	fmadd.h	s8,s6,s4,t2,rmm
10000178:	3038                	fld	fa4,96(s0)
1000017a:	484d                	li	a6,19
1000017c:	207a                	fld	ft0,408(sp)
1000017e:	4142                	lw	sp,16(sp)
10000180:	4455                	li	s0,21
10000182:	313d                	jal	ffffdb0 <status+0xcfffda8>
10000184:	3531                	jal	fffff90 <status+0xcffff88>
10000186:	3032                	fld	ft0,296(sp)
10000188:	2030                	fld	fa2,64(s0)
1000018a:	4944                	lw	s1,20(a0)
1000018c:	3d56                	fld	fs10,368(sp)
1000018e:	3334                	fld	fa3,96(a4)
10000190:	0000                	unimp
10000192:	0000                	unimp
10000194:	3d4b4c43          	fmadd.h	s8,s6,s4,t2,rmm
10000198:	3538                	fld	fa4,104(a0)
1000019a:	484d                	li	a6,19
1000019c:	207a                	fld	ft0,408(sp)
1000019e:	4142                	lw	sp,16(sp)
100001a0:	4455                	li	s0,21
100001a2:	313d                	jal	ffffdd0 <status+0xcfffdc8>
100001a4:	3531                	jal	fffffb0 <status+0xcffffa8>
100001a6:	3032                	fld	ft0,296(sp)
100001a8:	2030                	fld	fa2,64(s0)
100001aa:	4944                	lw	s1,20(a0)
100001ac:	3d56                	fld	fs10,368(sp)
100001ae:	3634                	fld	fa3,104(a2)
100001b0:	0000                	unimp
100001b2:	0000                	unimp
100001b4:	3d4b4c43          	fmadd.h	s8,s6,s4,t2,rmm
100001b8:	3039                	jal	ffff9c6 <status+0xcfff9be>
100001ba:	484d                	li	a6,19
100001bc:	207a                	fld	ft0,408(sp)
100001be:	4142                	lw	sp,16(sp)
100001c0:	4455                	li	s0,21
100001c2:	313d                	jal	ffffdf0 <status+0xcfffde8>
100001c4:	3531                	jal	fffffd0 <status+0xcffffc8>
100001c6:	3032                	fld	ft0,296(sp)
100001c8:	2030                	fld	fa2,64(s0)
100001ca:	4944                	lw	s1,20(a0)
100001cc:	3d56                	fld	fs10,368(sp)
100001ce:	3934                	fld	fa3,112(a0)
100001d0:	0000                	unimp
100001d2:	0000                	unimp
100001d4:	3d4b4c43          	fmadd.h	s8,s6,s4,t2,rmm
100001d8:	3539                	jal	fffffe6 <status+0xcffffde>
100001da:	484d                	li	a6,19
100001dc:	207a                	fld	ft0,408(sp)
100001de:	4142                	lw	sp,16(sp)
100001e0:	4455                	li	s0,21
100001e2:	313d                	jal	ffffe10 <status+0xcfffe08>
100001e4:	3531                	jal	ffffff0 <status+0xcffffe8>
100001e6:	3032                	fld	ft0,296(sp)
100001e8:	2030                	fld	fa2,64(s0)
100001ea:	4944                	lw	s1,20(a0)
100001ec:	3d56                	fld	fs10,368(sp)
100001ee:	3235                	jal	ffffb1a <status+0xcfffb12>
100001f0:	0000                	unimp
100001f2:	0000                	unimp
100001f4:	3d4b4c43          	fmadd.h	s8,s6,s4,t2,rmm
100001f8:	3031                	jal	ffffa04 <status+0xcfff9fc>
100001fa:	4d30                	lw	a2,88(a0)
100001fc:	7a48                	flw	fa0,52(a2)
100001fe:	4220                	lw	s0,64(a2)
10000200:	5541                	li	a0,-16
10000202:	3d44                	fld	fs1,184(a0)
10000204:	3131                	jal	ffffe10 <status+0xcfffe08>
10000206:	3235                	jal	ffffb32 <status+0xcfffb2a>
10000208:	3030                	fld	fa2,96(s0)
1000020a:	4420                	lw	s0,72(s0)
1000020c:	5649                	li	a2,-14
1000020e:	353d                	jal	1000003c <_start+0x3c>
10000210:	0034                	addi	a3,sp,8
10000212:	0000                	unimp
10000214:	3d4b4c43          	fmadd.h	s8,s6,s4,t2,rmm
10000218:	3031                	jal	ffffa24 <status+0xcfffa1c>
1000021a:	4d35                	li	s10,13
1000021c:	7a48                	flw	fa0,52(a2)
1000021e:	4220                	lw	s0,64(a2)
10000220:	5541                	li	a0,-16
10000222:	3d44                	fld	fs1,184(a0)
10000224:	3131                	jal	ffffe30 <status+0xcfffe28>
10000226:	3235                	jal	ffffb52 <status+0xcfffb4a>
10000228:	3030                	fld	fa2,96(s0)
1000022a:	4420                	lw	s0,72(s0)
1000022c:	5649                	li	a2,-14
1000022e:	353d                	jal	1000005c <k_probes+0x4>
10000230:	00000037          	lui	zero,0x0
10000234:	3d4b4c43          	fmadd.h	s8,s6,s4,t2,rmm
10000238:	3131                	jal	ffffe44 <status+0xcfffe3c>
1000023a:	4d30                	lw	a2,88(a0)
1000023c:	7a48                	flw	fa0,52(a2)
1000023e:	4220                	lw	s0,64(a2)
10000240:	5541                	li	a0,-16
10000242:	3d44                	fld	fs1,184(a0)
10000244:	3131                	jal	ffffe50 <status+0xcfffe48>
10000246:	3235                	jal	ffffb72 <status+0xcfffb6a>
10000248:	3030                	fld	fa2,96(s0)
1000024a:	4420                	lw	s0,72(s0)
1000024c:	5649                	li	a2,-14
1000024e:	363d                	jal	ffffd7c <status+0xcfffd74>
10000250:	0030                	addi	a2,sp,8
10000252:	0000                	unimp
10000254:	3d4b4c43          	fmadd.h	s8,s6,s4,t2,rmm
10000258:	3131                	jal	ffffe64 <status+0xcfffe5c>
1000025a:	4d35                	li	s10,13
1000025c:	7a48                	flw	fa0,52(a2)
1000025e:	4220                	lw	s0,64(a2)
10000260:	5541                	li	a0,-16
10000262:	3d44                	fld	fs1,184(a0)
10000264:	3131                	jal	ffffe70 <status+0xcfffe68>
10000266:	3235                	jal	ffffb92 <status+0xcfffb8a>
10000268:	3030                	fld	fa2,96(s0)
1000026a:	4420                	lw	s0,72(s0)
1000026c:	5649                	li	a2,-14
1000026e:	363d                	jal	ffffd9c <status+0xcfffd94>
10000270:	00000033          	add	zero,zero,zero
10000274:	3d4b4c43          	fmadd.h	s8,s6,s4,t2,rmm
10000278:	3231                	jal	ffffb84 <status+0xcfffb7c>
1000027a:	4d30                	lw	a2,88(a0)
1000027c:	7a48                	flw	fa0,52(a2)
1000027e:	4220                	lw	s0,64(a2)
10000280:	5541                	li	a0,-16
10000282:	3d44                	fld	fs1,184(a0)
10000284:	3131                	jal	ffffe90 <status+0xcfffe88>
10000286:	3235                	jal	ffffbb2 <status+0xcfffbaa>
10000288:	3030                	fld	fa2,96(s0)
1000028a:	4420                	lw	s0,72(s0)
1000028c:	5649                	li	a2,-14
1000028e:	363d                	jal	ffffdbc <status+0xcfffdb4>
10000290:	0035                	c.addi	zero,13
	...

Disassembly of section .text:

10000294 <puts_crlf>:
10000294:	ff010113          	addi	sp,sp,-16
10000298:	00812423          	sw	s0,8(sp)
1000029c:	00112623          	sw	ra,12(sp)
100002a0:	00050413          	mv	s0,a0
100002a4:	00044503          	lbu	a0,0(s0) # ffff8000 <pulp__FC+0xffff8001>
100002a8:	02051063          	bnez	a0,100002c8 <puts_crlf+0x34>
100002ac:	00d00513          	li	a0,13
100002b0:	190000ef          	jal	ra,10000440 <uart_write>
100002b4:	00812403          	lw	s0,8(sp)
100002b8:	00c12083          	lw	ra,12(sp)
100002bc:	00a00513          	li	a0,10
100002c0:	01010113          	addi	sp,sp,16
100002c4:	17c0006f          	j	10000440 <uart_write>
100002c8:	00140413          	addi	s0,s0,1
100002cc:	174000ef          	jal	ra,10000440 <uart_write>
100002d0:	fd5ff06f          	j	100002a4 <puts_crlf+0x10>

100002d4 <main>:
100002d4:	fd010113          	addi	sp,sp,-48
100002d8:	00f00593          	li	a1,15
100002dc:	00f00513          	li	a0,15
100002e0:	02112623          	sw	ra,44(sp)
100002e4:	02812423          	sw	s0,40(sp)
100002e8:	01412c23          	sw	s4,24(sp)
100002ec:	01512a23          	sw	s5,20(sp)
100002f0:	01612823          	sw	s6,16(sp)
100002f4:	01712623          	sw	s7,12(sp)
100002f8:	01812423          	sw	s8,8(sp)
100002fc:	01912223          	sw	s9,4(sp)
10000300:	02912223          	sw	s1,36(sp)
10000304:	03212023          	sw	s2,32(sp)
10000308:	01312e23          	sw	s3,28(sp)
1000030c:	01a12023          	sw	s10,0(sp)
10000310:	0b8000ef          	jal	ra,100003c8 <gpio_set_direction>
10000314:	00f00513          	li	a0,15
10000318:	0cc000ef          	jal	ra,100003e4 <gpio_enable>
1000031c:	00000513          	li	a0,0
10000320:	0d8000ef          	jal	ra,100003f8 <gpio_write>
10000324:	03002437          	lui	s0,0x3002
10000328:	f8000c93          	li	s9,-128
1000032c:	00300a13          	li	s4,3
10000330:	00700a93          	li	s5,7
10000334:	00000b97          	auipc	s7,0x0
10000338:	da8b8b93          	addi	s7,s7,-600 # 100000dc <k_probes+0x84>
1000033c:	00000c17          	auipc	s8,0x0
10000340:	db8c0c13          	addi	s8,s8,-584 # 100000f4 <k_probes+0x9c>
10000344:	00b00b13          	li	s6,11
10000348:	00000497          	auipc	s1,0x0
1000034c:	d1048493          	addi	s1,s1,-752 # 10000058 <k_probes>
10000350:	00000913          	li	s2,0
10000354:	00c40993          	addi	s3,s0,12 # 300200c <status+0x2004>
10000358:	0044d783          	lhu	a5,4(s1)
1000035c:	00040223          	sb	zero,4(s0)
10000360:	01998023          	sb	s9,0(s3)
10000364:	0ff7f713          	andi	a4,a5,255
10000368:	00e40023          	sb	a4,0(s0)
1000036c:	0087d793          	srli	a5,a5,0x8
10000370:	00f40223          	sb	a5,4(s0)
10000374:	01498023          	sb	s4,0(s3)
10000378:	01540423          	sb	s5,8(s0)
1000037c:	00040823          	sb	zero,16(s0)
10000380:	0084a503          	lw	a0,8(s1)
10000384:	00600d13          	li	s10,6
10000388:	070000ef          	jal	ra,100003f8 <gpio_write>
1000038c:	000b8513          	mv	a0,s7
10000390:	f05ff0ef          	jal	ra,10000294 <puts_crlf>
10000394:	0004a503          	lw	a0,0(s1)
10000398:	fffd0d13          	addi	s10,s10,-1
1000039c:	ef9ff0ef          	jal	ra,10000294 <puts_crlf>
100003a0:	000c0513          	mv	a0,s8
100003a4:	ef1ff0ef          	jal	ra,10000294 <puts_crlf>
100003a8:	0b0000ef          	jal	ra,10000458 <uart_write_flush>
100003ac:	12c00513          	li	a0,300
100003b0:	054000ef          	jal	ra,10000404 <sleep_ms>
100003b4:	fc0d1ce3          	bnez	s10,1000038c <main+0xb8>
100003b8:	00190913          	addi	s2,s2,1
100003bc:	00c48493          	addi	s1,s1,12
100003c0:	f9691ce3          	bne	s2,s6,10000358 <main+0x84>
100003c4:	f85ff06f          	j	10000348 <main+0x74>

100003c8 <gpio_set_direction>:
100003c8:	030057b7          	lui	a5,0x3005
100003cc:	0007a703          	lw	a4,0(a5) # 3005000 <status+0x4ff8>
100003d0:	00b745b3          	xor	a1,a4,a1
100003d4:	00a5f5b3          	and	a1,a1,a0
100003d8:	00e5c5b3          	xor	a1,a1,a4
100003dc:	00b7a023          	sw	a1,0(a5)
100003e0:	00008067          	ret

100003e4 <gpio_enable>:
100003e4:	03005737          	lui	a4,0x3005
100003e8:	08072783          	lw	a5,128(a4) # 3005080 <status+0x5078>
100003ec:	00a7e533          	or	a0,a5,a0
100003f0:	08a72023          	sw	a0,128(a4)
100003f4:	00008067          	ret

100003f8 <gpio_write>:
100003f8:	030057b7          	lui	a5,0x3005
100003fc:	18a7a023          	sw	a0,384(a5) # 3005180 <status+0x5178>
10000400:	00008067          	ret

10000404 <sleep_ms>:
10000404:	0300a7b7          	lui	a5,0x300a
10000408:	0007a023          	sw	zero,0(a5) # 300a000 <status+0x9ff8>
1000040c:	00a7a823          	sw	a0,16(a5)
10000410:	08000693          	li	a3,128
10000414:	3046a073          	csrs	0x304,a3
10000418:	30046073          	csrsi	mstatus,8
1000041c:	00002737          	lui	a4,0x2
10000420:	fd570713          	addi	a4,a4,-43 # 1fd5 <status-0x2ffe033>
10000424:	00e7a023          	sw	a4,0(a5)
10000428:	10500073          	wfi
1000042c:	0007a703          	lw	a4,0(a5)
10000430:	ffe77713          	andi	a4,a4,-2
10000434:	00e7a023          	sw	a4,0(a5)
10000438:	3046b073          	csrc	0x304,a3
1000043c:	00008067          	ret

10000440 <uart_write>:
10000440:	03002737          	lui	a4,0x3002
10000444:	01474783          	lbu	a5,20(a4) # 3002014 <status+0x200c>
10000448:	0207f793          	andi	a5,a5,32
1000044c:	fe078ce3          	beqz	a5,10000444 <uart_write+0x4>
10000450:	00a70023          	sb	a0,0(a4)
10000454:	00008067          	ret

10000458 <uart_write_flush>:
10000458:	03002737          	lui	a4,0x3002
1000045c:	01474783          	lbu	a5,20(a4) # 3002014 <status+0x200c>
10000460:	0207f793          	andi	a5,a5,32
10000464:	fe078ce3          	beqz	a5,1000045c <uart_write_flush+0x4>
10000468:	01474783          	lbu	a5,20(a4)
1000046c:	0407f793          	andi	a5,a5,64
10000470:	fe0786e3          	beqz	a5,1000045c <uart_write_flush+0x4>
10000474:	00008067          	ret

Disassembly of section .Pulp_Chip.Info:

00000000 <.Pulp_Chip.Info>:
   0:	000a                	0xa
   2:	0000                	unimp
   4:	0038                	addi	a4,sp,8
   6:	0000                	unimp
   8:	0001                	nop
   a:	0000                	unimp
   c:	7550                	flw	fa2,44(a0)
   e:	706c                	flw	fa1,100(s0)
  10:	495f 666e 006f      	0x6f666e495f
  16:	70696863          	bltu	s2,t1,726 <status-0x2fff8e2>
  1a:	6e3d                	lui	t3,0xf
  1c:	20656e6f          	jal	t3,56222 <status-0x2fa9de6>
  20:	3d757063          	bleu	s7,a0,3e0 <status-0x2fffc28>
  24:	6f6e                	flw	ft10,216(sp)
  26:	656e                	flw	fa0,216(sp)
  28:	7020                	flw	fs0,96(s0)
  2a:	3d65                	jal	fffffee2 <pulp__FC+0xfffffee3>
  2c:	312d                	jal	fffffc56 <pulp__FC+0xfffffc57>
  2e:	6620                	flw	fs0,72(a2)
  30:	312d3d63          	p.bneimm	s10,-14,34a <status-0x2fffcbe>
  34:	6c20                	flw	fs0,88(s0)
  36:	3d32                	fld	fs10,296(sp)
  38:	312d                	jal	fffffc62 <pulp__FC+0xfffffc63>
  3a:	6c20                	flw	fs0,88(s0)
  3c:	6331                	lui	t1,0xc
  3e:	3d6c                	fld	fa1,248(a0)
  40:	312d                	jal	fffffc6a <pulp__FC+0xfffffc6b>
  42:	6c20                	flw	fs0,88(s0)
  44:	6631                	lui	a2,0xc
  46:	312d3d63          	p.bneimm	s10,-14,360 <status-0x2fffca8>
  4a:	0000                	unimp
	...
